 [1]SvrSession

 Timestamp is 635ea313 (Sun Oct 30 09:15:15 2022)

 Preferred load address is 00400000

 Start         Length     Name                   Class
 0001:00000000 00062f1fH .text                   CODE
 0001:00062f20 00006f05H .text$x                 CODE
 0001:00069e30 0008f599H .text$yc                CODE
 0001:000f93d0 00001b05H .text$yd                CODE
 0002:00000000 000004e0H .idata$5                DATA
 0002:000004e0 0002b5dcH .rdata                  DATA
 0002:0002babc 00000058H .rdata$debug            DATA
 0002:0002bb14 00000088H .rdata$r                DATA
 0002:0002bb9c 00000004H .rtc$IAA                DATA
 0002:0002bba0 00000004H .rtc$IZZ                DATA
 0002:0002bba4 00000004H .rtc$TAA                DATA
 0002:0002bba8 00000004H .rtc$TZZ                DATA
 0002:0002bbac 000070ecH .xdata$x                DATA
 0002:00032c98 00000000H ATL$__a                 DATA
 0002:00032c98 00000000H ATL$__z                 DATA
 0002:00032c98 000000f0H .idata$2                DATA
 0002:00032d88 00000014H .idata$3                DATA
 0002:00032d9c 000004e0H .idata$4                DATA
 0002:0003327c 00001b0cH .idata$6                DATA
 0002:00034d88 00000000H .edata                  DATA
 0003:00000000 00000004H .CRT$XCA                DATA
 0003:00000004 00000004H .CRT$XCAA               DATA
 0003:00000008 00000004H .CRT$XCL                DATA
 0003:0000000c 00011190H .CRT$XCU                DATA
 0003:0001119c 00000004H .CRT$XCZ                DATA
 0003:000111a0 00000004H .CRT$XIA                DATA
 0003:000111a4 00000004H .CRT$XIZ                DATA
 0003:000111b0 00034160H .data                   DATA
 0003:00045310 071f2d64H .bss                    DATA
 0004:00000000 00000310H .rsrc$01                DATA
 0004:00000310 00021968H .rsrc$02                DATA

  Address         Publics by Value              Rva+Base     Lib:Object

 0000:00000000       ___safe_se_handler_count   00000000     <absolute>
 0000:00000000       __except_list              00000000     <absolute>
 0000:00000000       ___safe_se_handler_table   00000000     <absolute>
 0000:00009876       __ldused                   00009876     <absolute>
 0000:00009876       __fltused                  00009876     <absolute>
 0000:00000000       ___ImageBase               00400000     <linker-defined>
 0001:00000000       ?AtlThrow@ATL@@YGXJ@Z      00401000 f i SessionServer.obj
 0001:00000020       ??_H@YGXPAXIHP6EPAX0@Z@Z   00401020 f i SessionServer.obj
 0001:00000050       ?checkCmdParameter@SERVER_CONTROLLER@@YAXPAD@Z 00401050 f   SessionServer.obj
 0001:00000150       ?cmdStartOrStop@@YAXPAUHWND__@@@Z 00401150 f   SessionServer.obj
 0001:000002a0       ?cmdPause@@YAXPAUHWND__@@@Z 004012a0 f   SessionServer.obj
 0001:00000320       ?cmdExit@@YAXPAUHWND__@@@Z 00401320 f   SessionServer.obj
 0001:00000350       ?executeCommand@@YAXPAUHWND__@@@Z 00401350 f   SessionServer.obj
 0001:000003a0       ?setFirstFocus@@YAXPAUHWND__@@@Z 004013a0 f   SessionServer.obj
 0001:000003c0       ?cmdShowWindow@@YAXPAUHWND__@@@Z 004013c0 f   SessionServer.obj
 0001:00000410       ?cmdHideWindow@@YAXPAUHWND__@@@Z 00401410 f   SessionServer.obj
 0001:00000490       ?cmdPopupMenu@@YAXPAUHWND__@@@Z 00401490 f   SessionServer.obj
 0001:00000500       ??$?HDU?$char_traits@D@std@@V?$allocator@D@1@@std@@YA?AV?$basic_string@DU?$char_traits@D@std@@V?$allocator@D@2@@0@ABV10@PBD@Z 00401500 f i SessionServer.obj
 0001:00000580       ?initDialog@@YAXPAUHWND__@@@Z 00401580 f   SessionServer.obj
 0001:000005d0       ?MainDlgProc@@YGHPAUHWND__@@IIJ@Z 004015d0 f   SessionServer.obj
 0001:000008a0       _WinMain@16                004018a0 f   SessionServer.obj
 0001:00000910       ??0STracingData@@QAE@XZ    00401910 f i NetServerLib_A:s_CSessionServer.obj
 0001:00000970       ??0G_SERVER_INFO@@QAE@XZ   00401970 f i NetServerLib_A:s_CSessionServer.obj
 0001:00000a00       ??0CSessionServer@@QAE@PAUHWND__@@00@Z 00401a00 f   NetServerLib_A:s_CSessionServer.obj
 0001:00000ab0       ?GetRestorePetList@GLDBMan@@UAEHHAAV?$vector@UPET_RELIST@@V?$allocator@UPET_RELIST@@@std@@@std@@@Z 00401ab0 f i NetServerLib_A:s_COdbcManager.obj
 0001:00000ab0       ?DeleteVehicle@GLDBMan@@UAEHHH@Z 00401ab0 f i NetServerLib_A:s_COdbcManager.obj
 0001:00000ab0       ?SetPetDualSkill@GLDBMan@@UAEHHH@Z 00401ab0 f i NetServerLib_A:s_COdbcManager.obj
 0001:00000ab0       ?DeletePet@GLDBMan@@UAEHHH@Z 00401ab0 f i NetServerLib_A:s_COdbcManager.obj
 0001:00000ab0       ?RenameCharacter@GLDBMan@@UAEHKPAD@Z 00401ab0 f i NetServerLib_A:s_COdbcManager.obj
 0001:00000ab0       ?SetClubRank@GLDBMan@@UAEHKK@Z 00401ab0 f i NetServerLib_A:s_COdbcManager.obj
 0001:00000ab0       ?SetChaPhoneNumber@GLDBMan@@UAEHHPBD@Z 00401ab0 f i NetServerLib_A:s_COdbcManager.obj
 0001:00000ab0       ?SetChaHairStyle@GLDBMan@@UAEHKH@Z 00401ab0 f i NetServerLib_A:s_COdbcManager.obj
 0001:00000ab0       ?SetClubDeputy@GLDBMan@@UAEHKK@Z 00401ab0 f i NetServerLib_A:s_COdbcManager.obj
 0001:00000ab0       ?UserBlock@GLDBMan@@UAEHHH@Z 00401ab0 f i NetServerLib_A:s_COdbcManager.obj
 0001:00000ab0       ?SetChaHairColor@GLDBMan@@UAEHKH@Z 00401ab0 f i NetServerLib_A:s_COdbcManager.obj
 0001:00000ab0       ?GetClubMember@GLDBMan@@UAEHKAAV?$vector@UGLCLUBMEMBER@@V?$allocator@UGLCLUBMEMBER@@@std@@@std@@@Z 00401ab0 f i NetServerLib_A:s_COdbcManager.obj
 0001:00000ab0       ?InsertMsg@CSessionServer@@UAEHHPAX@Z 00401ab0 f i NetServerLib_A:s_CSessionServer.obj
 0001:00000ab0       ?SetClubAlliance@GLDBMan@@UAEHKK@Z 00401ab0 f i NetServerLib_A:s_COdbcManager.obj
 0001:00000ab0       ?DelChaFriend@GLDBMan@@UAEHHH@Z 00401ab0 f i NetServerLib_A:s_COdbcManager.obj
 0001:00000ab0       ?DelClubRegion@GLDBMan@@UAEHKK@Z 00401ab0 f i NetServerLib_A:s_COdbcManager.obj
 0001:00000ab0       ?SetClubAuthority@GLDBMan@@UAEHKK@Z 00401ab0 f i NetServerLib_A:s_COdbcManager.obj
 0001:00000ab0       ?DeleteClub@GLDBMan@@UAEHKK@Z 00401ab0 f i NetServerLib_A:s_COdbcManager.obj
 0001:00000ab0       ?SetClubNotice@GLDBMan@@UAEHKPBD@Z 00401ab0 f i NetServerLib_A:s_COdbcManager.obj
 0001:00000ab0       ?GetClubBattleInfo@GLDBMan@@UAEHKAAV?$vector@UGLCLUBBATTLE@@V?$allocator@UGLCLUBBATTLE@@@std@@@std@@@Z 00401ab0 f i NetServerLib_A:s_COdbcManager.obj
 0001:00000ab0       ?RestorePet@GLDBMan@@UAEHKH@Z 00401ab0 f i NetServerLib_A:s_COdbcManager.obj
 0001:00000ab0       ?AddChaFriend@GLDBMan@@UAEHHH@Z 00401ab0 f i NetServerLib_A:s_COdbcManager.obj
 0001:00000ab0       ?ReadClubMarkImage@GLDBMan@@UAEHKAAVCByteStream@@@Z 00401ab0 f i NetServerLib_A:s_COdbcManager.obj
 0001:00000ab0       ?GetVehicleBattery@GLDBMan@@UAEHHH@Z 00401ab0 f i NetServerLib_A:s_COdbcManager.obj
 0001:00000ab0       ?SetChaInvenNum@GLDBMan@@UAEHHG@Z 00401ab0 f i NetServerLib_A:s_COdbcManager.obj
 0001:00000ab0       ?AddClubMember@GLDBMan@@UAEHKK@Z 00401ab0 f i NetServerLib_A:s_COdbcManager.obj
 0001:00000ab0       ?ReadClubStorage@GLDBMan@@UAEHKAAVCByteStream@@@Z 00401ab0 f i NetServerLib_A:s_COdbcManager.obj
 0001:00000ab0       ?LogUserAttend@GLDBMan@@UAEHHAAV?$vector@UUSER_ATTEND_INFO@@V?$allocator@UUSER_ATTEND_INFO@@@std@@@std@@@Z 00401ab0 f i NetServerLib_A:s_COdbcManager.obj
 0001:00000ab0       ?SetSwRegion@GLDBMan@@UAEHKK@Z 00401ab0 f i NetServerLib_A:s_COdbcManager.obj
 0001:00000ab0       ?ExchangePet@GLDBMan@@UAEHHH@Z 00401ab0 f i NetServerLib_A:s_COdbcManager.obj
 0001:00000ab0       ?SetChaFaceStyle@GLDBMan@@UAEHKH@Z 00401ab0 f i NetServerLib_A:s_COdbcManager.obj
 0001:00000ab0       ?GetPetFull@GLDBMan@@UAEHHK@Z 00401ab0 f i NetServerLib_A:s_COdbcManager.obj
 0001:00000ab0       ?DelClubAlliance@GLDBMan@@UAEHKK@Z 00401ab0 f i NetServerLib_A:s_COdbcManager.obj
 0001:00000ac0       ??1CSessionServer@@UAE@XZ  00401ac0 f   NetServerLib_A:s_CSessionServer.obj
 0001:00000b30       ?StartClientManager@CSessionServer@@UAEHXZ 00401b30 f   NetServerLib_A:s_CSessionServer.obj
 0001:00000c00       ?StartDbManager@CSessionServer@@QAEHXZ 00401c00 f   NetServerLib_A:s_CSessionServer.obj
 0001:00000ee0       ?Start@CSessionServer@@UAEHXZ 00401ee0 f   NetServerLib_A:s_CSessionServer.obj
 0001:00000fa0       ?Resume@CSessionServer@@UAEHXZ 00401fa0 f   NetServerLib_A:s_CSessionServer.obj
 0001:00001030       ?ReStart@CSessionServer@@UAEHXZ 00402030 f   NetServerLib_A:s_CSessionServer.obj
 0001:00001050       ??1NET_UPDATE_TRACINGCHAR_ALL@@QAE@XZ 00402050 f i NetServerLib_A:s_CSessionServer.obj
 0001:00001070       ?SendClient@CSessionServer@@QAEHKPAX@Z 00402070 f   NetServerLib_A:s_CSessionServer.obj
 0001:00001090       ?ExecuteCommand@CSessionServer@@QAEHPAD@Z 00402090 f   NetServerLib_A:s_CSessionServer.obj
 0001:000012f0       ?MsgLoginMaintenance@CSessionServer@@QAEHPAUMSG_LIST@@@Z 004022f0 f   NetServerLib_A:s_CSessionServer.obj
 0001:00001330       ?size@?$vector@USTracingData@@V?$allocator@USTracingData@@@std@@@std@@QBEIXZ 00402330 f i NetServerLib_A:s_CSessionServer.obj
 0001:00001350       ??0NET_UPDATE_TRACINGCHAR_ALL@@QAE@XZ 00402350 f i NetServerLib_A:s_CSessionServer.obj
 0001:000013e0       ??_GCSessionServer@@UAEPAXI@Z 004023e0 f i NetServerLib_A:s_CSessionServer.obj
 0001:000013e0       ??_ECSessionServer@@UAEPAXI@Z 004023e0 f i NetServerLib_A:s_CSessionServer.obj
 0001:00001400       ?CloseClient@CSessionServer@@QAEXK@Z 00402400 f   NetServerLib_A:s_CSessionServer.obj
 0001:00001700       ?Stop@CSessionServer@@UAEHXZ 00402700 f   NetServerLib_A:s_CSessionServer.obj
 0001:000018a0       ?Pause@CSessionServer@@UAEHXZ 004028a0 f   NetServerLib_A:s_CSessionServer.obj
 0001:00001920       ?DatabaseProc@CSessionServer@@UAEHXZ 00402920 f   NetServerLib_A:s_CSessionServerThread.obj
 0001:000019a0       ?ListenProc@CSessionServer@@UAEHXZ 004029a0 f   NetServerLib_A:s_CSessionServerThread.obj
 0001:00001b40       ?UpdateProc@CSessionServer@@UAEHXZ 00402b40 f   NetServerLib_A:s_CSessionServerThread.obj
 0001:00002110       ?WorkProc@CSessionServer@@UAEHXZ 00403110 f   NetServerLib_A:s_CSessionServerThread.obj
 0001:000023b0       ?ReadFileType@basestream@@MAEXXZ 004033b0 f i NetServerLib_A:s_COdbcGameInven.obj
 0001:000023b0       ??3@YAXPAX0@Z              004033b0 f i NetServerLib_A:s_CServer.obj
 0001:000023b0       ??1CSystemInfo@SERVER_UTIL@@QAE@XZ 004033b0 f i NetServerLib_A:s_CSystemInfo.obj
 0001:000023b0       ?WriteFileType@basestream@@MAEXXZ 004033b0 f i NetServerLib_A:s_COdbcGameInven.obj
 0001:000023b0       ??1CBit@SERVER_UTIL@@QAE@XZ 004033b0 f i NetServerLib_A:s_CBit.obj
 0001:000023b0       ?CloseFile@basestream@@UAEXXZ 004033b0 f i NetServerLib_A:s_COdbcGameInven.obj
 0001:000023c0       ?StringCopyWorkerA@@YGJPADIPBD@Z 004033c0 f i NetServerLib_A:s_CServer.obj
 0001:00002410       ?StringVPrintfWorkerA@@YGJPADIPBD0@Z 00403410 f i NetServerLib_A:s_CServer.obj
 0001:00002470       ??1logic_error@std@@UAE@XZ 00403470 f i NetServerLib_A:s_CServer.obj
 0001:000024d0       ??_Glogic_error@std@@UAEPAXI@Z 004034d0 f i NetServerLib_A:s_CServer.obj
 0001:000024d0       ??_Elogic_error@std@@UAEPAXI@Z 004034d0 f i NetServerLib_A:s_CServer.obj
 0001:000024f0       ??_Elength_error@std@@UAEPAXI@Z 004034f0 f i NetServerLib_A:s_CServer.obj
 0001:000024f0       ??_Glength_error@std@@UAEPAXI@Z 004034f0 f i NetServerLib_A:s_CServer.obj
 0001:00002510       ??1length_error@std@@UAE@XZ 00403510 f i NetServerLib_A:s_CServer.obj
 0001:00002560       ?StartIOCPList@CServer@@QAEHXZ 00403560 f   NetServerLib_A:s_CServer.obj
 0001:00002640       ?StartMsgManager@CServer@@QAEHXZ 00403640 f   NetServerLib_A:s_CServer.obj
 0001:000026e0       ?StartIOCP@CServer@@QAEHXZ 004036e0 f   NetServerLib_A:s_CServer.obj
 0001:00002740       ?StartWorkThread@CServer@@QAEHXZ 00403740 f   NetServerLib_A:s_CServer.obj
 0001:000029a0       ?StartUpdateThread@CServer@@QAEHXZ 004039a0 f   NetServerLib_A:s_CServer.obj
 0001:00002ac0       ?StartDatabaseThread@CServer@@QAEHXZ 00403ac0 f   NetServerLib_A:s_CServer.obj
 0001:00002b30       ?StopListenThread@CServer@@QAEHXZ 00403b30 f   NetServerLib_A:s_CServer.obj
 0001:00002b70       ?StopIOCPList@CServer@@QAEHXZ 00403b70 f   NetServerLib_A:s_CServer.obj
 0001:00002c00       ?StopWorkThread@CServer@@QAEHXZ 00403c00 f   NetServerLib_A:s_CServer.obj
 0001:00002c60       ?StopIOCP@CServer@@QAEHXZ  00403c60 f   NetServerLib_A:s_CServer.obj
 0001:00002ca0       ?ReleaseOperationData@CServer@@QAEXPAUPER_IO_OPERATION_DATA@@@Z 00403ca0 f   NetServerLib_A:s_CServer.obj
 0001:00002cd0       ?GetFreeOverIO@CServer@@QAEPAUPER_IO_OPERATION_DATA@@H@Z 00403cd0 f   NetServerLib_A:s_CServer.obj
 0001:00002cf0       ?_Xlen@?$vector@USTracingData@@V?$allocator@USTracingData@@@std@@@std@@IBEXXZ 00403cf0 f i NetServerLib_A:s_CServer.obj
 0001:00002cf0       ?_Xlen@?$vector@V?$CStringT@DV?$StrTraitMFC_DLL@DV?$ChTraitsCRT@D@ATL@@@@@ATL@@V?$allocator@V?$CStringT@DV?$StrTraitMFC_DLL@DV?$ChTraitsCRT@D@ATL@@@@@ATL@@@std@@@std@@IBEXXZ 00403cf0 f i NetServerLib_A:s_CServer.obj
 0001:00002d70       ??0logic_error@std@@QAE@ABV01@@Z 00403d70 f i NetServerLib_A:s_CServer.obj
 0001:00002dd0       ??0length_error@std@@QAE@ABV01@@Z 00403dd0 f i NetServerLib_A:s_CServer.obj
 0001:00002df0       ??$fill@PAV?$CStringT@DV?$StrTraitMFC_DLL@DV?$ChTraitsCRT@D@ATL@@@@@ATL@@V12@@std@@YAXPAV?$CStringT@DV?$StrTraitMFC_DLL@DV?$ChTraitsCRT@D@ATL@@@@@ATL@@0ABV12@@Z 00403df0 f i NetServerLib_A:s_CServer.obj
 0001:00002e20       ??$_Copy_backward_opt@PAV?$CStringT@DV?$StrTraitMFC_DLL@DV?$ChTraitsCRT@D@ATL@@@@@ATL@@PAV12@@std@@YAPAV?$CStringT@DV?$StrTraitMFC_DLL@DV?$ChTraitsCRT@D@ATL@@@@@ATL@@PAV12@00U_Nonscalar_ptr_iterator_tag@0@@Z 00403e20 f i NetServerLib_A:s_CServer.obj
 0001:00002e60       ?StringCchPrintfA@@YAJPADIPBDZZ 00403e60 f i NetServerLib_A:s_CServer.obj
 0001:00002e90       ?StringCatWorkerA@@YGJPADIPBD@Z 00403e90 f i NetServerLib_A:s_CServer.obj
 0001:00002ef0       ?SessionStartCfg@CServer@@QAEHXZ 00403ef0 f   NetServerLib_A:s_CServer.obj
 0001:000031f0       ?StartListenThread@CServer@@QAEHXZ 004041f0 f   NetServerLib_A:s_CServer.obj
 0001:00003540       ??$_Uninit_copy@PAV?$CStringT@DV?$StrTraitMFC_DLL@DV?$ChTraitsCRT@D@ATL@@@@@ATL@@PAV12@V?$allocator@V?$CStringT@DV?$StrTraitMFC_DLL@DV?$ChTraitsCRT@D@ATL@@@@@ATL@@@std@@@std@@YAPAV?$CStringT@DV?$StrTraitMFC_DLL@DV?$ChTraitsCRT@D@ATL@@@@@ATL@@PAV12@00AAV?$allocator@V?$CStringT@DV?$StrTraitMFC_DLL@DV?$ChTraitsCRT@D@ATL@@@@@ATL@@@0@U_Nonscalar_ptr_iterator_tag@0@@Z 00404540 f i NetServerLib_A:s_CServer.obj
 0001:000035d0       ??$_Uninit_fill_n@PAV?$CStringT@DV?$StrTraitMFC_DLL@DV?$ChTraitsCRT@D@ATL@@@@@ATL@@IV12@V?$allocator@V?$CStringT@DV?$StrTraitMFC_DLL@DV?$ChTraitsCRT@D@ATL@@@@@ATL@@@std@@@std@@YAXPAV?$CStringT@DV?$StrTraitMFC_DLL@DV?$ChTraitsCRT@D@ATL@@@@@ATL@@IABV12@AAV?$allocator@V?$CStringT@DV?$StrTraitMFC_DLL@DV?$ChTraitsCRT@D@ATL@@@@@ATL@@@0@U_Nonscalar_ptr_iterator_tag@0@@Z 004045d0 f i NetServerLib_A:s_CServer.obj
 0001:00003660       ?_Ufill@?$vector@V?$CStringT@DV?$StrTraitMFC_DLL@DV?$ChTraitsCRT@D@ATL@@@@@ATL@@V?$allocator@V?$CStringT@DV?$StrTraitMFC_DLL@DV?$ChTraitsCRT@D@ATL@@@@@ATL@@@std@@@std@@IAEPAV?$CStringT@DV?$StrTraitMFC_DLL@DV?$ChTraitsCRT@D@ATL@@@@@ATL@@PAV34@IABV34@@Z 00404660 f i NetServerLib_A:s_CServer.obj
 0001:00003690       ?_Destroy@?$vector@V?$CStringT@DV?$StrTraitMFC_DLL@DV?$ChTraitsCRT@D@ATL@@@@@ATL@@V?$allocator@V?$CStringT@DV?$StrTraitMFC_DLL@DV?$ChTraitsCRT@D@ATL@@@@@ATL@@@std@@@std@@IAEXPAV?$CStringT@DV?$StrTraitMFC_DLL@DV?$ChTraitsCRT@D@ATL@@@@@ATL@@0@Z 00404690 f i NetServerLib_A:s_CServer.obj
 0001:000036c0       ?_Insert_n@?$vector@V?$CStringT@DV?$StrTraitMFC_DLL@DV?$ChTraitsCRT@D@ATL@@@@@ATL@@V?$allocator@V?$CStringT@DV?$StrTraitMFC_DLL@DV?$ChTraitsCRT@D@ATL@@@@@ATL@@@std@@@std@@IAEXViterator@12@IABV?$CStringT@DV?$StrTraitMFC_DLL@DV?$ChTraitsCRT@D@ATL@@@@@ATL@@@Z 004046c0 f i NetServerLib_A:s_CServer.obj
 0001:00003940       ?_Destroy@?$vector@USTracingData@@V?$allocator@USTracingData@@@std@@@std@@IAEXPAUSTracingData@@0@Z 00404940 f i NetServerLib_A:s_CServer.obj
 0001:00003970       ?_Tidy@?$vector@V?$CStringT@DV?$StrTraitMFC_DLL@DV?$ChTraitsCRT@D@ATL@@@@@ATL@@V?$allocator@V?$CStringT@DV?$StrTraitMFC_DLL@DV?$ChTraitsCRT@D@ATL@@@@@ATL@@@std@@@std@@IAEXXZ 00404970 f i NetServerLib_A:s_CServer.obj
 0001:000039c0       ?_Tidy@?$vector@USTracingData@@V?$allocator@USTracingData@@@std@@@std@@IAEXXZ 004049c0 f i NetServerLib_A:s_CServer.obj
 0001:00003a10       ??1?$vector@V?$CStringT@DV?$StrTraitMFC_DLL@DV?$ChTraitsCRT@D@ATL@@@@@ATL@@V?$allocator@V?$CStringT@DV?$StrTraitMFC_DLL@DV?$ChTraitsCRT@D@ATL@@@@@ATL@@@std@@@std@@QAE@XZ 00404a10 f i NetServerLib_A:s_CServer.obj
 0001:00003a20       ?push_back@?$vector@V?$CStringT@DV?$StrTraitMFC_DLL@DV?$ChTraitsCRT@D@ATL@@@@@ATL@@V?$allocator@V?$CStringT@DV?$StrTraitMFC_DLL@DV?$ChTraitsCRT@D@ATL@@@@@ATL@@@std@@@std@@QAEXABV?$CStringT@DV?$StrTraitMFC_DLL@DV?$ChTraitsCRT@D@ATL@@@@@ATL@@@Z 00404a20 f i NetServerLib_A:s_CServer.obj
 0001:00003a90       ??1?$vector@USTracingData@@V?$allocator@USTracingData@@@std@@@std@@QAE@XZ 00404a90 f i NetServerLib_A:s_CServer.obj
 0001:00003aa0       ??0CServer@@QAE@PAUHWND__@@00@Z 00404aa0 f   NetServerLib_A:s_CServer.obj
 0001:00003d20       ??1CServer@@UAE@XZ         00404d20 f   NetServerLib_A:s_CServer.obj
 0001:00003e20       ??_ECServer@@UAEPAXI@Z     00404e20 f i NetServerLib_A:s_CServer.obj
 0001:00003e20       ??_GCServer@@UAEPAXI@Z     00404e20 f i NetServerLib_A:s_CServer.obj
 0001:00003e40       ?ReleaseInstance@CConsoleMessage@@SAXXZ 00404e40 f   NetServerLib_A:s_CConsoleMessage.obj
 0001:00003e60       ?SetControl@CConsoleMessage@@QAEXPAUHWND__@@0@Z 00404e60 f   NetServerLib_A:s_CConsoleMessage.obj
 0001:00003ea0       ??0CConsoleMessage@@AAE@H@Z 00404ea0 f   NetServerLib_A:s_CConsoleMessage.obj
 0001:00004010       ??_ECConsoleMessage@@G3AEPAXI@Z 00405010 f i NetServerLib_A:s_CConsoleMessage.obj
 0001:00004020       ??1CConsoleMessage@@EAE@XZ 00405020 f   NetServerLib_A:s_CConsoleMessage.obj
 0001:00004100       ?GetInstance@CConsoleMessage@@SAPAV1@XZ 00405100 f   NetServerLib_A:s_CConsoleMessage.obj
 0001:00004170       ??_GCConsoleMessage@@EAEPAXI@Z 00405170 f i NetServerLib_A:s_CConsoleMessage.obj
 0001:00004170       ??_ECConsoleMessage@@EAEPAXI@Z 00405170 f i NetServerLib_A:s_CConsoleMessage.obj
 0001:00004190       ?WriteDatabase@CConsoleMessage@@QAAXPBDZZ 00405190 f   NetServerLib_A:s_CConsoleMessage.obj
 0001:00004200       ?WriteConsoleA@CConsoleMessage@@QAAXPBDZZ 00405200 f   NetServerLib_A:s_CConsoleMessage.obj
 0001:00004270       ?Write@CConsoleMessage@@UAAXPBDZZ 00405270 f   NetServerLib_A:s_CConsoleMessage.obj
 0001:000042e0       ?Write@CConsoleMessage@@UAAXHPBDZZ 004052e0 f   NetServerLib_A:s_CConsoleMessage.obj
 0001:00004350       ?WriteInfo@CConsoleMessage@@UAAXPBDZZ 00405350 f   NetServerLib_A:s_CConsoleMessage.obj
 0001:000043c0       ?WriteInfo@CConsoleMessage@@UAAXHPBDZZ 004053c0 f   NetServerLib_A:s_CConsoleMessage.obj
 0001:00004430       ?UpdateEditControl@CConsoleMessage@@QAEXPAD@Z 00405430 f   NetServerLib_A:s_CConsoleMessage.obj
 0001:00004570       ?UpdateEditControlInfo@CConsoleMessage@@QAEXPAD@Z 00405570 f   NetServerLib_A:s_CConsoleMessage.obj
 0001:000046b0       ?UpdateEditControl@CConsoleMessage@@QAEXPADH@Z 004056b0 f   NetServerLib_A:s_CConsoleMessage.obj
 0001:000046e0       ?Write@CConsoleMessage@@UAAXHHPBDZZ 004056e0 f   NetServerLib_A:s_CConsoleMessage.obj
 0001:00004830       ?CloseClient@CClientSession@@QAEHK@Z 00405830 f   NetServerLib_A:s_CClientSession.obj
 0001:00004870       ?SetSvrInfo@CClientSession@@QAEXKPAUG_SERVER_INFO@@@Z 00405870 f   NetServerLib_A:s_CClientSession.obj
 0001:000048a0       ?SetSvrCurInfo@CClientSession@@QAEXKPAUG_SERVER_CUR_INFO@@@Z 004058a0 f   NetServerLib_A:s_CClientSession.obj
 0001:000048d0       ?FindServer@CClientSession@@QAEKHHHH@Z 004058d0 f   NetServerLib_A:s_CClientSession.obj
 0001:00004950       ?GetSvrGrp@CClientSession@@QAEHK@Z 00405950 f   NetServerLib_A:s_CClientSession.obj
 0001:00004970       ?GetSvrNum@CClientSession@@QAEHK@Z 00405970 f   NetServerLib_A:s_CClientSession.obj
 0001:00004990       ?GetSvrField@CClientSession@@QAEHK@Z 00405990 f   NetServerLib_A:s_CClientSession.obj
 0001:000049b0       ?GetSvrType@CClientSession@@QAEHK@Z 004059b0 f   NetServerLib_A:s_CClientSession.obj
 0001:000049d0       ?GetSvrCrtClient@CClientSession@@QAEHK@Z 004059d0 f   NetServerLib_A:s_CClientSession.obj
 0001:000049f0       ?GetSvrMaxClient@CClientSession@@QAEHK@Z 004059f0 f   NetServerLib_A:s_CClientSession.obj
 0001:00004a10       ?GetSvrInfo@CClientSession@@QAE?AUG_SERVER_INFO@@K@Z 00405a10 f   NetServerLib_A:s_CClientSession.obj
 0001:00004a40       ?IsGameServer@CClientSession@@QAE_NK@Z 00405a40 f   NetServerLib_A:s_CClientSession.obj
 0001:00004a60       ??3CObject@@SGXPAX@Z       00405a60 f i NetServerLib_A:s_CClientSession.obj
 0001:00004a70       ??0CClientSession@@QAE@HPAVCOverlapped@@0PAX@Z 00405a70 f   NetServerLib_A:s_CClientSession.obj
 0001:00004b20       ?FindServer@CClientSession@@QAEKPBDH@Z 00405b20 f   NetServerLib_A:s_CClientSession.obj
 0001:00004bf0       ?UserEraseServer@CClientSession@@QAEXHH@Z 00405bf0 f   NetServerLib_A:s_CClientSession.obj
 0001:00004ce0       ?UserEraseAll@CClientSession@@QAEXXZ 00405ce0 f   NetServerLib_A:s_CClientSession.obj
 0001:00004d90       ?PrintUsrList@CClientSession@@QAEXXZ 00405d90 f   NetServerLib_A:s_CClientSession.obj
 0001:00004e60       ??1CClientSession@@UAE@XZ  00405e60 f   NetServerLib_A:s_CClientSession.obj
 0001:00004f00       ??_ECClientSession@@UAEPAXI@Z 00405f00 f i NetServerLib_A:s_CClientSession.obj
 0001:00004f00       ??_GCClientSession@@UAEPAXI@Z 00405f00 f i NetServerLib_A:s_CClientSession.obj
 0001:00004f20       ?SetClubAllianceDis@GLDBMan@@UAEHK_J@Z 00405f20 f i NetServerLib_A:s_COdbcManager.obj
 0001:00004f20       ?SetClubAllianceSec@GLDBMan@@UAEHK_J@Z 00405f20 f i NetServerLib_A:s_COdbcManager.obj
 0001:00004f20       ?SetChaFriend@GLDBMan@@UAEHHHH@Z 00405f20 f i NetServerLib_A:s_COdbcManager.obj
 0001:00004f20       ?SetChatBlockTime@GLDBMan@@UAEHH_J@Z 00405f20 f i NetServerLib_A:s_COdbcManager.obj
 0001:00004f20       ?DaumUserPassCheck@GLDBMan@@UAEHPBD0H@Z 00405f20 f i NetServerLib_A:s_COdbcManager.obj
 0001:00004f20       ?GetVehicleInven@GLDBMan@@UAEHPAUGLVEHICLE@@HH@Z 00405f20 f i NetServerLib_A:s_COdbcManager.obj
 0001:00004f20       ?SetPremiumTime@GLDBMan@@UAEHH_J@Z 00405f20 f i NetServerLib_A:s_COdbcManager.obj
 0001:00004f20       ?WriteClubStorage@GLDBMan@@UAEHKPAEH@Z 00405f20 f i NetServerLib_A:s_COdbcManager.obj
 0001:00004f20       ?GetPetSkill@GLDBMan@@UAEHHPAUGLPET@@K@Z 00405f20 f i NetServerLib_A:s_COdbcManager.obj
 0001:00004f20       ?UpdateUserMoneyAdd@GLDBMan@@UAEHK_J@Z 00405f20 f i NetServerLib_A:s_COdbcManager.obj
 0001:00004f20       ?SetPetColor@GLDBMan@@UAEHHHH@Z 00405f20 f i NetServerLib_A:s_COdbcManager.obj
 0001:00004f20       ?SetClubDissolutionTime@GLDBMan@@UAEHK_J@Z 00405f20 f i NetServerLib_A:s_COdbcManager.obj
 0001:00004f20       ?InsertUserAttend@GLDBMan@@UAEHHHH@Z 00405f20 f i NetServerLib_A:s_COdbcManager.obj
 0001:00004f20       ?SetVehicleBattery@GLDBMan@@UAEHHHH@Z 00405f20 f i NetServerLib_A:s_COdbcManager.obj
 0001:00004f20       ?SetClubRegion@GLDBMan@@UAEHKKM@Z 00405f20 f i NetServerLib_A:s_COdbcManager.obj
 0001:00004f20       ?GetPet@GLDBMan@@UAEHPAUGLPET@@KK@Z 00405f20 f i NetServerLib_A:s_COdbcManager.obj
 0001:00004f20       ?UpdateUserLastInfoAdd@GLDBMan@@UAEHK_J@Z 00405f20 f i NetServerLib_A:s_COdbcManager.obj
 0001:00004f20       ?SetPetInven@GLDBMan@@UAEHHHAAVCByteStream@@@Z 00405f20 f i NetServerLib_A:s_COdbcManager.obj
 0001:00004f20       ?SetClubMoney@GLDBMan@@UAEHK_J@Z 00405f20 f i NetServerLib_A:s_COdbcManager.obj
 0001:00004f20       ?RenamePet@GLDBMan@@UAEHHHPBD@Z 00405f20 f i NetServerLib_A:s_COdbcManager.obj
 0001:00004f20       ?SetChaExp@GLDBMan@@UAEHH_J@Z 00405f20 f i NetServerLib_A:s_COdbcManager.obj
 0001:00004f20       ?SetClubMasterFlags@GLDBMan@@UAEHKKK@Z 00405f20 f i NetServerLib_A:s_COdbcManager.obj
 0001:00004f20       ?TerraUserPassCheck@GLDBMan@@UAEHPBD0H@Z 00405f20 f i NetServerLib_A:s_COdbcManager.obj
 0001:00004f20       ?SetClubIncomeMoney@GLDBMan@@UAEHK_J@Z 00405f20 f i NetServerLib_A:s_COdbcManager.obj
 0001:00004f20       ?SetPetFull@GLDBMan@@UAEHHHH@Z 00405f20 f i NetServerLib_A:s_COdbcManager.obj
 0001:00004f20       ?SetPetStyle@GLDBMan@@UAEHHHH@Z 00405f20 f i NetServerLib_A:s_COdbcManager.obj
 0001:00004f20       ?SetVehicleInven@GLDBMan@@UAEHHHAAVCByteStream@@@Z 00405f20 f i NetServerLib_A:s_COdbcManager.obj
 0001:00004f20       ?GetVehicle@GLDBMan@@UAEHPAUGLVEHICLE@@HH@Z 00405f20 f i NetServerLib_A:s_COdbcManager.obj
 0001:00004f20       ?SetClubAuthorityTime@GLDBMan@@UAEHK_J@Z 00405f20 f i NetServerLib_A:s_COdbcManager.obj
 0001:00004f20       ?GetPetInven@GLDBMan@@UAEHHPAUGLPET@@K@Z 00405f20 f i NetServerLib_A:s_COdbcManager.obj
 0001:00004f30       ?LogPartyMatch@GLDBMan@@UAEHHHGG@Z 00405f30 f i NetServerLib_A:s_COdbcManager.obj
 0001:00004f30       ?ExciteUserPassCheck@GLDBMan@@UAEHPBD00H@Z 00405f30 f i NetServerLib_A:s_COdbcManager.obj
 0001:00004f30       ?WriteClubMarkImage@GLDBMan@@UAEHKKPAEH@Z 00405f30 f i NetServerLib_A:s_COdbcManager.obj
 0001:00004f30       ?SetChaStorageDate@GLDBMan@@UAEHHH_J@Z 00405f30 f i NetServerLib_A:s_COdbcManager.obj
 0001:00004f30       ?LogSMS@GLDBMan@@UAEHHHPBD0@Z 00405f30 f i NetServerLib_A:s_COdbcManager.obj
 0001:00004f30       ?SaveClubBattle@GLDBMan@@UAEHKKHH@Z 00405f30 f i NetServerLib_A:s_COdbcManager.obj
 0001:00004f30       ?SetClubBattle@GLDBMan@@UAEHKKKH@Z 00405f30 f i NetServerLib_A:s_COdbcManager.obj
 0001:00004f40       ?GetItemMaxNum@GLDBMan@@UAE_JHHHAAV?$vector@UVIEWLOGITEMEXCHANGEMAX@@V?$allocator@UVIEWLOGITEMEXCHANGEMAX@@@std@@@std@@@Z 00405f40 f i NetServerLib_A:s_COdbcManager.obj
 0001:00004f50       ?SetPurchaseItem@GLDBMan@@UAEHV?$CStringT@DV?$StrTraitMFC_DLL@DV?$ChTraitsCRT@D@ATL@@@@@ATL@@H@Z 00405f50 f i NetServerLib_A:s_COdbcManager.obj
 0001:00004f50       ?CreateClub@GLDBMan@@UAEHV?$CStringT@DV?$StrTraitMFC_DLL@DV?$ChTraitsCRT@D@ATL@@@@@ATL@@K@Z 00405f50 f i NetServerLib_A:s_COdbcManager.obj
 0001:00004f50       ?GetPurchaseItem@GLDBMan@@UAEHV?$CStringT@DV?$StrTraitMFC_DLL@DV?$ChTraitsCRT@D@ATL@@@@@ATL@@AAV?$vector@USHOPPURCHASE@@V?$allocator@USHOPPURCHASE@@@std@@@std@@@Z 00405f50 f i NetServerLib_A:s_COdbcManager.obj
 0001:00004f60       ?CreateVehicle@GLDBMan@@UAEHHPBDHHH@Z 00405f60 f i NetServerLib_A:s_COdbcManager.obj
 0001:00004f60       ?SetLastCallPos@GLDBMan@@UAEHHKUD3DXVECTOR3@@@Z 00405f60 f i NetServerLib_A:s_COdbcManager.obj
 0001:00004f70       ?SetChaGenderChange@GLDBMan@@UAEHKHHHHH@Z 00405f70 f i NetServerLib_A:s_COdbcManager.obj
 0001:00004f70       ?UpdatePetSkin@GLDBMan@@UAEHHKHHHH@Z 00405f70 f i NetServerLib_A:s_COdbcManager.obj
 0001:00004f70       ?LogHackProgram@GLDBMan@@UAEHHHHHHPBD@Z 00405f70 f i NetServerLib_A:s_COdbcManager.obj
 0001:00004f70       ?EndClubBattle@GLDBMan@@UAEHKKHHH_N@Z 00405f70 f i NetServerLib_A:s_COdbcManager.obj
 0001:00004f80       ?GetChatBlockTime@GLDBMan@@UAE_JH@Z 00405f80 f i NetServerLib_A:s_COdbcManager.obj
 0001:00004f80       ?GetChaExp@GLDBMan@@UAE_JH@Z 00405f80 f i NetServerLib_A:s_COdbcManager.obj
 0001:00004f80       ?GetClubIncomeMoney@GLDBMan@@UAE_JK@Z 00405f80 f i NetServerLib_A:s_COdbcManager.obj
 0001:00004f80       ?GetClubMoney@GLDBMan@@UAE_JK@Z 00405f80 f i NetServerLib_A:s_COdbcManager.obj
 0001:00004f90       ?LogAppeal@GLDBMan@@UAEHHHV?$CStringT@DV?$StrTraitMFC_DLL@DV?$ChTraitsCRT@D@ATL@@@@@ATL@@@Z 00405f90 f i NetServerLib_A:s_COdbcManager.obj
 0001:00004fa0       ?SaveChaPos@GLDBMan@@UAEHKKKMMMKMMMKMMM@Z 00405fa0 f i NetServerLib_A:s_COdbcManager.obj
 0001:00004fb0       ?CreatePet@GLDBMan@@UAEHHPBDHHHHHHH@Z 00405fb0 f i NetServerLib_A:s_COdbcManager.obj
 0001:00004fc0       ?SetPetSkill@GLDBMan@@UAEHHHHHHHHH@Z 00405fc0 f i NetServerLib_A:s_COdbcManager.obj
 0001:00004fc0       ?SetVehicleColor@GLDBMan@@UAEHHHHHHHHH@Z 00405fc0 f i NetServerLib_A:s_COdbcManager.obj
 0001:00004fd0       ?InsertAttendItem@GLDBMan@@UAEHV?$CStringT@DV?$StrTraitMFC_DLL@DV?$ChTraitsCRT@D@ATL@@@@@ATL@@0HH@Z 00405fd0 f i NetServerLib_A:s_COdbcManager.obj
 0001:00004ff0       ?SetServiceProvider@COdbcManager@@QAEXH@Z 00405ff0 f   NetServerLib_A:s_COdbcManager.obj
 0001:00005000       ?ReleaseInstance@COdbcManager@@SAXXZ 00406000 f   NetServerLib_A:s_COdbcManager.obj
 0001:00005020       ?OpenUserDB@COdbcManager@@QAEHPAD000HH@Z 00406020 f   NetServerLib_A:s_COdbcManager.obj
 0001:000050d0       ?OpenLogDB@COdbcManager@@QAEHPAD000HH@Z 004060d0 f   NetServerLib_A:s_COdbcManager.obj
 0001:00005180       ?OpenTerraDB@COdbcManager@@QAEHPAD000HH@Z 00406180 f   NetServerLib_A:s_COdbcManager.obj
 0001:00005230       ?OpenGspDB@COdbcManager@@QAEHPAD000HH@Z 00406230 f   NetServerLib_A:s_COdbcManager.obj
 0001:000052e0       ?OpenThaiDB@COdbcManager@@QAEHPAD000HH@Z 004062e0 f   NetServerLib_A:s_COdbcManager.obj
 0001:00005390       ?Print@COdbcManager@@QAEXABV?$CStringT@DV?$StrTraitMFC_DLL@DV?$ChTraitsCRT@D@ATL@@@@@ATL@@@Z 00406390 f   NetServerLib_A:s_COdbcManager.obj
 0001:000053b0       ?GetErrorString@COdbcManager@@QAE?AV?$CStringT@DV?$StrTraitMFC_DLL@DV?$ChTraitsCRT@D@ATL@@@@@ATL@@PAX@Z 004063b0 f   NetServerLib_A:s_COdbcManager.obj
 0001:000054f0       ?AddJob@COdbcManager@@UAEXPAVCDbAction@@@Z 004064f0 f   NetServerLib_A:s_COdbcManager.obj
 0001:00005510       ?AddLogJob@COdbcManager@@UAEXPAVCDbAction@@@Z 00406510 f   NetServerLib_A:s_COdbcManager.obj
 0001:00005530       ?AddUserJob@COdbcManager@@UAEXPAVCDbAction@@@Z 00406530 f   NetServerLib_A:s_COdbcManager.obj
 0001:00005550       ?AddWebJob@COdbcManager@@UAEXPAVCDbAction@@@Z 00406550 f   NetServerLib_A:s_COdbcManager.obj
 0001:00005570       ??0COdbcManager@@AAE@XZ    00406570 f   NetServerLib_A:s_COdbcManager.obj
 0001:000055f0       ??_ECOdbcManager@@G3AEPAXI@Z 004065f0 f i NetServerLib_A:s_COdbcManager.obj
 0001:00005600       ??1COdbcManager@@EAE@XZ    00406600 f   NetServerLib_A:s_COdbcManager.obj
 0001:00005770       ?GetInstance@COdbcManager@@SAPAV1@XZ 00406770 f   NetServerLib_A:s_COdbcManager.obj
 0001:000057e0       ??_GCOdbcManager@@EAEPAXI@Z 004067e0 f i NetServerLib_A:s_COdbcManager.obj
 0001:000057e0       ??_ECOdbcManager@@EAEPAXI@Z 004067e0 f i NetServerLib_A:s_COdbcManager.obj
 0001:00005800       ?ReleaseInstance@CCfg@@SAXXZ 00406800 f   NetServerLib_A:s_CCfg.obj
 0001:00005820       ?SetDefault@CCfg@@QAEXXZ   00406820 f   NetServerLib_A:s_CCfg.obj
 0001:000058f0       ?GetServerVersion@CCfg@@QAEHXZ 004068f0 f   NetServerLib_A:s_CCfg.obj
 0001:00005900       ?GetPatchVersion@CCfg@@QAEHXZ 00406900 f   NetServerLib_A:s_CCfg.obj
 0001:00005910       ?GetServicePort@CCfg@@QAEHXZ 00406910 f   NetServerLib_A:s_CCfg.obj
 0001:00005920       ?GetServerGroup@CCfg@@QAEHXZ 00406920 f   NetServerLib_A:s_CCfg.obj
 0001:00005930       ?GetServerNumber@CCfg@@QAEHXZ 00406930 f   NetServerLib_A:s_CCfg.obj
 0001:00005930       ?IsStereo@DxSoundMan@@QAEHXZ 00406930 f   EngineSoundLib_A:DxSoundMan.obj
 0001:00005940       ?GetServerMaxClient@CCfg@@QAEHXZ 00406940 f   NetServerLib_A:s_CCfg.obj
 0001:00005950       ?GetServerChannel@CCfg@@QAEHXZ 00406950 f   NetServerLib_A:s_CCfg.obj
 0001:00005960       ?GetServerChannelNumber@CCfg@@QAEHXZ 00406960 f   NetServerLib_A:s_CCfg.obj
 0001:00005970       ?GetServerChannelMaxClient@CCfg@@QAEHXZ 00406970 f   NetServerLib_A:s_CCfg.obj
 0001:00005980       ?GetServiceProvider@CCfg@@QAEHXZ 00406980 f   NetServerLib_A:s_CCfg.obj
 0001:00005990       ?GetMaxThread@CCfg@@QAEHXZ 00406990 f   NetServerLib_A:s_CCfg.obj
 0001:000059a0       ?GetServerIP@CCfg@@QAEPBDXZ 004069a0 f   NetServerLib_A:s_CCfg.obj
 0001:000059b0       ?IsTestServer@CCfg@@QAE_NXZ 004069b0 f   NetServerLib_A:s_CCfg.obj
 0001:000059c0       ?AdultCheck@CCfg@@QAE_NXZ  004069c0 f   NetServerLib_A:s_CCfg.obj
 0001:000059d0       ?IsPKServer@CCfg@@QAE_NXZ  004069d0 f   NetServerLib_A:s_CCfg.obj
 0001:000059e0       ?IsUserEventThread@CCfg@@QAE_NXZ 004069e0 f   NetServerLib_A:s_CCfg.obj
 0001:000059f0       ?GetLangSet@CCfg@@QAEHXZ   004069f0 f   NetServerLib_A:s_CCfg.obj
 0001:00005a00       ?GetUserOdbcName@CCfg@@QAEPADXZ 00406a00 f   NetServerLib_A:s_CCfg.obj
 0001:00005a10       ?GetUserOdbcUser@CCfg@@QAEPADXZ 00406a10 f   NetServerLib_A:s_CCfg.obj
 0001:00005a20       ?GetUserOdbcPass@CCfg@@QAEPADXZ 00406a20 f   NetServerLib_A:s_CCfg.obj
 0001:00005a30       ?GetUserOdbcDatabase@CCfg@@QAEPADXZ 00406a30 f   NetServerLib_A:s_CCfg.obj
 0001:00005a40       ?GetUserOdbcResponseTime@CCfg@@QAEHXZ 00406a40 f   NetServerLib_A:s_CCfg.obj
 0001:00005a50       ?GetUserOdbcPoolSize@CCfg@@QAEHXZ 00406a50 f   NetServerLib_A:s_CCfg.obj
 0001:00005a60       ?GetLogOdbcName@CCfg@@QAEPADXZ 00406a60 f   NetServerLib_A:s_CCfg.obj
 0001:00005a70       ?GetLogOdbcUser@CCfg@@QAEPADXZ 00406a70 f   NetServerLib_A:s_CCfg.obj
 0001:00005a80       ?GetLogOdbcPass@CCfg@@QAEPADXZ 00406a80 f   NetServerLib_A:s_CCfg.obj
 0001:00005a90       ?GetLogOdbcDatabase@CCfg@@QAEPADXZ 00406a90 f   NetServerLib_A:s_CCfg.obj
 0001:00005aa0       ?GetLogOdbcResponseTime@CCfg@@QAEHXZ 00406aa0 f   NetServerLib_A:s_CCfg.obj
 0001:00005ab0       ?GetLogOdbcPoolSize@CCfg@@QAEHXZ 00406ab0 f   NetServerLib_A:s_CCfg.obj
 0001:00005ac0       ?GetTerraOdbcName@CCfg@@QAEPADXZ 00406ac0 f   NetServerLib_A:s_CCfg.obj
 0001:00005ad0       ?GetTerraOdbcUser@CCfg@@QAEPADXZ 00406ad0 f   NetServerLib_A:s_CCfg.obj
 0001:00005ae0       ?GetTerraOdbcPass@CCfg@@QAEPADXZ 00406ae0 f   NetServerLib_A:s_CCfg.obj
 0001:00005af0       ?GetTerraOdbcDatabase@CCfg@@QAEPADXZ 00406af0 f   NetServerLib_A:s_CCfg.obj
 0001:00005b00       ?GetTerraOdbcResponseTime@CCfg@@QAEHXZ 00406b00 f   NetServerLib_A:s_CCfg.obj
 0001:00005b10       ?GetTerraOdbcPoolSize@CCfg@@QAEHXZ 00406b10 f   NetServerLib_A:s_CCfg.obj
 0001:00005b20       ?GetGspOdbcName@CCfg@@QAEPADXZ 00406b20 f   NetServerLib_A:s_CCfg.obj
 0001:00005b30       ?GetGspOdbcUser@CCfg@@QAEPADXZ 00406b30 f   NetServerLib_A:s_CCfg.obj
 0001:00005b40       ?GetGspOdbcPass@CCfg@@QAEPADXZ 00406b40 f   NetServerLib_A:s_CCfg.obj
 0001:00005b50       ?GetGspOdbcDatabase@CCfg@@QAEPADXZ 00406b50 f   NetServerLib_A:s_CCfg.obj
 0001:00005b60       ?GetGspOdbcResponseTime@CCfg@@QAEHXZ 00406b60 f   NetServerLib_A:s_CCfg.obj
 0001:00005b70       ?GetGspOdbcPoolSize@CCfg@@QAEHXZ 00406b70 f   NetServerLib_A:s_CCfg.obj
 0001:00005b80       ?IsPKLessServer@CCfg@@QAE_NXZ 00406b80 f   NetServerLib_A:s_CCfg.obj
 0001:00005b90       ??0CCfg@@AAE@XZ            00406b90 f   NetServerLib_A:s_CCfg.obj
 0001:00005ca0       ?GetInstance@CCfg@@SAPAV1@XZ 00406ca0 f   NetServerLib_A:s_CCfg.obj
 0001:00005d10       ??1CCfg@@EAE@XZ            00406d10 f   NetServerLib_A:s_CCfg.obj
 0001:00005d40       ?Process@CCfg@@QAEHPAD@Z   00406d40 f   NetServerLib_A:s_CCfg.obj
 0001:000080a0       ??_ECCfg@@EAEPAXI@Z        004090a0 f i NetServerLib_A:s_CCfg.obj
 0001:000080a0       ??_GCCfg@@EAEPAXI@Z        004090a0 f i NetServerLib_A:s_CCfg.obj
 0001:000080c0       ?Load@CCfg@@QAEHPBD@Z      004090c0 f   NetServerLib_A:s_CCfg.obj
 0001:00008220       ?SetServer@CDbExecuter@@QAEXPAVCServer@@@Z 00409220 f   NetServerLib_A:s_CDbAction.obj
 0001:00008230       ?_Xlen@?$deque@PAVCDbAction@@V?$allocator@PAVCDbAction@@@std@@@std@@IBEXXZ 00409230 f i NetServerLib_A:s_CDbAction.obj
 0001:000082b0       ?_Growmap@?$deque@PAVCDbAction@@V?$allocator@PAVCDbAction@@@std@@@std@@IAEXI@Z 004092b0 f i NetServerLib_A:s_CDbAction.obj
 0001:00008410       ?push_back@?$deque@PAVCDbAction@@V?$allocator@PAVCDbAction@@@std@@@std@@QAEXABQAVCDbAction@@@Z 00409410 f i NetServerLib_A:s_CDbAction.obj
 0001:00008490       ??1CLogDbExecuter@@EAE@XZ  00409490 f i NetServerLib_A:s_CDbAction.obj
 0001:000084b0       ??_GCLogDbExecuter@@EAEPAXI@Z 004094b0 f i NetServerLib_A:s_CDbAction.obj
 0001:000084b0       ??_ECLogDbExecuter@@EAEPAXI@Z 004094b0 f i NetServerLib_A:s_CDbAction.obj
 0001:000084d0       ??1CUserDbExecuter@@EAE@XZ 004094d0 f i NetServerLib_A:s_CDbAction.obj
 0001:000084f0       ??_ECUserDbExecuter@@EAEPAXI@Z 004094f0 f i NetServerLib_A:s_CDbAction.obj
 0001:000084f0       ??_GCUserDbExecuter@@EAEPAXI@Z 004094f0 f i NetServerLib_A:s_CDbAction.obj
 0001:00008510       ??1CWebDbExecuter@@EAE@XZ  00409510 f i NetServerLib_A:s_CDbAction.obj
 0001:00008530       ??_GCWebDbExecuter@@EAEPAXI@Z 00409530 f i NetServerLib_A:s_CDbAction.obj
 0001:00008530       ??_ECWebDbExecuter@@EAEPAXI@Z 00409530 f i NetServerLib_A:s_CDbAction.obj
 0001:00008550       ?ExecuteJob@CDbExecuter@@QAEXXZ 00409550 f   NetServerLib_A:s_CDbAction.obj
 0001:000085f0       ?ExecuteJobLast@CDbExecuter@@QAEXXZ 004095f0 f   NetServerLib_A:s_CDbAction.obj
 0001:00008680       ??1CDbExecuter@@EAE@XZ     00409680 f i NetServerLib_A:s_CDbAction.obj
 0001:000086a0       ??_ECDbExecuter@@EAEPAXI@Z 004096a0 f i NetServerLib_A:s_CDbAction.obj
 0001:000086a0       ??_GCDbExecuter@@EAEPAXI@Z 004096a0 f i NetServerLib_A:s_CDbAction.obj
 0001:000086c0       ?GetInstance@CLogDbExecuter@@SAPAV1@XZ 004096c0 f   NetServerLib_A:s_CDbAction.obj
 0001:00008750       ?GetInstance@CUserDbExecuter@@SAPAV1@XZ 00409750 f   NetServerLib_A:s_CDbAction.obj
 0001:000087e0       ?GetInstance@CWebDbExecuter@@SAPAV1@XZ 004097e0 f   NetServerLib_A:s_CDbAction.obj
 0001:00008870       ?AddJob@CDbExecuter@@QAEXPAVCDbAction@@@Z 00409870 f   NetServerLib_A:s_CDbAction.obj
 0001:00008870       ?AddJob@CWebDbExecuter@@QAEXPAVCDbAction@@@Z 00409870 f   NetServerLib_A:s_CDbAction.obj
 0001:00008870       ?AddJob@CUserDbExecuter@@QAEXPAVCDbAction@@@Z 00409870 f   NetServerLib_A:s_CDbAction.obj
 0001:00008870       ?AddJob@CLogDbExecuter@@QAEXPAVCDbAction@@@Z 00409870 f   NetServerLib_A:s_CDbAction.obj
 0001:00008890       ?GetInstance@CDbExecuter@@SAPAV1@XZ 00409890 f   NetServerLib_A:s_CDbAction.obj
 0001:00008920       ??_Gout_of_range@std@@UAEPAXI@Z 00409920 f i NetServerLib_A:s_CClientManager.obj
 0001:00008920       ??_Eout_of_range@std@@UAEPAXI@Z 00409920 f i NetServerLib_A:s_CClientManager.obj
 0001:00008940       ??1out_of_range@std@@UAE@XZ 00409940 f i NetServerLib_A:s_CClientManager.obj
 0001:00008950       ??_ECNetUser@@UAEPAXI@Z    00409950 f i NetServerLib_A:s_CClientManager.obj
 0001:000089b0       ?IsOnline@CClientManager@@QAE_NK@Z 004099b0 f   NetServerLib_A:s_CClientManager.obj
 0001:000089d0       ?GetSOCKET@CNetUser@@QAEIXZ 004099d0 f   NetServerLib_A:s_CNetUser.obj
 0001:000089d0       ?GetMaxClient@CClientManager@@QAEHXZ 004099d0 f   NetServerLib_A:s_CClientManager.obj
 0001:000089e0       ?SetAcceptedClient@CClientManager@@QAEHKI@Z 004099e0 f   NetServerLib_A:s_CClientManager.obj
 0001:00008a70       ?SetNetMode@CClientManager@@QAEXKH@Z 00409a70 f   NetServerLib_A:s_CClientManager.obj
 0001:00008a90       ?addRcvMsg@CClientManager@@QAEHKPAXK@Z 00409a90 f   NetServerLib_A:s_CClientManager.obj
 0001:00008ac0       ?getRcvMsg@CClientManager@@QAEPAXK_N@Z 00409ac0 f   NetServerLib_A:s_CClientManager.obj
 0001:00008ae0       ?GetSocket@CClientManager@@QAEIK@Z 00409ae0 f   NetServerLib_A:s_CClientManager.obj
 0001:00008b00       ?ResetHeartBeat@CClientManager@@QAEXK@Z 00409b00 f   NetServerLib_A:s_CClientManager.obj
 0001:00008b20       ?SetHeartBeat@CClientManager@@QAEXK@Z 00409b20 f   NetServerLib_A:s_CClientManager.obj
 0001:00008b40       ?CheckHeartBeat@CClientManager@@QAE_NK@Z 00409b40 f   NetServerLib_A:s_CClientManager.obj
 0001:00008b60       ?resetPacketCount@CClientManager@@QAEXXZ 00409b60 f   NetServerLib_A:s_CClientManager.obj
 0001:00008b80       ?_Xlen@?$vector@HV?$allocator@H@std@@@std@@IBEXXZ 00409b80 f i NetServerLib_A:s_CClientManager.obj
 0001:00008c00       ?_Xlen@?$deque@HV?$allocator@H@std@@@std@@IBEXXZ 00409c00 f i NetServerLib_A:s_CClientManager.obj
 0001:00008c80       ?GetCurrentClientNumber@CClientManager@@QAEHXZ 00409c80 f   NetServerLib_A:s_CClientManager.obj
 0001:00008c90       ?_Erase@?$_Tree@V?$_Tmap_traits@HHU?$less@H@std@@V?$allocator@U?$pair@$$CBHH@std@@@2@$0A@@std@@@std@@IAEXPAU_Node@?$_Tree_nod@V?$_Tmap_traits@HHU?$less@H@std@@V?$allocator@U?$pair@$$CBHH@std@@@2@$0A@@std@@@2@@Z 00409c90 f i NetServerLib_A:s_CClientManager.obj
 0001:00008cd0       ??$copy_backward@PAHPAH@std@@YAPAHPAH00@Z 00409cd0 f i NetServerLib_A:s_CClientManager.obj
 0001:00008d00       ??$_Ucopy@PAH@?$vector@HV?$allocator@H@std@@@std@@IAEPAHPAH00@Z 00409d00 f i NetServerLib_A:s_CClientManager.obj
 0001:00008d30       ??1?$deque@HV?$allocator@H@std@@@std@@QAE@XZ 00409d30 f i NetServerLib_A:s_CClientManager.obj
 0001:00008d40       ?erase@?$_Tree@V?$_Tmap_traits@HHU?$less@H@std@@V?$allocator@U?$pair@$$CBHH@std@@@2@$0A@@std@@@std@@QAE?AViterator@12@V312@@Z 00409d40 f i NetServerLib_A:s_CClientManager.obj
 0001:00009010       ??0out_of_range@std@@QAE@ABV01@@Z 0040a010 f i NetServerLib_A:s_CClientManager.obj
 0001:00009030       ?find@?$_Tree@V?$_Tmap_traits@HHU?$less@H@std@@V?$allocator@U?$pair@$$CBHH@std@@@2@$0A@@std@@@std@@QAE?AViterator@12@ABH@Z 0040a030 f i NetServerLib_A:s_CClientManager.obj
 0001:000090a0       ?_Ufill@?$vector@HV?$allocator@H@std@@@std@@IAEPAHPAHIABH@Z 0040a0a0 f i NetServerLib_A:s_CClientManager.obj
 0001:000090d0       ?_Growmap@?$deque@HV?$allocator@H@std@@@std@@IAEXI@Z 0040a0d0 f i NetServerLib_A:s_CClientManager.obj
 0001:00009230       ?equal_range@?$_Tree@V?$_Tmap_traits@HHU?$less@H@std@@V?$allocator@U?$pair@$$CBHH@std@@@2@$0A@@std@@@std@@QBE?AU?$pair@Vconst_iterator@?$_Tree@V?$_Tmap_traits@HHU?$less@H@std@@V?$allocator@U?$pair@$$CBHH@std@@@2@$0A@@std@@@std@@V123@@2@ABH@Z 0040a230 f i NetServerLib_A:s_CClientManager.obj
 0001:000092a0       ?_Insert@?$_Tree@V?$_Tmap_traits@HHU?$less@H@std@@V?$allocator@U?$pair@$$CBHH@std@@@2@$0A@@std@@@std@@IAE?AViterator@12@_NPAU_Node@?$_Tree_nod@V?$_Tmap_traits@HHU?$less@H@std@@V?$allocator@U?$pair@$$CBHH@std@@@2@$0A@@std@@@2@ABU?$pair@$$CBHH@2@@Z 0040a2a0 f i NetServerLib_A:s_CClientManager.obj
 0001:00009460       ?_Insert_n@?$vector@HV?$allocator@H@std@@@std@@IAEXViterator@12@IABH@Z 0040a460 f i NetServerLib_A:s_CClientManager.obj
 0001:00009650       ?erase@?$_Tree@V?$_Tmap_traits@HHU?$less@H@std@@V?$allocator@U?$pair@$$CBHH@std@@@2@$0A@@std@@@std@@QAE?AViterator@12@V312@0@Z 0040a650 f i NetServerLib_A:s_CClientManager.obj
 0001:00009710       ?push_back@?$deque@HV?$allocator@H@std@@@std@@QAEXABH@Z 0040a710 f i NetServerLib_A:s_CClientManager.obj
 0001:00009790       ?insert@?$_Tree@V?$_Tmap_traits@HHU?$less@H@std@@V?$allocator@U?$pair@$$CBHH@std@@@2@$0A@@std@@@std@@QAE?AU?$pair@Viterator@?$_Tree@V?$_Tmap_traits@HHU?$less@H@std@@V?$allocator@U?$pair@$$CBHH@std@@@2@$0A@@std@@@std@@_N@2@ABU?$pair@$$CBHH@2@@Z 0040a790 f i NetServerLib_A:s_CClientManager.obj
 0001:00009850       ?insert@?$_Tree@V?$_Tmap_traits@HHU?$less@H@std@@V?$allocator@U?$pair@$$CBHH@std@@@2@$0A@@std@@@std@@QAE?AViterator@12@V312@ABU?$pair@$$CBHH@2@@Z 0040a850 f i NetServerLib_A:s_CClientManager.obj
 0001:000099c0       ?ResetPreSleepCID@CClientManager@@QAEXXZ 0040a9c0 f   NetServerLib_A:s_CClientManager.obj
 0001:00009b40       ?reserve@?$vector@HV?$allocator@H@std@@@std@@QAEXI@Z 0040ab40 f i NetServerLib_A:s_CClientManager.obj
 0001:00009c10       ?push_back@?$vector@HV?$allocator@H@std@@@std@@QAEXABH@Z 0040ac10 f i NetServerLib_A:s_CClientManager.obj
 0001:00009c60       ??A?$map@HHU?$less@H@std@@V?$allocator@U?$pair@$$CBHH@std@@@2@@std@@QAEAAHABH@Z 0040ac60 f i NetServerLib_A:s_CClientManager.obj
 0001:00009ce0       ??1?$map@HHU?$less@H@std@@V?$allocator@U?$pair@$$CBHH@std@@@2@@std@@QAE@XZ 0040ace0 f i NetServerLib_A:s_CClientManager.obj
 0001:00009d10       ?GetFreeClientID@CClientManager@@QAEHH@Z 0040ad10 f   NetServerLib_A:s_CClientManager.obj
 0001:00009de0       ?CloseClient@CClientManager@@QAEHK_N@Z 0040ade0 f   NetServerLib_A:s_CClientManager.obj
 0001:00009e40       ?SendClient2@CClientManager@@QAEHKPAUPER_IO_OPERATION_DATA@@K@Z 0040ae40 f   NetServerLib_A:s_CClientManager.obj
 0001:00009f40       ??0CClientManager@@QAE@HPAVCOverlapped@@0PAX@Z 0040af40 f   NetServerLib_A:s_CClientManager.obj
 0001:0000a110       ??1CClientManager@@UAE@XZ  0040b110 f   NetServerLib_A:s_CClientManager.obj
 0001:0000a200       ?SendClient2@CClientManager@@QAEHKPAX@Z 0040b200 f   NetServerLib_A:s_CClientManager.obj
 0001:0000a290       ??_ECClientManager@@UAEPAXI@Z 0040b290 f i NetServerLib_A:s_CClientManager.obj
 0001:0000a290       ??_GCClientManager@@UAEPAXI@Z 0040b290 f i NetServerLib_A:s_CClientManager.obj
 0001:0000a2b0       ??0NET_SERVER_CHANNEL_FULL_INFO@@QAE@XZ 0040b2b0 f i NetServerLib_A:s_CSessionServerMsg.obj
 0001:0000a2d0       ??0NET_CHAT_CTRL@@QAE@XZ   0040b2d0 f i NetServerLib_A:s_CSessionServerMsg.obj
 0001:0000a320       ?MsgServerHeartbeatAnswer@CSessionServer@@QAEXPAUMSG_LIST@@@Z 0040b320 f   NetServerLib_A:s_CSessionServerMsg.obj
 0001:0000a350       ?FindServer@CSessionServer@@QAEHHHHH@Z 0040b350 f   NetServerLib_A:s_CSessionServerMsg.obj
 0001:0000a470       ?MsgSndServerStateChange@CSessionServer@@QAEHHH@Z 0040b470 f   NetServerLib_A:s_CSessionServerMsg.obj
 0001:0000a4c0       ?MsgSndCurSvrInfo@CSessionServer@@QAEXK@Z 0040b4c0 f   NetServerLib_A:s_CSessionServerMsg.obj
 0001:0000a590       ?MsgSndCurSvrInfoToAll@CSessionServer@@QAEXXZ 0040b590 f   NetServerLib_A:s_CSessionServerMsg.obj
 0001:0000a610       ?MsgServerCurInfo@CSessionServer@@QAEXPAUMSG_LIST@@@Z 0040b610 f   NetServerLib_A:s_CSessionServerMsg.obj
 0001:0000a630       ?SetChannelInfo@CSessionServer@@QAEXPAUNET_SERVER_CHANNEL_INFO@@@Z 0040b630 f   NetServerLib_A:s_CSessionServerMsg.obj
 0001:0000a740       ?MsgReqSvrFullInfo@CSessionServer@@QAEXK@Z 0040b740 f   NetServerLib_A:s_CSessionServerMsg.obj
 0001:0000a770       ?MsgSvrCmdProcess@CSessionServer@@QAEXPAUMSG_LIST@@@Z 0040b770 f   NetServerLib_A:s_CSessionServerMsg.obj
 0001:0000a880       ??$fill@PAUSTracingData@@U1@@std@@YAXPAUSTracingData@@0ABU1@@Z 0040b880 f i NetServerLib_A:s_CSessionServerMsg.obj
 0001:0000a8c0       ??$_Copy_backward_opt@PAUSTracingData@@PAU1@@std@@YAPAUSTracingData@@PAU1@00U_Nonscalar_ptr_iterator_tag@0@@Z 0040b8c0 f i NetServerLib_A:s_CSessionServerMsg.obj
 0001:0000a910       ?MsgSndChatCtrlGlobal@CSessionServer@@QAEXPAUMSG_LIST@@@Z 0040b910 f   NetServerLib_A:s_CSessionServerMsg.obj
 0001:0000a9e0       ?MsgSndChatCtrlGlobal2@CSessionServer@@QAEXPAUMSG_LIST@@@Z 0040b9e0 f   NetServerLib_A:s_CSessionServerMsg.obj
 0001:0000aab0       ?SetSvrInfo@CSessionServer@@QAEXKPAUG_SERVER_INFO@@@Z 0040bab0 f   NetServerLib_A:s_CSessionServerMsg.obj
 0001:0000aba0       ?MsgSndEncryptKey@CSessionServer@@QAEXK@Z 0040bba0 f   NetServerLib_A:s_CSessionServerMsg.obj
 0001:0000ac10       ?MsgServerChannelInfo@CSessionServer@@QAEXPAUMSG_LIST@@@Z 0040bc10 f   NetServerLib_A:s_CSessionServerMsg.obj
 0001:0000ac30       ?MsgReqAllSvrFullInfo@CSessionServer@@QAEXXZ 0040bc30 f   NetServerLib_A:s_CSessionServerMsg.obj
 0001:0000aca0       ?MsgReqAllSvrCurInfo@CSessionServer@@QAEXXZ 0040bca0 f   NetServerLib_A:s_CSessionServerMsg.obj
 0001:0000ad10       ??0SITEMLINK@@QAE@XZ       0040bd10 f i NetServerLib_A:s_CSessionServerMsg.obj
 0001:0000adc0       ??4SITEMLINK@@QAEAAU0@ABU0@@Z 0040bdc0 f i NetServerLib_A:s_CSessionServerMsg.obj
 0001:0000aed0       ??0NET_CHAT@@QAE@XZ        0040bed0 f i NetServerLib_A:s_CSessionServerMsg.obj
 0001:0000af50       ?MsgChatProcess@CSessionServer@@QAEXPAUMSG_LIST@@@Z 0040bf50 f   NetServerLib_A:s_CSessionServerMsg.obj
 0001:0000afa0       ?MsgSndChatGlobal@CSessionServer@@QAEXPAD@Z 0040bfa0 f   NetServerLib_A:s_CSessionServerMsg.obj
 0001:0000b050       ?MsgEncryptKey@CSessionServer@@QAEXPAUMSG_LIST@@@Z 0040c050 f   NetServerLib_A:s_CSessionServerMsg.obj
 0001:0000b0e0       ??$_Uninit_copy@PAUSTracingData@@PAU1@V?$allocator@USTracingData@@@std@@@std@@YAPAUSTracingData@@PAU1@00AAV?$allocator@USTracingData@@@0@U_Nonscalar_ptr_iterator_tag@0@@Z 0040c0e0 f i NetServerLib_A:s_CSessionServerMsg.obj
 0001:0000b180       ??$_Uninit_fill_n@PAUSTracingData@@IU1@V?$allocator@USTracingData@@@std@@@std@@YAXPAUSTracingData@@IABU1@AAV?$allocator@USTracingData@@@0@U_Nonscalar_ptr_iterator_tag@0@@Z 0040c180 f i NetServerLib_A:s_CSessionServerMsg.obj
 0001:0000b220       ?MsgSndAllSvrInfo@CSessionServer@@QAEXPAUMSG_LIST@@@Z 0040c220 f   NetServerLib_A:s_CSessionServerMsg.obj
 0001:0000b460       ?MsgServerInfo@CSessionServer@@QAEXPAUMSG_LIST@@@Z 0040c460 f   NetServerLib_A:s_CSessionServerMsg.obj
 0001:0000b640       ?_Ufill@?$vector@USTracingData@@V?$allocator@USTracingData@@@std@@@std@@IAEPAUSTracingData@@PAU3@IABU3@@Z 0040c640 f i NetServerLib_A:s_CSessionServerMsg.obj
 0001:0000b670       ?_Insert_n@?$vector@USTracingData@@V?$allocator@USTracingData@@@std@@@std@@IAEXViterator@12@IABUSTracingData@@@Z 0040c670 f i NetServerLib_A:s_CSessionServerMsg.obj
 0001:0000b990       ?insert@?$vector@USTracingData@@V?$allocator@USTracingData@@@std@@@std@@QAE?AViterator@12@V312@ABUSTracingData@@@Z 0040c990 f i NetServerLib_A:s_CSessionServerMsg.obj
 0001:0000ba00       ?push_back@?$vector@USTracingData@@V?$allocator@USTracingData@@@std@@@std@@QAEXABUSTracingData@@@Z 0040ca00 f i NetServerLib_A:s_CSessionServerMsg.obj
 0001:0000ba90       ?MsgTracingChar@CSessionServer@@QAEXPAUMSG_LIST@@_N@Z 0040ca90 f   NetServerLib_A:s_CSessionServerMsg.obj
 0001:0000bbc0       ?MsgProcess@CSessionServer@@QAEHPAUMSG_LIST@@@Z 0040cbc0 f   NetServerLib_A:s_CSessionServerMsg.obj
 0001:0000bce0       ??0CAddLogServerState@@QAE@HHHH@Z 0040cce0 f   NetServerLib_A:s_CDbActionUser.obj
 0001:0000bd30       ??1CUserLogoutSvr@@UAE@XZ  0040cd30 f i NetServerLib_A:s_CDbActionUser.obj
 0001:0000bd30       ??1CDbAction@@UAE@XZ       0040cd30 f i NetServerLib_A:s_CDbActionUser.obj
 0001:0000bd30       ??1CAddLogServerState@@UAE@XZ 0040cd30 f i NetServerLib_A:s_CDbActionUser.obj
 0001:0000bd40       ?Execute@CAddLogServerState@@UAEHPAVCServer@@@Z 0040cd40 f   NetServerLib_A:s_CDbActionUser.obj
 0001:0000bd60       ??0CUserLogoutSvr@@QAE@HH@Z 0040cd60 f   NetServerLib_A:s_CDbActionUser.obj
 0001:0000bda0       ??_GCDbAction@@UAEPAXI@Z   0040cda0 f i NetServerLib_A:s_CDbActionUser.obj
 0001:0000bda0       ??_ECDbAction@@UAEPAXI@Z   0040cda0 f i NetServerLib_A:s_CDbActionUser.obj
 0001:0000bda0       ??_ECAddLogServerState@@UAEPAXI@Z 0040cda0 f i NetServerLib_A:s_CDbActionUser.obj
 0001:0000bda0       ??_GCUserLogoutSvr@@UAEPAXI@Z 0040cda0 f i NetServerLib_A:s_CDbActionUser.obj
 0001:0000bda0       ??_GCAddLogServerState@@UAEPAXI@Z 0040cda0 f i NetServerLib_A:s_CDbActionUser.obj
 0001:0000bda0       ??_ECUserLogoutSvr@@UAEPAXI@Z 0040cda0 f i NetServerLib_A:s_CDbActionUser.obj
 0001:0000bdc0       ?Execute@CUserLogoutSvr@@UAEHPAVCServer@@@Z 0040cdc0 f   NetServerLib_A:s_CDbActionUser.obj
 0001:0000bde0       ??0CTime@ATL@@QAE@HHHHHHH@Z 0040cde0 f i NetServerLib_A:s_COdbcUser.obj
 0001:0000be60       ??0strstreambuf@std@@QAE@H@Z 0040ce60 f i NetServerLib_A:s_COdbcUser.obj
 0001:0000bec0       ??_Estrstreambuf@std@@UAEPAXI@Z 0040cec0 f i NetServerLib_A:s_COdbcUser.obj
 0001:0000bec0       ??_Gstrstreambuf@std@@UAEPAXI@Z 0040cec0 f i NetServerLib_A:s_COdbcUser.obj
 0001:0000bee0       ??0strstream@std@@QAE@XZ   0040cee0 f i NetServerLib_A:s_COdbcUser.obj
 0001:0000bf80       ?Format@CTime@ATL@@QBE?AV?$CStringT@DV?$StrTraitMFC_DLL@DV?$ChTraitsCRT@D@ATL@@@@@2@PBD@Z 0040cf80 f i NetServerLib_A:s_COdbcUser.obj
 0001:0000bff0       ??_Dstrstream@std@@QAEXXZ  0040cff0 f i NetServerLib_A:s_COdbcUser.obj
 0001:0000c010       ?GetChatBlockTime@COdbcManager@@UAE_JH@Z 0040d010 f   NetServerLib_A:s_COdbcUser.obj
 0001:0000c310       ?SetChatBlockTime@COdbcManager@@UAEHH_J@Z 0040d310 f   NetServerLib_A:s_COdbcUser.obj
 0001:0000c4a0       ?SetPremiumTime@COdbcManager@@UAEHH_J@Z 0040d4a0 f   NetServerLib_A:s_COdbcUser.obj
 0001:0000c630       ?UserLogoutSvr@COdbcManager@@QAEHHH@Z 0040d630 f   NetServerLib_A:s_COdbcUser.obj
 0001:0000c710       ?UserChaNumIncrease@COdbcManager@@UAEHH@Z 0040d710 f   NetServerLib_A:s_COdbcUser.obj
 0001:0000c810       ?UserBlock@COdbcManager@@UAEHHH@Z 0040d810 f   NetServerLib_A:s_COdbcUser.obj
 0001:0000c9a0       ?AllUserLogout@COdbcManager@@QAEHXZ 0040d9a0 f   NetServerLib_A:s_COdbcUser.obj
 0001:0000ca80       ??_Gstrstream@std@@UAEPAXI@Z 0040da80 f i NetServerLib_A:s_COdbcUser.obj
 0001:0000ca80       ??_Estrstream@std@@UAEPAXI@Z 0040da80 f i NetServerLib_A:s_COdbcUser.obj
 0001:0000cab0       ?AddTail@CSMsgList@@QAEPAUMSG_LIST@@XZ 0040dab0 f   NetServerLib_A:s_CSMsgList.obj
 0001:0000cb10       ?RemoveHead@CSMsgList@@QAEXXZ 0040db10 f   NetServerLib_A:s_CSMsgList.obj
 0001:0000cb80       ?AddMsg@CSMsgList@@QAEXKPAXH@Z 0040db80 f   NetServerLib_A:s_CSMsgList.obj
 0001:0000cbf0       ?GetCount@CSMsgList@@QAEHXZ 0040dbf0 f   NetServerLib_A:s_CSMsgList.obj
 0001:0000cc00       ??1CSMsgManager@@UAE@XZ    0040dc00 f   NetServerLib_A:s_CSMsgList.obj
 0001:0000cc80       ?MsgQueueFlip@CSMsgManager@@QAEXXZ 0040dc80 f   NetServerLib_A:s_CSMsgList.obj
 0001:0000ccb0       ?MsgQueueInsert@CSMsgManager@@QAEXHPAXH@Z 0040dcb0 f   NetServerLib_A:s_CSMsgList.obj
 0001:0000cd00       ?GetMsg@CSMsgManager@@QAEPAUMSG_LIST@@XZ 0040dd00 f   NetServerLib_A:s_CSMsgList.obj
 0001:0000cd20       ??0CSMsgList@@QAE@H@Z      0040dd20 f   NetServerLib_A:s_CSMsgList.obj
 0001:0000cdb0       ??1CSMsgList@@UAE@XZ       0040ddb0 f   NetServerLib_A:s_CSMsgList.obj
 0001:0000ce10       ??0CSMsgManager@@QAE@H@Z   0040de10 f   NetServerLib_A:s_CSMsgList.obj
 0001:0000cec0       ??_ECSMsgManager@@UAEPAXI@Z 0040dec0 f i NetServerLib_A:s_CSMsgList.obj
 0001:0000cec0       ??_GCSMsgManager@@UAEPAXI@Z 0040dec0 f i NetServerLib_A:s_CSMsgList.obj
 0001:0000cee0       ??_ECSMsgList@@UAEPAXI@Z   0040dee0 f i NetServerLib_A:s_CSMsgList.obj
 0001:0000cee0       ??_GCSMsgList@@UAEPAXI@Z   0040dee0 f i NetServerLib_A:s_CSMsgList.obj
 0001:0000cf00       ?AddTail@?$TCList@UPER_IO_OPERATION_DATA@@@MEM_POOLER@@QAEXPAU?$NODE@UPER_IO_OPERATION_DATA@@@2@@Z 0040df00 f i NetServerLib_A:s_COverlapped.obj
 0001:0000cf50       ?Release@?$TCList@UPER_IO_OPERATION_DATA@@@MEM_POOLER@@QAEXPAU?$NODE@UPER_IO_OPERATION_DATA@@@2@@Z 0040df50 f i NetServerLib_A:s_COverlapped.obj
 0001:0000cfd0       ??0?$NODE@UPER_IO_OPERATION_DATA@@@MEM_POOLER@@QAE@XZ 0040dfd0 f i NetServerLib_A:s_COverlapped.obj
 0001:0000d020       ?Release@COverlapped@@QAEXPAUPER_IO_OPERATION_DATA@@@Z 0040e020 f   NetServerLib_A:s_COverlapped.obj
 0001:0000d050       ?GetUseCount@COverlapped@@QAEHXZ 0040e050 f   NetServerLib_A:s_COverlapped.obj
 0001:0000d060       ?GetUnUseCount@COverlapped@@QAEHXZ 0040e060 f   NetServerLib_A:s_COverlapped.obj
 0001:0000d070       ??1?$TCList@UPER_IO_OPERATION_DATA@@@MEM_POOLER@@QAE@XZ 0040e070 f i NetServerLib_A:s_COverlapped.obj
 0001:0000d0b0       ?AddHead@?$TCList@UPER_IO_OPERATION_DATA@@@MEM_POOLER@@QAEXXZ 0040e0b0 f i NetServerLib_A:s_COverlapped.obj
 0001:0000d120       ??0COverlapped@@QAE@H@Z    0040e120 f   NetServerLib_A:s_COverlapped.obj
 0001:0000d230       ??1COverlapped@@UAE@XZ     0040e230 f   NetServerLib_A:s_COverlapped.obj
 0001:0000d260       ??_GCOverlapped@@UAEPAXI@Z 0040e260 f i NetServerLib_A:s_COverlapped.obj
 0001:0000d260       ??_ECOverlapped@@UAEPAXI@Z 0040e260 f i NetServerLib_A:s_COverlapped.obj
 0001:0000d280       ?GetFreeOverIO@COverlapped@@QAEPAUPER_IO_OPERATION_DATA@@H@Z 0040e280 f   NetServerLib_A:s_COverlapped.obj
 0001:0000d300       ?ToElement@TiXmlElement@@UBEPBV1@XZ 0040e300 f   EngineUILib_A:tinyxml.obj
 0001:0000d300       ??0CSystemInfo@SERVER_UTIL@@QAE@XZ 0040e300 f   NetServerLib_A:s_CSystemInfo.obj
 0001:0000d300       ?ToText@TiXmlText@@UAEPAV1@XZ 0040e300 f   EngineUILib_A:tinyxml.obj
 0001:0000d300       ?ToComment@TiXmlComment@@UBEPBV1@XZ 0040e300 f   EngineUILib_A:tinyxml.obj
 0001:0000d300       ?ToDeclaration@TiXmlDeclaration@@UAEPAV1@XZ 0040e300 f   EngineUILib_A:tinyxml.obj
 0001:0000d300       ?ToUnknown@TiXmlUnknown@@UAEPAV1@XZ 0040e300 f   EngineUILib_A:tinyxml.obj
 0001:0000d300       ?ToDocument@TiXmlDocument@@UAEPAV1@XZ 0040e300 f   NetServerLib_A:s_CWhiteRockXML.obj
 0001:0000d300       ?ToDocument@TiXmlDocument@@UBEPBV1@XZ 0040e300 f   NetServerLib_A:s_CWhiteRockXML.obj
 0001:0000d300       ??0CBit@SERVER_UTIL@@QAE@XZ 0040e300 f   NetServerLib_A:s_CBit.obj
 0001:0000d300       ?ToElement@TiXmlElement@@UAEPAV1@XZ 0040e300 f   EngineUILib_A:tinyxml.obj
 0001:0000d300       ?ToDeclaration@TiXmlDeclaration@@UBEPBV1@XZ 0040e300 f   EngineUILib_A:tinyxml.obj
 0001:0000d300       ??0D3DXVECTOR3@@QAE@XZ     0040e300 f   NetServerLib_A:s_COdbcGameClub.obj
 0001:0000d300       ?ToText@TiXmlText@@UBEPBV1@XZ 0040e300 f   EngineUILib_A:tinyxml.obj
 0001:0000d300       ?ToComment@TiXmlComment@@UAEPAV1@XZ 0040e300 f   EngineUILib_A:tinyxml.obj
 0001:0000d300       ?ToUnknown@TiXmlUnknown@@UBEPBV1@XZ 0040e300 f   EngineUILib_A:tinyxml.obj
 0001:0000d310       ?GetProcessorNumber@CSystemInfo@SERVER_UTIL@@QAEKXZ 0040e310 f   NetServerLib_A:s_CSystemInfo.obj
 0001:0000d330       ?DetermineTimeStamp@CSystemInfo@SERVER_UTIL@@QAEKXZ 0040e330 f   NetServerLib_A:s_CSystemInfo.obj
 0001:0000d340       ?GetCpuSpeed@CSystemInfo@SERVER_UTIL@@QAEKXZ 0040e340 f   NetServerLib_A:s_CSystemInfo.obj
 0001:0000d3f0       ?GetAppPath@CSystemInfo@SERVER_UTIL@@QAE?AV?$CStringT@DV?$StrTraitMFC_DLL@DV?$ChTraitsCRT@D@ATL@@@@@ATL@@XZ 0040e3f0 f   NetServerLib_A:s_CSystemInfo.obj
 0001:0000d5e0       ?GetProcessorName@CSystemInfo@SERVER_UTIL@@QAEXPAD@Z 0040e5e0 f   NetServerLib_A:s_CSystemInfo.obj
 0001:0000d640       ?GetOSName@CSystemInfo@SERVER_UTIL@@QAEXPAD@Z 0040e640 f   NetServerLib_A:s_CSystemInfo.obj
 0001:0000d940       ??0CLock@@QAE@XZ           0040e940 f   NetServerLib_A:s_CLock.obj
 0001:0000d960       ??1CLock@@UAE@XZ           0040e960 f   NetServerLib_A:s_CLock.obj
 0001:0000d980       ?LockOn@CLock@@QAEXXZ      0040e980 f   NetServerLib_A:s_CLock.obj
 0001:0000d990       ?LockOff@CLock@@QAEXXZ     0040e990 f   NetServerLib_A:s_CLock.obj
 0001:0000d9a0       ??_GCLock@@UAEPAXI@Z       0040e9a0 f i NetServerLib_A:s_CLock.obj
 0001:0000d9a0       ??_ECLock@@UAEPAXI@Z       0040e9a0 f i NetServerLib_A:s_CLock.obj
 0001:0000d9d0       ?NET_InitializeSocket@@YAHXZ 0040e9d0 f   NetServerLib_A:s_NetGlobal.obj
 0001:0000da00       ?NET_CloseSocket@@YAXXZ    0040ea00 f   NetServerLib_A:s_NetGlobal.obj
 0001:0000da10       ??0CAddressChecker@SERVER_UTIL@@AAE@H@Z 0040ea10 f   NetServerLib_A:s_CAddressChecker.obj
 0001:0000da80       ?GetInstance@CAddressChecker@SERVER_UTIL@@SAPAV12@XZ 0040ea80 f   NetServerLib_A:s_CAddressChecker.obj
 0001:0000daf0       ?deleteBlockAddressAll@CAddressChecker@SERVER_UTIL@@IAEHXZ 0040eaf0 f   NetServerLib_A:s_CAddressChecker.obj
 0001:0000dbb0       ?deleteKnownAddressAll@CAddressChecker@SERVER_UTIL@@IAEHXZ 0040ebb0 f   NetServerLib_A:s_CAddressChecker.obj
 0001:0000dc70       ?deleteAll@CAddressChecker@SERVER_UTIL@@IAEHXZ 0040ec70 f   NetServerLib_A:s_CAddressChecker.obj
 0001:0000dd20       ??1CAddressChecker@SERVER_UTIL@@AAE@XZ 0040ed20 f   NetServerLib_A:s_CAddressChecker.obj
 0001:0000dda0       ?ReleaseInstance@CAddressChecker@SERVER_UTIL@@SAXXZ 0040eda0 f   NetServerLib_A:s_CAddressChecker.obj
 0001:0000ddd0       ??0CWhiteRock@@AAE@XZ      0040edd0 f   NetServerLib_A:s_CWhiteRock.obj
 0001:0000de80       ??1CWhiteRock@@AAE@XZ      0040ee80 f   NetServerLib_A:s_CWhiteRock.obj
 0001:0000df30       ?GetInstance@CWhiteRock@@SAPAV1@XZ 0040ef30 f   NetServerLib_A:s_CWhiteRock.obj
 0001:0000dfa0       ?ReleaseInstance@CWhiteRock@@SAXXZ 0040efa0 f   NetServerLib_A:s_CWhiteRock.obj
 0001:0000dfd0       ??$fill@PAV?$basic_string@DU?$char_traits@D@std@@V?$allocator@D@2@@std@@V12@@std@@YAXPAV?$basic_string@DU?$char_traits@D@std@@V?$allocator@D@2@@0@0ABV10@@Z 0040efd0 f i NetServerLib_A:s_CLogSystem.obj
 0001:0000e000       ??$_Copy_backward_opt@PAV?$basic_string@DU?$char_traits@D@std@@V?$allocator@D@2@@std@@PAV12@@std@@YAPAV?$basic_string@DU?$char_traits@D@std@@V?$allocator@D@2@@0@PAV10@00U_Nonscalar_ptr_iterator_tag@0@@Z 0040f000 f i NetServerLib_A:s_CLogSystem.obj
 0001:0000e040       ?_Xlen@?$vector@V?$basic_string@DU?$char_traits@D@std@@V?$allocator@D@2@@std@@V?$allocator@V?$basic_string@DU?$char_traits@D@std@@V?$allocator@D@2@@std@@@2@@std@@IBEXXZ 0040f040 f i NetServerLib_A:s_CLogSystem.obj
 0001:0000e0c0       ??$_Uninit_copy@PAV?$basic_string@DU?$char_traits@D@std@@V?$allocator@D@2@@std@@PAV12@V?$allocator@V?$basic_string@DU?$char_traits@D@std@@V?$allocator@D@2@@std@@@2@@std@@YAPAV?$basic_string@DU?$char_traits@D@std@@V?$allocator@D@2@@0@PAV10@00AAV?$allocator@V?$basic_string@DU?$char_traits@D@std@@V?$allocator@D@2@@std@@@0@U_Nonscalar_ptr_iterator_tag@0@@Z 0040f0c0 f i NetServerLib_A:s_CLogSystem.obj
 0001:0000e150       ?StartLog@CLogSystem@SERVER_UTIL@@QAEXXZ 0040f150 f   NetServerLib_A:s_CLogSystem.obj
 0001:0000e3a0       ??$_Uninit_fill_n@PAV?$basic_string@DU?$char_traits@D@std@@V?$allocator@D@2@@std@@IV12@V?$allocator@V?$basic_string@DU?$char_traits@D@std@@V?$allocator@D@2@@std@@@2@@std@@YAXPAV?$basic_string@DU?$char_traits@D@std@@V?$allocator@D@2@@0@IABV10@AAV?$allocator@V?$basic_string@DU?$char_traits@D@std@@V?$allocator@D@2@@std@@@0@U_Nonscalar_ptr_iterator_tag@0@@Z 0040f3a0 f i NetServerLib_A:s_CLogSystem.obj
 0001:0000e430       ?_Ufill@?$vector@V?$basic_string@DU?$char_traits@D@std@@V?$allocator@D@2@@std@@V?$allocator@V?$basic_string@DU?$char_traits@D@std@@V?$allocator@D@2@@std@@@2@@std@@IAEPAV?$basic_string@DU?$char_traits@D@std@@V?$allocator@D@2@@2@PAV32@IABV32@@Z 0040f430 f i NetServerLib_A:s_CLogSystem.obj
 0001:0000e460       ?_Destroy@?$vector@V?$basic_string@DU?$char_traits@D@std@@V?$allocator@D@2@@std@@V?$allocator@V?$basic_string@DU?$char_traits@D@std@@V?$allocator@D@2@@std@@@2@@std@@IAEXPAV?$basic_string@DU?$char_traits@D@std@@V?$allocator@D@2@@2@0@Z 0040f460 f i NetServerLib_A:s_CLogSystem.obj
 0001:0000e490       ?_Insert_n@?$vector@V?$basic_string@DU?$char_traits@D@std@@V?$allocator@D@2@@std@@V?$allocator@V?$basic_string@DU?$char_traits@D@std@@V?$allocator@D@2@@std@@@2@@std@@IAEXViterator@12@IABV?$basic_string@DU?$char_traits@D@std@@V?$allocator@D@2@@2@@Z 0040f490 f i NetServerLib_A:s_CLogSystem.obj
 0001:0000e7b0       ?insert@?$vector@V?$basic_string@DU?$char_traits@D@std@@V?$allocator@D@2@@std@@V?$allocator@V?$basic_string@DU?$char_traits@D@std@@V?$allocator@D@2@@std@@@2@@std@@QAE?AViterator@12@V312@ABV?$basic_string@DU?$char_traits@D@std@@V?$allocator@D@2@@2@@Z 0040f7b0 f i NetServerLib_A:s_CLogSystem.obj
 0001:0000e820       ?_Tidy@?$vector@V?$basic_string@DU?$char_traits@D@std@@V?$allocator@D@2@@std@@V?$allocator@V?$basic_string@DU?$char_traits@D@std@@V?$allocator@D@2@@std@@@2@@std@@IAEXXZ 0040f820 f i NetServerLib_A:s_CLogSystem.obj
 0001:0000e870       ??1?$vector@V?$basic_string@DU?$char_traits@D@std@@V?$allocator@D@2@@std@@V?$allocator@V?$basic_string@DU?$char_traits@D@std@@V?$allocator@D@2@@std@@@2@@std@@QAE@XZ 0040f870 f i NetServerLib_A:s_CLogSystem.obj
 0001:0000e880       ?push_back@?$vector@V?$basic_string@DU?$char_traits@D@std@@V?$allocator@D@2@@std@@V?$allocator@V?$basic_string@DU?$char_traits@D@std@@V?$allocator@D@2@@std@@@2@@std@@QAEXABV?$basic_string@DU?$char_traits@D@std@@V?$allocator@D@2@@2@@Z 0040f880 f i NetServerLib_A:s_CLogSystem.obj
 0001:0000e910       ??0CLogSystem@SERVER_UTIL@@QAE@PAD@Z 0040f910 f   NetServerLib_A:s_CLogSystem.obj
 0001:0000e9f0       ?WriteFileFinal@CLogSystem@SERVER_UTIL@@IAEXXZ 0040f9f0 f   NetServerLib_A:s_CLogSystem.obj
 0001:0000eaf0       ?WriteNow@CLogSystem@SERVER_UTIL@@IAEXXZ 0040faf0 f   NetServerLib_A:s_CLogSystem.obj
 0001:0000ec20       ??1CLogSystem@SERVER_UTIL@@QAE@XZ 0040fc20 f   NetServerLib_A:s_CLogSystem.obj
 0001:0000ec70       ?Write@CLogSystem@SERVER_UTIL@@QAAXPADZZ 0040fc70 f   NetServerLib_A:s_CLogSystem.obj
 0001:0000ee20       ?CreateNewConnection@COdbcSupervisor@@IAEPAUODBC_STMT@@XZ 0040fe20 f   NetServerLib_A:s_COdbcSupervisor.obj
 0001:0000ef40       ?GetConnection@COdbcSupervisor@@QAEPAUODBC_STMT@@XZ 0040ff40 f   NetServerLib_A:s_COdbcSupervisor.obj
 0001:0000ef60       ?FreeConnection@COdbcSupervisor@@QAEXPAUODBC_STMT@@@Z 0040ff60 f   NetServerLib_A:s_COdbcSupervisor.obj
 0001:0000efb0       ?Print@COdbcSupervisor@@QAEXV?$CStringT@DV?$StrTraitMFC_DLL@DV?$ChTraitsCRT@D@ATL@@@@@ATL@@@Z 0040ffb0 f   NetServerLib_A:s_COdbcSupervisor.obj
 0001:0000f000       ?Print@COdbcSupervisor@@QAEXPBD@Z 00410000 f   NetServerLib_A:s_COdbcSupervisor.obj
 0001:0000f020       ?GetErrorString@COdbcSupervisor@@QAE?AV?$CStringT@DV?$StrTraitMFC_DLL@DV?$ChTraitsCRT@D@ATL@@@@@ATL@@PAX@Z 00410020 f   NetServerLib_A:s_COdbcSupervisor.obj
 0001:0000f160       ?SetOdbcName@COdbcSupervisor@@QAEXPBD@Z 00410160 f   NetServerLib_A:s_COdbcSupervisor.obj
 0001:0000f1a0       ?SetUserID@COdbcSupervisor@@QAEXPBD@Z 004101a0 f   NetServerLib_A:s_COdbcSupervisor.obj
 0001:0000f1e0       ?SetUserPass@COdbcSupervisor@@QAEXPBD@Z 004101e0 f   NetServerLib_A:s_COdbcSupervisor.obj
 0001:0000f220       ?SetDBName@COdbcSupervisor@@QAEXPBD@Z 00410220 f   NetServerLib_A:s_COdbcSupervisor.obj
 0001:0000f260       ?OpenDB@COdbcSupervisor@@QAEHXZ 00410260 f   NetServerLib_A:s_COdbcSupervisor.obj
 0001:0000f280       ?ExecuteSQL@COdbcSupervisor@@QAEHPBD@Z 00410280 f   NetServerLib_A:s_COdbcSupervisor.obj
 0001:0000f310       ?ExecuteSp@COdbcSupervisor@@QAEHPBD@Z 00410310 f   NetServerLib_A:s_COdbcSupervisor.obj
 0001:0000f3a0       ?ExecuteSpInt@COdbcSupervisor@@QAEHPBD@Z 004103a0 f   NetServerLib_A:s_COdbcSupervisor.obj
 0001:0000f4b0       ?WriteImage@COdbcSupervisor@@QAEHPBDHPAEH@Z 004104b0 f   NetServerLib_A:s_COdbcSupervisor.obj
 0001:0000f5c0       ?WriteImage@COdbcSupervisor@@QAEHAAVstrstream@std@@HPAEH@Z 004105c0 f   NetServerLib_A:s_COdbcSupervisor.obj
 0001:0000f6e0       ??1?$TCList@UODBC_STMT@@@MEM_POOLER@@QAE@XZ 004106e0 f i NetServerLib_A:s_COdbcSupervisor.obj
 0001:0000f720       ??1COdbcSupervisor@@QAE@XZ 00410720 f   NetServerLib_A:s_COdbcSupervisor.obj
 0001:0000f750       ??0COdbcSupervisor@@QAE@PBD000HH@Z 00410750 f   NetServerLib_A:s_COdbcSupervisor.obj
 0001:0000f830       ?ClearBuffer@CByteStream@@QAEXXZ 00410830 f i NetServerLib_A:s_COdbcSupervisor.obj
 0001:0000f870       ?ReadImagePet@COdbcSupervisor@@QAEHPBDHHAAVCByteStream@@@Z 00410870 f   NetServerLib_A:s_COdbcSupervisor.obj
 0001:0000fa50       ?ReadImageVehicle@COdbcSupervisor@@QAEHPBDHHAAVCByteStream@@@Z 00410a50 f   NetServerLib_A:s_COdbcSupervisor.obj
 0001:0000fc30       ??1basestream@@UAE@XZ      00410c30 f i NetServerLib_A:s_COdbcGameInven.obj
 0001:0000fc50       ?SetFileType@basestream@@UAEXPBDK@Z 00410c50 f i NetServerLib_A:s_COdbcGameInven.obj
 0001:0000fc60       ?Send@CSessionServer@@QAEXKPAUPER_IO_OPERATION_DATA@@K@Z 00410c60 f i NetServerLib_A:s_CSessionServer.obj
 0001:0000fc60       ?GetFileType@basestream@@UAEXPADHAAK@Z 00410c60 f i NetServerLib_A:s_COdbcGameInven.obj
 0001:0000fc70       ?AddWebJob@GLDBMan@@UAEXPAVCDbAction@@@Z 00410c70 f i NetServerLib_A:s_COdbcManager.obj
 0001:0000fc70       ?AddUserJob@GLDBMan@@UAEXPAVCDbAction@@@Z 00410c70 f i NetServerLib_A:s_COdbcManager.obj
 0001:0000fc70       ?AddLogJob@GLDBMan@@UAEXPAVCDbAction@@@Z 00410c70 f i NetServerLib_A:s_COdbcManager.obj
 0001:0000fc70       ?AddJob@GLDBMan@@UAEXPAVCDbAction@@@Z 00410c70 f i NetServerLib_A:s_COdbcManager.obj
 0001:0000fc70       ?SetEncode@basestream@@UAEX_N@Z 00410c70 f i NetServerLib_A:s_COdbcGameInven.obj
 0001:0000fc80       ?IsOpen@basestream@@UAEHXZ 00410c80 f i NetServerLib_A:s_COdbcGameInven.obj
 0001:0000fc90       ?GetFileName@basestream@@UAEPBDXZ 00410c90 f i NetServerLib_A:s_COdbcGameInven.obj
 0001:0000fca0       ??6basestream@@UAEHABV?$basic_string@DU?$char_traits@D@std@@V?$allocator@D@2@@std@@@Z 00410ca0 f i NetServerLib_A:s_COdbcGameInven.obj
 0001:0000fca0       ??6basestream@@UAEHAAW4_D3DBLEND@@@Z 00410ca0 f i NetServerLib_A:s_COdbcGameInven.obj
 0001:0000fca0       ??6basestream@@UAEHM@Z     00410ca0 f i NetServerLib_A:s_COdbcGameInven.obj
 0001:0000fca0       ??6basestream@@UAEHK@Z     00410ca0 f i NetServerLib_A:s_COdbcGameInven.obj
 0001:0000fca0       ?EndBlock@basestream@@UAEHW4EMSFILE_BLOCK@@@Z 00410ca0 f i NetServerLib_A:s_COdbcGameInven.obj
 0001:0000fca0       ??6basestream@@UAEHD@Z     00410ca0 f i NetServerLib_A:s_COdbcGameInven.obj
 0001:0000fca0       ??6basestream@@UAEH_N@Z    00410ca0 f i NetServerLib_A:s_COdbcGameInven.obj
 0001:0000fca0       ??6basestream@@UAEHH@Z     00410ca0 f i NetServerLib_A:s_COdbcGameInven.obj
 0001:0000fca0       ?BeginBlock@basestream@@UAEHW4EMSFILE_BLOCK@@@Z 00410ca0 f i NetServerLib_A:s_COdbcGameInven.obj
 0001:0000fca0       ??6basestream@@UAEHAAU_D3DCOLORVALUE@@@Z 00410ca0 f i NetServerLib_A:s_COdbcGameInven.obj
 0001:0000fca0       ??6basestream@@UAEHI@Z     00410ca0 f i NetServerLib_A:s_COdbcGameInven.obj
 0001:0000fca0       ??6basestream@@UAEHG@Z     00410ca0 f i NetServerLib_A:s_COdbcGameInven.obj
 0001:0000fca0       ??6basestream@@UAEHE@Z     00410ca0 f i NetServerLib_A:s_COdbcGameInven.obj
 0001:0000fca0       ??6basestream@@UAEHF@Z     00410ca0 f i NetServerLib_A:s_COdbcGameInven.obj
 0001:0000fcb0       ?ReadBlockSize@basestream@@UAEKXZ 00410cb0 f i NetServerLib_A:s_COdbcGameInven.obj
 0001:0000fcb0       ?GetDefaltOffSet@basestream@@UAEKXZ 00410cb0 f i NetServerLib_A:s_COdbcGameInven.obj
 0001:0000fcc0       ?write@basestream@@MAEIPBXK@Z 00410cc0 f i NetServerLib_A:s_COdbcGameInven.obj
 0001:0000fcc0       ?read@basestream@@MAEIPAXK@Z 00410cc0 f i NetServerLib_A:s_COdbcGameInven.obj
 0001:0000fcd0       ??6basestream@@UAEHN@Z     00410cd0 f i NetServerLib_A:s_COdbcGameInven.obj
 0001:0000fcd0       ?WriteBuffer@basestream@@UAEHPBXK@Z 00410cd0 f i NetServerLib_A:s_COdbcGameInven.obj
 0001:0000fce0       ??6basestream@@UAEHU_D3DVECTOR@@@Z 00410ce0 f i NetServerLib_A:s_COdbcGameInven.obj
 0001:0000fcf0       ??_Gbasestream@@UAEPAXI@Z  00410cf0 f i NetServerLib_A:s_COdbcGameInven.obj
 0001:0000fcf0       ??_Ebasestream@@UAEPAXI@Z  00410cf0 f i NetServerLib_A:s_COdbcGameInven.obj
 0001:0000fd10       ?SetChaStorageDate@COdbcManager@@UAEHHH_J@Z 00410d10 f   NetServerLib_A:s_COdbcGameInven.obj
 0001:0000fe30       ?SetChaInvenNum@COdbcManager@@UAEHHG@Z 00410e30 f   NetServerLib_A:s_COdbcGameInven.obj
 0001:0000feb0       ?CheckInven@COdbcManager@@QAE_NHK@Z 00410eb0 f   NetServerLib_A:s_COdbcGameInven.obj
 0001:0000ff10       ?MakeUserInven@COdbcManager@@QAEHHK@Z 00410f10 f   NetServerLib_A:s_COdbcGameInven.obj
 0001:0000ff70       ?WriteUserInven@COdbcManager@@QAEHH_JKPAEH@Z 00410f70 f   NetServerLib_A:s_COdbcGameInven.obj
 0001:00010230       ?UpdateUserMoneyAdd@COdbcManager@@UAEHK_J@Z 00411230 f   NetServerLib_A:s_COdbcGameInven.obj
 0001:000102b0       ?_Xlen@?$vector@EV?$allocator@E@std@@@std@@IBEXXZ 004112b0 f i NetServerLib_A:s_COdbcGameInven.obj
 0001:00010330       ?UpdateUserLastInfoAdd@COdbcManager@@UAEHK_J@Z 00411330 f   NetServerLib_A:s_COdbcGameInven.obj
 0001:000106c0       ??0basestream@@QAE@XZ      004116c0 f i NetServerLib_A:s_COdbcGameInven.obj
 0001:00010770       ??0CByteStream@@QAE@XZ     00411770 f i NetServerLib_A:s_COdbcGameInven.obj
 0001:000107c0       ?GetfTell@CByteStream@@UAEJXZ 004117c0 f i NetServerLib_A:s_COdbcGameInven.obj
 0001:000107d0       ?SetOffSet@CByteStream@@UAEHJ@Z 004117d0 f i NetServerLib_A:s_COdbcGameInven.obj
 0001:00010810       ??5CByteStream@@UAEHAAI@Z  00411810 f i NetServerLib_A:s_COdbcGameInven.obj
 0001:00010810       ??5CByteStream@@UAEHAAW4_D3DBLEND@@@Z 00411810 f i NetServerLib_A:s_COdbcGameInven.obj
 0001:00010810       ??5CByteStream@@UAEHAAM@Z  00411810 f i NetServerLib_A:s_COdbcGameInven.obj
 0001:00010810       ??5CByteStream@@UAEHAAH@Z  00411810 f i NetServerLib_A:s_COdbcGameInven.obj
 0001:00010810       ??5CByteStream@@UAEHAAK@Z  00411810 f i NetServerLib_A:s_COdbcGameInven.obj
 0001:00010850       ??5CByteStream@@UAEHAAG@Z  00411850 f i NetServerLib_A:s_COdbcGameInven.obj
 0001:00010850       ??5CByteStream@@UAEHAAF@Z  00411850 f i NetServerLib_A:s_COdbcGameInven.obj
 0001:00010890       ??5CByteStream@@UAEHAA_J@Z 00411890 f i NetServerLib_A:s_COdbcGameInven.obj
 0001:00010890       ??5CByteStream@@UAEHAAN@Z  00411890 f i NetServerLib_A:s_COdbcGameInven.obj
 0001:000108d0       ??5CByteStream@@UAEHAAU_D3DVECTOR@@@Z 004118d0 f i NetServerLib_A:s_COdbcGameInven.obj
 0001:00010910       ??5CByteStream@@UAEHAAU_D3DCOLORVALUE@@@Z 00411910 f i NetServerLib_A:s_COdbcGameInven.obj
 0001:00010950       ??5CByteStream@@UAEHAAE@Z  00411950 f i NetServerLib_A:s_COdbcGameInven.obj
 0001:00010950       ??5CByteStream@@UAEHAA_N@Z 00411950 f i NetServerLib_A:s_COdbcGameInven.obj
 0001:00010950       ??5CByteStream@@UAEHAAD@Z  00411950 f i NetServerLib_A:s_COdbcGameInven.obj
 0001:00010990       ??5CByteStream@@UAEHAAV?$basic_string@DU?$char_traits@D@std@@V?$allocator@D@2@@std@@@Z 00411990 f i NetServerLib_A:s_COdbcGameInven.obj
 0001:00010a10       ?ReadBuffer@CByteStream@@UAEHPAXK@Z 00411a10 f i NetServerLib_A:s_COdbcGameInven.obj
 0001:00010a70       ??1CByteStream@@UAE@XZ     00411a70 f i NetServerLib_A:s_COdbcGameInven.obj
 0001:00010ac0       ??6CByteStream@@UAEHG@Z    00411ac0 f i NetServerLib_A:s_COdbcGameInven.obj
 0001:00010ac0       ??6CByteStream@@UAEHF@Z    00411ac0 f i NetServerLib_A:s_COdbcGameInven.obj
 0001:00010af0       ??$_Insert@PAE@?$vector@EV?$allocator@E@std@@@std@@QAEXViterator@01@PAE1Uforward_iterator_tag@1@@Z 00411af0 f i NetServerLib_A:s_COdbcGameInven.obj
 0001:00010d00       ??$_Uninit_copy@EE@std@@YAPAEPAE00AAV?$allocator@E@0@U_Scalar_ptr_iterator_tag@0@@Z 00411d00 f i NetServerLib_A:s_COdbcGameInven.obj
 0001:00010d20       ??6CByteStream@@UAEHM@Z    00411d20 f i NetServerLib_A:s_COdbcGameInven.obj
 0001:00010d20       ??6CByteStream@@UAEHI@Z    00411d20 f i NetServerLib_A:s_COdbcGameInven.obj
 0001:00010d20       ??6CByteStream@@UAEHH@Z    00411d20 f i NetServerLib_A:s_COdbcGameInven.obj
 0001:00010d20       ??6CByteStream@@UAEHK@Z    00411d20 f i NetServerLib_A:s_COdbcGameInven.obj
 0001:00010d50       ??6CByteStream@@UAEHN@Z    00411d50 f i NetServerLib_A:s_COdbcGameInven.obj
 0001:00010d50       ??6CByteStream@@UAEH_J@Z   00411d50 f i NetServerLib_A:s_COdbcGameInven.obj
 0001:00010d80       ??6CByteStream@@UAEHU_D3DVECTOR@@@Z 00411d80 f i NetServerLib_A:s_COdbcGameInven.obj
 0001:00010db0       ??6CByteStream@@UAEHAAU_D3DCOLORVALUE@@@Z 00411db0 f i NetServerLib_A:s_COdbcGameInven.obj
 0001:00010de0       ??6CByteStream@@UAEHAAW4_D3DBLEND@@@Z 00411de0 f i NetServerLib_A:s_COdbcGameInven.obj
 0001:00010e10       ??6CByteStream@@UAEHE@Z    00411e10 f i NetServerLib_A:s_COdbcGameInven.obj
 0001:00010e10       ??6CByteStream@@UAEH_N@Z   00411e10 f i NetServerLib_A:s_COdbcGameInven.obj
 0001:00010e10       ??6CByteStream@@UAEHD@Z    00411e10 f i NetServerLib_A:s_COdbcGameInven.obj
 0001:00010e40       ??6CByteStream@@UAEHABV?$basic_string@DU?$char_traits@D@std@@V?$allocator@D@2@@std@@@Z 00411e40 f i NetServerLib_A:s_COdbcGameInven.obj
 0001:00010ea0       ?WriteBuffer@CByteStream@@UAEHPBXK@Z 00411ea0 f i NetServerLib_A:s_COdbcGameInven.obj
 0001:00010ed0       ?ReadUserInven@COdbcManager@@QAEHHKAAVCByteStream@@@Z 00411ed0 f   NetServerLib_A:s_COdbcGameInven.obj
 0001:00011170       ??_ECByteStream@@UAEPAXI@Z 00412170 f i NetServerLib_A:s_COdbcGameInven.obj
 0001:00011170       ??_GCByteStream@@UAEPAXI@Z 00412170 f i NetServerLib_A:s_COdbcGameInven.obj
 0001:00011190       ?ReadUserInven@COdbcManager@@UAEHPAUSCHARDATA2@@@Z 00412190 f   NetServerLib_A:s_COdbcGameInven.obj
 0001:000116f0       ?InsertUserAttend@COdbcManager@@UAEHHHH@Z 004126f0 f   NetServerLib_A:s_COdbcLogEvent.obj
 0001:000117c0       ?InsertAttendItem@COdbcManager@@UAEHV?$CStringT@DV?$StrTraitMFC_DLL@DV?$ChTraitsCRT@D@ATL@@@@@ATL@@0HH@Z 004127c0 f   NetServerLib_A:s_COdbcLogEvent.obj
 0001:00011880       ?_Xlen@?$vector@UUSER_ATTEND_INFO@@V?$allocator@UUSER_ATTEND_INFO@@@std@@@std@@IBEXXZ 00412880 f i NetServerLib_A:s_COdbcLogEvent.obj
 0001:00011900       ??$_Uninit_copy@PAUUSER_ATTEND_INFO@@PAU1@V?$allocator@UUSER_ATTEND_INFO@@@std@@@std@@YAPAUUSER_ATTEND_INFO@@PAU1@00AAV?$allocator@UUSER_ATTEND_INFO@@@0@U_Nonscalar_ptr_iterator_tag@0@@Z 00412900 f i NetServerLib_A:s_COdbcLogEvent.obj
 0001:00011900       ??$_Uninit_copy@PAUVIEWLOGITEMEXCHANGEMAX@@PAU1@V?$allocator@UVIEWLOGITEMEXCHANGEMAX@@@std@@@std@@YAPAUVIEWLOGITEMEXCHANGEMAX@@PAU1@00AAV?$allocator@UVIEWLOGITEMEXCHANGEMAX@@@0@U_Nonscalar_ptr_iterator_tag@0@@Z 00412900 f i NetServerLib_A:s_COdbcLogItem.obj
 0001:00011940       ??$_Uninit_fill_n@PAUVIEWLOGITEMEXCHANGEMAX@@IU1@V?$allocator@UVIEWLOGITEMEXCHANGEMAX@@@std@@@std@@YAXPAUVIEWLOGITEMEXCHANGEMAX@@IABU1@AAV?$allocator@UVIEWLOGITEMEXCHANGEMAX@@@0@U_Nonscalar_ptr_iterator_tag@0@@Z 00412940 f i NetServerLib_A:s_COdbcLogItem.obj
 0001:00011940       ??$_Uninit_fill_n@PAUUSER_ATTEND_INFO@@IU1@V?$allocator@UUSER_ATTEND_INFO@@@std@@@std@@YAXPAUUSER_ATTEND_INFO@@IABU1@AAV?$allocator@UUSER_ATTEND_INFO@@@0@U_Nonscalar_ptr_iterator_tag@0@@Z 00412940 f i NetServerLib_A:s_COdbcLogEvent.obj
 0001:00011980       ?_Insert_n@?$vector@UUSER_ATTEND_INFO@@V?$allocator@UUSER_ATTEND_INFO@@@std@@@std@@IAEXViterator@12@IABUUSER_ATTEND_INFO@@@Z 00412980 f i NetServerLib_A:s_COdbcLogEvent.obj
 0001:00011bf0       ?LogUserAttend@COdbcManager@@UAEHHAAV?$vector@UUSER_ATTEND_INFO@@V?$allocator@UUSER_ATTEND_INFO@@@std@@@std@@@Z 00412bf0 f   NetServerLib_A:s_COdbcLogEvent.obj
 0001:00011f50       ?AddLogServerState@COdbcManager@@QAEHHHHH@Z 00412f50 f   NetServerLib_A:s_COdbcLog.obj
 0001:00011fc0       ?LogRandomItem@COdbcManager@@UAEHABUSLOGRANDOMOPTION@@@Z 00412fc0 f   NetServerLib_A:s_COdbcLog.obj
 0001:00012060       ?LogPetAction@COdbcManager@@UAEHABUSLOGPETACTION@@@Z 00413060 f   NetServerLib_A:s_COdbcLog.obj
 0001:000120d0       ?LogVehicleAction@COdbcManager@@UAEHABUSLOGVEHICLEACTION@@@Z 004130d0 f   NetServerLib_A:s_COdbcLog.obj
 0001:00012140       ?LogAction@COdbcManager@@UAEHABUSLOGACTION@@@Z 00413140 f   NetServerLib_A:s_COdbcLog.obj
 0001:000121c0       ?LogAppeal@COdbcManager@@UAEHHHV?$CStringT@DV?$StrTraitMFC_DLL@DV?$ChTraitsCRT@D@ATL@@@@@ATL@@@Z 004131c0 f   NetServerLib_A:s_COdbcLog.obj
 0001:000122c0       ?LogHackProgram@COdbcManager@@UAEHHHHHHPBD@Z 004132c0 f   NetServerLib_A:s_COdbcLog.obj
 0001:000123c0       ?CreateVehicle@COdbcManager@@UAEHHPBDHHH@Z 004133c0 f   NetServerLib_A:s_OdbcGameVehicle.obj
 0001:000124a0       ?SetVehicleBattery@COdbcManager@@UAEHHHH@Z 004134a0 f   NetServerLib_A:s_OdbcGameVehicle.obj
 0001:00012580       ?SetVehicleColor@COdbcManager@@UAEHHHHHHHHH@Z 00413580 f   NetServerLib_A:s_OdbcGameVehicle.obj
 0001:00012670       ?GetVehicleBattery@COdbcManager@@UAEHHH@Z 00413670 f   NetServerLib_A:s_OdbcGameVehicle.obj
 0001:000126d0       ?DeleteVehicle@COdbcManager@@UAEHHH@Z 004136d0 f   NetServerLib_A:s_OdbcGameVehicle.obj
 0001:000127a0       ?GetVehicle@COdbcManager@@UAEHPAUGLVEHICLE@@HH@Z 004137a0 f   NetServerLib_A:s_OdbcGameVehicle.obj
 0001:00012be0       ?GetBuffer@CByteStream@@QAEXAAPAEAAK@Z 00413be0 f i NetServerLib_A:s_OdbcGameVehicle.obj
 0001:00012c20       ?SetVehicleInven@COdbcManager@@UAEHHHAAVCByteStream@@@Z 00413c20 f   NetServerLib_A:s_OdbcGameVehicle.obj
 0001:00012d90       ?GetVehicleInven@COdbcManager@@UAEHPAUGLVEHICLE@@HH@Z 00413d90 f   NetServerLib_A:s_OdbcGameVehicle.obj
 0001:00012e80       ?DaumUserPassCheck@COdbcManager@@UAEHPBD0H@Z 00413e80 f   NetServerLib_A:s_COdbcUserCheck.obj
 0001:00012ee0       ?TerraUserPassCheck@COdbcManager@@UAEHPBD0H@Z 00413ee0 f   NetServerLib_A:s_COdbcUserCheck.obj
 0001:00012f40       ?ExciteUserPassCheck@COdbcManager@@UAEHPBD00H@Z 00413f40 f   NetServerLib_A:s_COdbcUserCheck.obj
 0001:00012fb0       ?ThaiUserClassCheck@COdbcManager@@UAEHPBD@Z 00413fb0 f   NetServerLib_A:s_COdbcUserCheck.obj
 0001:000132c0       ?MyUserClassCheck@COdbcManager@@UAEHPBD@Z 004142c0 f   NetServerLib_A:s_COdbcUserCheck.obj
 0001:00013630       ?LogSMS@COdbcManager@@UAEHHHPBD0@Z 00414630 f   NetServerLib_A:s_COdbcSMS.obj
 0001:000136c0       ?SetChaPhoneNumber@COdbcManager@@UAEHHPBD@Z 004146c0 f   NetServerLib_A:s_COdbcSMS.obj
 0001:00013730       ?CreatePet@COdbcManager@@UAEHHPBDHHHHHHH@Z 00414730 f   NetServerLib_A:s_COdbcGamePet.obj
 0001:00013820       ?ExchangePet@COdbcManager@@UAEHHH@Z 00414820 f   NetServerLib_A:s_COdbcGamePet.obj
 0001:00013900       ?SetPetColor@COdbcManager@@UAEHHHH@Z 00414900 f   NetServerLib_A:s_COdbcGamePet.obj
 0001:000139d0       ?SetPetStyle@COdbcManager@@UAEHHHH@Z 004149d0 f   NetServerLib_A:s_COdbcGamePet.obj
 0001:00013aa0       ?SetPetFull@COdbcManager@@UAEHHHH@Z 00414aa0 f   NetServerLib_A:s_COdbcGamePet.obj
 0001:00013b80       ?DeletePet@COdbcManager@@UAEHHH@Z 00414b80 f   NetServerLib_A:s_COdbcGamePet.obj
 0001:00013c50       ?SetPetSkill@COdbcManager@@UAEHHHHHHHHH@Z 00414c50 f   NetServerLib_A:s_COdbcGamePet.obj
 0001:00013d40       ?GetPetFull@COdbcManager@@UAEHHK@Z 00414d40 f   NetServerLib_A:s_COdbcGamePet.obj
 0001:00013da0       ?RestorePet@COdbcManager@@UAEHKH@Z 00414da0 f   NetServerLib_A:s_COdbcGamePet.obj
 0001:00013e70       ?UpdatePetSkin@COdbcManager@@UAEHHKHHHH@Z 00414e70 f   NetServerLib_A:s_COdbcGamePet.obj
 0001:00013f50       ?SetPetDualSkill@COdbcManager@@UAEHHH@Z 00414f50 f   NetServerLib_A:s_COdbcGamePet.obj
 0001:00013fb0       ?size@?$vector@UPET_RELIST@@V?$allocator@UPET_RELIST@@@std@@@std@@QBEIXZ 00414fb0 f i NetServerLib_A:s_COdbcGamePet.obj
 0001:00013fb0       ?size@?$vector@V?$basic_string@DU?$char_traits@D@std@@V?$allocator@D@2@@std@@V?$allocator@V?$basic_string@DU?$char_traits@D@std@@V?$allocator@D@2@@std@@@2@@std@@QBEIXZ 00414fb0 f i NetServerLib_A:s_CLogSystem.obj
 0001:00013fe0       ?_Xlen@?$vector@UPET_RELIST@@V?$allocator@UPET_RELIST@@@std@@@std@@IBEXXZ 00414fe0 f i NetServerLib_A:s_COdbcGamePet.obj
 0001:00013fe0       ?_Xlen@?$vector@Viterator@?$list@U?$pair@$$CBKUPETSKILL@@@std@@V?$allocator@U?$pair@$$CBKUPETSKILL@@@std@@@2@@std@@V?$allocator@Viterator@?$list@U?$pair@$$CBKUPETSKILL@@@std@@V?$allocator@U?$pair@$$CBKUPETSKILL@@@std@@@2@@std@@@3@@std@@IBEXXZ 00414fe0 f i NetServerLib_A:s_COdbcGamePet.obj
 0001:00014060       ??$fill@PAViterator@?$list@U?$pair@$$CBV?$basic_string@DU?$char_traits@D@std@@V?$allocator@D@2@@std@@PAUSSoundEx@@@std@@V?$allocator@U?$pair@$$CBV?$basic_string@DU?$char_traits@D@std@@V?$allocator@D@2@@std@@PAUSSoundEx@@@std@@@2@@std@@V123@@std@@YAXPAViterator@?$list@U?$pair@$$CBV?$basic_string@DU?$char_traits@D@std@@V?$allocator@D@2@@std@@PAUSSoundEx@@@std@@V?$allocator@U?$pair@$$CBV?$basic_string@DU?$char_traits@D@std@@V?$allocator@D@2@@std@@PAUSSoundEx@@@std@@@2@@0@0ABV120@@Z 00415060 f i EngineSoundLib_A:DxSoundLib.obj
 0001:00014060       ??$fill@PAViterator@?$list@U?$pair@$$CBKUPETSKILL@@@std@@V?$allocator@U?$pair@$$CBKUPETSKILL@@@std@@@2@@std@@V123@@std@@YAXPAViterator@?$list@U?$pair@$$CBKUPETSKILL@@@std@@V?$allocator@U?$pair@$$CBKUPETSKILL@@@std@@@2@@0@0ABV120@@Z 00415060 f i NetServerLib_A:s_COdbcGamePet.obj
 0001:00014060       ??$fill@PAHH@std@@YAXPAH0ABH@Z 00415060 f i NetServerLib_A:s_CClientManager.obj
 0001:00014080       ??$fill@PAUPET_RELIST@@U1@@std@@YAXPAUPET_RELIST@@0ABU1@@Z 00415080 f i NetServerLib_A:s_COdbcGamePet.obj
 0001:000140b0       ?RenamePet@COdbcManager@@UAEHHHPBD@Z 004150b0 f   NetServerLib_A:s_COdbcGamePet.obj
 0001:000141d0       ?GetPet@COdbcManager@@UAEHPAUGLPET@@KK@Z 004151d0 f   NetServerLib_A:s_COdbcGamePet.obj
 0001:00014890       ??$copy_backward@PAViterator@?$list@U?$pair@$$CBKUPETSKILL@@@std@@V?$allocator@U?$pair@$$CBKUPETSKILL@@@std@@@2@@std@@PAV123@@std@@YAPAViterator@?$list@U?$pair@$$CBKUPETSKILL@@@std@@V?$allocator@U?$pair@$$CBKUPETSKILL@@@std@@@2@@0@PAV120@00@Z 00415890 f i NetServerLib_A:s_COdbcGamePet.obj
 0001:00014890       ??$copy_backward@PAViterator@?$list@U?$pair@$$CBV?$basic_string@DU?$char_traits@D@std@@V?$allocator@D@2@@std@@PAUSSoundEx@@@std@@V?$allocator@U?$pair@$$CBV?$basic_string@DU?$char_traits@D@std@@V?$allocator@D@2@@std@@PAUSSoundEx@@@std@@@2@@std@@PAV123@@std@@YAPAViterator@?$list@U?$pair@$$CBV?$basic_string@DU?$char_traits@D@std@@V?$allocator@D@2@@std@@PAUSSoundEx@@@std@@V?$allocator@U?$pair@$$CBV?$basic_string@DU?$char_traits@D@std@@V?$allocator@D@2@@std@@PAUSSoundEx@@@std@@@2@@0@PAV120@00@Z 00415890 f i EngineSoundLib_A:DxSoundLib.obj
 0001:000148c0       ??$copy_backward@PAUPET_RELIST@@PAU1@@std@@YAPAUPET_RELIST@@PAU1@00@Z 004158c0 f i NetServerLib_A:s_COdbcGamePet.obj
 0001:000148f0       ??$_Uninit_copy@Viterator@?$vector@HV?$allocator@H@std@@@std@@PAHV?$allocator@H@3@@std@@YAPAHViterator@?$vector@HV?$allocator@H@std@@@0@0PAHAAV?$allocator@H@0@U_Nonscalar_ptr_iterator_tag@0@@Z 004158f0 f i NetServerLib_A:s_CClientManager.obj
 0001:000148f0       ??$_Uninit_copy@PAViterator@?$list@U?$pair@$$CBV?$basic_string@DU?$char_traits@D@std@@V?$allocator@D@2@@std@@PAUSSoundEx@@@std@@V?$allocator@U?$pair@$$CBV?$basic_string@DU?$char_traits@D@std@@V?$allocator@D@2@@std@@PAUSSoundEx@@@std@@@2@@std@@PAV123@V?$allocator@Viterator@?$list@U?$pair@$$CBV?$basic_string@DU?$char_traits@D@std@@V?$allocator@D@2@@std@@PAUSSoundEx@@@std@@V?$allocator@U?$pair@$$CBV?$basic_string@DU?$char_traits@D@std@@V?$allocator@D@2@@std@@PAUSSoundEx@@@std@@@2@@std@@@3@@std@@YAPAViterator@?$list@U?$pair@$$CBV?$basic_string@DU?$char_traits@D@std@@V?$allocator@D@2@@std@@PAUSSoundEx@@@std@@V?$allocator@U?$pair@$$CBV?$basic_string@DU?$char_traits@D@std@@V?$allocator@D@2@@std@@PAUSSoundEx@@@std@@@2@@0@PAV120@00AAV?$allocator@Viterator@?$list@U?$pair@$$CBV?$basic_string@DU?$char_traits@D@std@@V?$allocator@D@2@@std@@PAUSSoundEx@@@std@@V?$allocator@U?$pair@$$CBV?$basic_string@DU?$char_traits@D@std@@V?$allocator@D@2@@std@@PAUSSoundEx@@@std@@@2@@std@@@0@U_Nonscalar_ptr_iterator_tag@0@@Z 004158f0 f i EngineSoundLib_A:DxSoundLib.obj
 0001:000148f0       ??$_Uninit_copy@PAViterator@?$list@U?$pair@$$CBKUPETSKILL@@@std@@V?$allocator@U?$pair@$$CBKUPETSKILL@@@std@@@2@@std@@PAV123@V?$allocator@Viterator@?$list@U?$pair@$$CBKUPETSKILL@@@std@@V?$allocator@U?$pair@$$CBKUPETSKILL@@@std@@@2@@std@@@3@@std@@YAPAViterator@?$list@U?$pair@$$CBKUPETSKILL@@@std@@V?$allocator@U?$pair@$$CBKUPETSKILL@@@std@@@2@@0@PAV120@00AAV?$allocator@Viterator@?$list@U?$pair@$$CBKUPETSKILL@@@std@@V?$allocator@U?$pair@$$CBKUPETSKILL@@@std@@@2@@std@@@0@U_Nonscalar_ptr_iterator_tag@0@@Z 004158f0 f i NetServerLib_A:s_COdbcGamePet.obj
 0001:00014920       ?_Incsize@?$list@U?$pair@$$CBKUPETSKILL@@@std@@V?$allocator@U?$pair@$$CBKUPETSKILL@@@std@@@2@@std@@IAEXI@Z 00415920 f i NetServerLib_A:s_COdbcGamePet.obj
 0001:000149c0       ?_Buynode@?$list@U?$pair@$$CBKUPETSKILL@@@std@@V?$allocator@U?$pair@$$CBKUPETSKILL@@@std@@@2@@std@@IAEPAU_Node@?$_List_nod@U?$pair@$$CBKUPETSKILL@@@std@@V?$allocator@U?$pair@$$CBKUPETSKILL@@@std@@@2@@2@PAU342@0ABU?$pair@$$CBKUPETSKILL@@@2@@Z 004159c0 f i NetServerLib_A:s_COdbcGamePet.obj
 0001:00014a00       ??$_Uninit_fill_n@PAUPET_RELIST@@IU1@V?$allocator@UPET_RELIST@@@std@@@std@@YAXPAUPET_RELIST@@IABU1@AAV?$allocator@UPET_RELIST@@@0@U_Nonscalar_ptr_iterator_tag@0@@Z 00415a00 f i NetServerLib_A:s_COdbcGamePet.obj
 0001:00014a30       ?SetPetInven@COdbcManager@@UAEHHHAAVCByteStream@@@Z 00415a30 f   NetServerLib_A:s_COdbcGamePet.obj
 0001:00014b90       ?_Ufill@?$vector@UPET_RELIST@@V?$allocator@UPET_RELIST@@@std@@@std@@IAEPAUPET_RELIST@@PAU3@IABU3@@Z 00415b90 f i NetServerLib_A:s_COdbcGamePet.obj
 0001:00014bc0       ?_Ufill@?$vector@Viterator@?$list@U?$pair@$$CBKUPETSKILL@@@std@@V?$allocator@U?$pair@$$CBKUPETSKILL@@@std@@@2@@std@@V?$allocator@Viterator@?$list@U?$pair@$$CBKUPETSKILL@@@std@@V?$allocator@U?$pair@$$CBKUPETSKILL@@@std@@@2@@std@@@3@@std@@IAEPAViterator@?$list@U?$pair@$$CBKUPETSKILL@@@std@@V?$allocator@U?$pair@$$CBKUPETSKILL@@@std@@@2@@2@PAV342@IABV342@@Z 00415bc0 f i NetServerLib_A:s_COdbcGamePet.obj
 0001:00014bc0       ?_Ufill@?$vector@Viterator@?$list@U?$pair@$$CBV?$basic_string@DU?$char_traits@D@std@@V?$allocator@D@2@@std@@PAUSSoundEx@@@std@@V?$allocator@U?$pair@$$CBV?$basic_string@DU?$char_traits@D@std@@V?$allocator@D@2@@std@@PAUSSoundEx@@@std@@@2@@std@@V?$allocator@Viterator@?$list@U?$pair@$$CBV?$basic_string@DU?$char_traits@D@std@@V?$allocator@D@2@@std@@PAUSSoundEx@@@std@@V?$allocator@U?$pair@$$CBV?$basic_string@DU?$char_traits@D@std@@V?$allocator@D@2@@std@@PAUSSoundEx@@@std@@@2@@std@@@3@@std@@IAEPAViterator@?$list@U?$pair@$$CBV?$basic_string@DU?$char_traits@D@std@@V?$allocator@D@2@@std@@PAUSSoundEx@@@std@@V?$allocator@U?$pair@$$CBV?$basic_string@DU?$char_traits@D@std@@V?$allocator@D@2@@std@@PAUSSoundEx@@@std@@@2@@2@PAV342@IABV342@@Z 00415bc0 f i EngineSoundLib_A:DxSoundLib.obj
 0001:00014bf0       ?GetPetInven@COdbcManager@@UAEHHPAUGLPET@@K@Z 00415bf0 f   NetServerLib_A:s_COdbcGamePet.obj
 0001:00014ce0       ?erase@?$vector@Viterator@?$list@U?$pair@$$CBKUPETSKILL@@@std@@V?$allocator@U?$pair@$$CBKUPETSKILL@@@std@@@2@@std@@V?$allocator@Viterator@?$list@U?$pair@$$CBKUPETSKILL@@@std@@V?$allocator@U?$pair@$$CBKUPETSKILL@@@std@@@2@@std@@@3@@std@@QAE?AViterator@12@V312@0@Z 00415ce0 f i NetServerLib_A:s_COdbcGamePet.obj
 0001:00014ce0       ?erase@?$vector@Viterator@?$list@U?$pair@$$CBV?$basic_string@DU?$char_traits@D@std@@V?$allocator@D@2@@std@@PAUSSoundEx@@@std@@V?$allocator@U?$pair@$$CBV?$basic_string@DU?$char_traits@D@std@@V?$allocator@D@2@@std@@PAUSSoundEx@@@std@@@2@@std@@V?$allocator@Viterator@?$list@U?$pair@$$CBV?$basic_string@DU?$char_traits@D@std@@V?$allocator@D@2@@std@@PAUSSoundEx@@@std@@V?$allocator@U?$pair@$$CBV?$basic_string@DU?$char_traits@D@std@@V?$allocator@D@2@@std@@PAUSSoundEx@@@std@@@2@@std@@@3@@std@@QAE?AViterator@12@V312@0@Z 00415ce0 f i EngineSoundLib_A:DxSoundLib.obj
 0001:00014d20       ?_Insert_n@?$vector@Viterator@?$list@U?$pair@$$CBKUPETSKILL@@@std@@V?$allocator@U?$pair@$$CBKUPETSKILL@@@std@@@2@@std@@V?$allocator@Viterator@?$list@U?$pair@$$CBKUPETSKILL@@@std@@V?$allocator@U?$pair@$$CBKUPETSKILL@@@std@@@2@@std@@@3@@std@@IAEXViterator@12@IABV3?$list@U?$pair@$$CBKUPETSKILL@@@std@@V?$allocator@U?$pair@$$CBKUPETSKILL@@@std@@@2@@2@@Z 00415d20 f i NetServerLib_A:s_COdbcGamePet.obj
 0001:00014f60       ?_Insert_n@?$vector@UPET_RELIST@@V?$allocator@UPET_RELIST@@@std@@@std@@IAEXViterator@12@IABUPET_RELIST@@@Z 00415f60 f i NetServerLib_A:s_COdbcGamePet.obj
 0001:00015230       ?resize@?$vector@Viterator@?$list@U?$pair@$$CBKUPETSKILL@@@std@@V?$allocator@U?$pair@$$CBKUPETSKILL@@@std@@@2@@std@@V?$allocator@Viterator@?$list@U?$pair@$$CBKUPETSKILL@@@std@@V?$allocator@U?$pair@$$CBKUPETSKILL@@@std@@@2@@std@@@3@@std@@QAEXIViterator@?$list@U?$pair@$$CBKUPETSKILL@@@std@@V?$allocator@U?$pair@$$CBKUPETSKILL@@@std@@@2@@2@@Z 00416230 f i NetServerLib_A:s_COdbcGamePet.obj
 0001:000152a0       ?insert@?$vector@UPET_RELIST@@V?$allocator@UPET_RELIST@@@std@@@std@@QAE?AViterator@12@V312@ABUPET_RELIST@@@Z 004162a0 f i NetServerLib_A:s_COdbcGamePet.obj
 0001:00015310       ?insert@?$_Hash@V?$_Hmap_traits@KUPETSKILL@@V?$hash_compare@KU?$less@K@std@@@stdext@@V?$allocator@U?$pair@$$CBKUPETSKILL@@@std@@@std@@$0A@@stdext@@@stdext@@QAE?AU?$pair@Viterator@?$list@U?$pair@$$CBKUPETSKILL@@@std@@V?$allocator@U?$pair@$$CBKUPETSKILL@@@std@@@2@@std@@_N@std@@ABU?$pair@$$CBKUPETSKILL@@@4@@Z 00416310 f i NetServerLib_A:s_COdbcGamePet.obj
 0001:00015560       ?push_back@?$vector@UPET_RELIST@@V?$allocator@UPET_RELIST@@@std@@@std@@QAEXABUPET_RELIST@@@Z 00416560 f i NetServerLib_A:s_COdbcGamePet.obj
 0001:000155f0       ?GetPetSkill@COdbcManager@@UAEHHPAUGLPET@@K@Z 004165f0 f   NetServerLib_A:s_COdbcGamePet.obj
 0001:000158f0       ?GetRestorePetList@COdbcManager@@UAEHHAAV?$vector@UPET_RELIST@@V?$allocator@UPET_RELIST@@@std@@@std@@@Z 004168f0 f   NetServerLib_A:s_COdbcGamePet.obj
 0001:00015c00       ?SaveChaPos@COdbcManager@@UAEHKKKMMMKMMMKMMM@Z 00416c00 f   NetServerLib_A:s_COdbcGameChaSave.obj
 0001:00015cb0       ?SaveCharacter@COdbcManager@@UAEHPAX@Z 00416cb0 f   NetServerLib_A:s_COdbcGameChaSave.obj
 0001:000163b0       ?SetChaHairColor@COdbcManager@@UAEHKH@Z 004173b0 f   NetServerLib_A:s_COdbcGameChaHair.obj
 0001:00016420       ?SetChaHairStyle@COdbcManager@@UAEHKH@Z 00417420 f   NetServerLib_A:s_COdbcGameChaHair.obj
 0001:00016490       ?SetChaFaceStyle@COdbcManager@@UAEHKH@Z 00417490 f   NetServerLib_A:s_COdbcGameChaHair.obj
 0001:00016500       ?SetChaGenderChange@COdbcManager@@UAEHKHHHHH@Z 00417500 f   NetServerLib_A:s_COdbcGameChaHair.obj
 0001:000165f0       ?RenameCharacter@COdbcManager@@UAEHKPAD@Z 004175f0 f   NetServerLib_A:s_COdbcGameChaRename.obj
 0001:000166f0       ??0GLCLUBINFO@@QAE@XZ      004176f0 f i NetServerLib_A:s_COdbcGameClub.obj
 0001:00016800       ??0GLCLUBBATTLE@@QAE@XZ    00417800 f i NetServerLib_A:s_COdbcGameClub.obj
 0001:00016880       ?CreateClub@COdbcManager@@UAEHV?$CStringT@DV?$StrTraitMFC_DLL@DV?$ChTraitsCRT@D@ATL@@@@@ATL@@K@Z 00417880 f   NetServerLib_A:s_COdbcGameClub.obj
 0001:00016920       ?DeleteClub@COdbcManager@@UAEHKK@Z 00417920 f   NetServerLib_A:s_COdbcGameClub.obj
 0001:00016980       ?SetClubRank@COdbcManager@@UAEHKK@Z 00417980 f   NetServerLib_A:s_COdbcGameClub.obj
 0001:000169e0       ?SetClubDissolutionTime@COdbcManager@@UAEHK_J@Z 004179e0 f   NetServerLib_A:s_COdbcGameClub.obj
 0001:00016aa0       ?SetClubAllianceSec@COdbcManager@@UAEHK_J@Z 00417aa0 f   NetServerLib_A:s_COdbcGameClub.obj
 0001:00016b60       ?SetClubAllianceDis@COdbcManager@@UAEHK_J@Z 00417b60 f   NetServerLib_A:s_COdbcGameClub.obj
 0001:00016c20       ?SetClubAuthorityTime@COdbcManager@@UAEHK_J@Z 00417c20 f   NetServerLib_A:s_COdbcGameClub.obj
 0001:00016ce0       ?AddClubMember@COdbcManager@@UAEHKK@Z 00417ce0 f   NetServerLib_A:s_COdbcGameClub.obj
 0001:00016d40       ?DeleteClubMember@COdbcManager@@UAEHK@Z 00417d40 f   NetServerLib_A:s_COdbcGameClub.obj
 0001:00016da0       ?SetClubNotice@COdbcManager@@UAEHKPBD@Z 00417da0 f   NetServerLib_A:s_COdbcGameClub.obj
 0001:00016e90       ?WriteClubMarkImage@COdbcManager@@UAEHKKPAEH@Z 00417e90 f   NetServerLib_A:s_COdbcGameClub.obj
 0001:00017180       ?SetClubIncomeMoney@COdbcManager@@UAEHK_J@Z 00418180 f   NetServerLib_A:s_COdbcGameClub.obj
 0001:00017260       ?GetClubIncomeMoney@COdbcManager@@UAE_JK@Z 00418260 f   NetServerLib_A:s_COdbcGameClub.obj
 0001:000174c0       ?SetClubMoney@COdbcManager@@UAEHK_J@Z 004184c0 f   NetServerLib_A:s_COdbcGameClub.obj
 0001:000175a0       ?GetClubMoney@COdbcManager@@UAE_JK@Z 004185a0 f   NetServerLib_A:s_COdbcGameClub.obj
 0001:00017800       ?WriteClubStorage@COdbcManager@@UAEHKPAEH@Z 00418800 f   NetServerLib_A:s_COdbcGameClub.obj
 0001:00017af0       ?SetClubMasterFlags@COdbcManager@@UAEHKKK@Z 00418af0 f   NetServerLib_A:s_COdbcGameClub.obj
 0001:00017b70       ?SetClubDeputy@COdbcManager@@UAEHKK@Z 00418b70 f   NetServerLib_A:s_COdbcGameClub.obj
 0001:00017bd0       ?SetClubAuthority@COdbcManager@@UAEHKK@Z 00418bd0 f   NetServerLib_A:s_COdbcGameClub.obj
 0001:00017c30       ?SetClubRegion@COdbcManager@@UAEHKKM@Z 00418c30 f   NetServerLib_A:s_COdbcGameClub.obj
 0001:00017ca0       ?SetSwRegion@COdbcManager@@UAEHKK@Z 00418ca0 f   NetServerLib_A:s_COdbcGameClub.obj
 0001:00017d00       ?DelClubRegion@COdbcManager@@UAEHKK@Z 00418d00 f   NetServerLib_A:s_COdbcGameClub.obj
 0001:00017d60       ?SetClubAlliance@COdbcManager@@UAEHKK@Z 00418d60 f   NetServerLib_A:s_COdbcGameClub.obj
 0001:00017e40       ?DelClubAlliance@COdbcManager@@UAEHKK@Z 00418e40 f   NetServerLib_A:s_COdbcGameClub.obj
 0001:00017f20       ?EndClubBattle@COdbcManager@@UAEHKKHHH_N@Z 00418f20 f   NetServerLib_A:s_COdbcGameClub.obj
 0001:00018080       ?SaveClubBattle@COdbcManager@@UAEHKKHH@Z 00419080 f   NetServerLib_A:s_COdbcGameClub.obj
 0001:00018160       ?ReSetAllianceBattle@COdbcManager@@UAEHK@Z 00419160 f   NetServerLib_A:s_COdbcGameClub.obj
 0001:00018230       ?size@?$vector@UGLCLUBMEMBER@@V?$allocator@UGLCLUBMEMBER@@@std@@@std@@QBEIXZ 00419230 f i NetServerLib_A:s_COdbcGameClub.obj
 0001:00018250       ?size@?$vector@UGLCLUBINFO@@V?$allocator@UGLCLUBINFO@@@std@@@std@@QBEIXZ 00419250 f i NetServerLib_A:s_COdbcGameClub.obj
 0001:00018270       ?size@?$vector@UGLGUID_DB@@V?$allocator@UGLGUID_DB@@@std@@@std@@QBEIXZ 00419270 f i NetServerLib_A:s_COdbcGameClub.obj
 0001:00018290       ?size@?$vector@UGLCLUBBATTLE@@V?$allocator@UGLCLUBBATTLE@@@std@@@std@@QBEIXZ 00419290 f i NetServerLib_A:s_COdbcGameClub.obj
 0001:000182b0       ?_Xlen@?$vector@UGLCLUBINFO@@V?$allocator@UGLCLUBINFO@@@std@@@std@@IBEXXZ 004192b0 f i NetServerLib_A:s_COdbcGameClub.obj
 0001:000182b0       ?_Xlen@?$vector@UGLGUID_DB@@V?$allocator@UGLGUID_DB@@@std@@@std@@IBEXXZ 004192b0 f i NetServerLib_A:s_COdbcGameClub.obj
 0001:000182b0       ?_Xlen@?$vector@U?$pair@KK@std@@V?$allocator@U?$pair@KK@std@@@2@@std@@IBEXXZ 004192b0 f i NetServerLib_A:s_COdbcGameClub.obj
 0001:000182b0       ?_Xlen@?$vector@UGLSWID@@V?$allocator@UGLSWID@@@std@@@std@@IBEXXZ 004192b0 f i NetServerLib_A:s_COdbcGameClub.obj
 0001:000182b0       ?_Xlen@?$vector@UGLCLUBMEMBER@@V?$allocator@UGLCLUBMEMBER@@@std@@@std@@IBEXXZ 004192b0 f i NetServerLib_A:s_COdbcGameClub.obj
 0001:000182b0       ?_Xlen@?$vector@UGLCLUBBATTLE@@V?$allocator@UGLCLUBBATTLE@@@std@@@std@@IBEXXZ 004192b0 f i NetServerLib_A:s_COdbcGameClub.obj
 0001:00018330       ??$fill@PAUGLCLUBMEMBER@@U1@@std@@YAXPAUGLCLUBMEMBER@@0ABU1@@Z 00419330 f i NetServerLib_A:s_COdbcGameClub.obj
 0001:00018360       ??$fill@PAUGLCLUBINFO@@U1@@std@@YAXPAUGLCLUBINFO@@0ABU1@@Z 00419360 f i NetServerLib_A:s_COdbcGameClub.obj
 0001:00018390       ??$fill@PAUGLGUID_DB@@U1@@std@@YAXPAUGLGUID_DB@@0ABU1@@Z 00419390 f i NetServerLib_A:s_COdbcGameClub.obj
 0001:000183d0       ??$fill@PAU?$pair@KK@std@@U12@@std@@YAXPAU?$pair@KK@0@0ABU10@@Z 004193d0 f i NetServerLib_A:s_COdbcGameClub.obj
 0001:000183d0       ??$fill@PAUGLSWID@@U1@@std@@YAXPAUGLSWID@@0ABU1@@Z 004193d0 f i NetServerLib_A:s_COdbcGameClub.obj
 0001:00018400       ??$fill@PAUGLCLUBBATTLE@@U1@@std@@YAXPAUGLCLUBBATTLE@@0ABU1@@Z 00419400 f i NetServerLib_A:s_COdbcGameClub.obj
 0001:00018430       ??$_Copy_backward_opt@PAUGLCLUBMEMBER@@PAU1@@std@@YAPAUGLCLUBMEMBER@@PAU1@00U_Nonscalar_ptr_iterator_tag@0@@Z 00419430 f i NetServerLib_A:s_COdbcGameClub.obj
 0001:00018470       ??$_Copy_backward_opt@PAUGLCLUBINFO@@PAU1@@std@@YAPAUGLCLUBINFO@@PAU1@00U_Nonscalar_ptr_iterator_tag@0@@Z 00419470 f i NetServerLib_A:s_COdbcGameClub.obj
 0001:000184b0       ??$_Copy_backward_opt@PAUGLGUID_DB@@PAU1@@std@@YAPAUGLGUID_DB@@PAU1@00U_Nonscalar_ptr_iterator_tag@0@@Z 004194b0 f i NetServerLib_A:s_COdbcGameClub.obj
 0001:000184f0       ??$_Copy_backward_opt@PAUGLCLUBBATTLE@@PAU1@@std@@YAPAUGLCLUBBATTLE@@PAU1@00U_Nonscalar_ptr_iterator_tag@0@@Z 004194f0 f i NetServerLib_A:s_COdbcGameClub.obj
 0001:00018530       ?SetClubBattle@COdbcManager@@UAEHKKKH@Z 00419530 f   NetServerLib_A:s_COdbcGameClub.obj
 0001:00018660       ??$copy_backward@PAU?$pair@KK@std@@PAU12@@std@@YAPAU?$pair@KK@0@PAU10@00@Z 00419660 f i NetServerLib_A:s_COdbcGameClub.obj
 0001:00018660       ??$copy_backward@PAUGLSWID@@PAU1@@std@@YAPAUGLSWID@@PAU1@00@Z 00419660 f i NetServerLib_A:s_COdbcGameClub.obj
 0001:00018690       ??$_Uninit_copy@PAUGLCLUBINFO@@PAU1@V?$allocator@UGLCLUBINFO@@@std@@@std@@YAPAUGLCLUBINFO@@PAU1@00AAV?$allocator@UGLCLUBINFO@@@0@U_Nonscalar_ptr_iterator_tag@0@@Z 00419690 f i NetServerLib_A:s_COdbcGameClub.obj
 0001:00018710       ??$_Uninit_copy@PAUGLGUID_DB@@PAU1@V?$allocator@UGLGUID_DB@@@std@@@std@@YAPAUGLGUID_DB@@PAU1@00AAV?$allocator@UGLGUID_DB@@@0@U_Nonscalar_ptr_iterator_tag@0@@Z 00419710 f i NetServerLib_A:s_COdbcGameClub.obj
 0001:00018750       ??$_Uninit_copy@PAU?$pair@KK@std@@PAU12@V?$allocator@U?$pair@KK@std@@@2@@std@@YAPAU?$pair@KK@0@PAU10@00AAV?$allocator@U?$pair@KK@std@@@0@U_Nonscalar_ptr_iterator_tag@0@@Z 00419750 f i NetServerLib_A:s_COdbcGameClub.obj
 0001:00018750       ??$_Uninit_copy@PAUGLSWID@@PAU1@V?$allocator@UGLSWID@@@std@@@std@@YAPAUGLSWID@@PAU1@00AAV?$allocator@UGLSWID@@@0@U_Nonscalar_ptr_iterator_tag@0@@Z 00419750 f i NetServerLib_A:s_COdbcGameClub.obj
 0001:00018780       ??$_Uninit_copy@PAUGLCLUBBATTLE@@PAU1@V?$allocator@UGLCLUBBATTLE@@@std@@@std@@YAPAUGLCLUBBATTLE@@PAU1@00AAV?$allocator@UGLCLUBBATTLE@@@0@U_Nonscalar_ptr_iterator_tag@0@@Z 00419780 f i NetServerLib_A:s_COdbcGameClub.obj
 0001:00018800       ??$_Uninit_fill_n@PAUGLCLUBINFO@@IU1@V?$allocator@UGLCLUBINFO@@@std@@@std@@YAXPAUGLCLUBINFO@@IABU1@AAV?$allocator@UGLCLUBINFO@@@0@U_Nonscalar_ptr_iterator_tag@0@@Z 00419800 f i NetServerLib_A:s_COdbcGameClub.obj
 0001:00018880       ??$_Uninit_fill_n@PAUGLGUID_DB@@IU1@V?$allocator@UGLGUID_DB@@@std@@@std@@YAXPAUGLGUID_DB@@IABU1@AAV?$allocator@UGLGUID_DB@@@0@U_Nonscalar_ptr_iterator_tag@0@@Z 00419880 f i NetServerLib_A:s_COdbcGameClub.obj
 0001:000188c0       ??$_Uninit_fill_n@PAUGLSWID@@IU1@V?$allocator@UGLSWID@@@std@@@std@@YAXPAUGLSWID@@IABU1@AAV?$allocator@UGLSWID@@@0@U_Nonscalar_ptr_iterator_tag@0@@Z 004198c0 f i NetServerLib_A:s_COdbcGameClub.obj
 0001:000188c0       ??$_Uninit_fill_n@PAU?$pair@KK@std@@IU12@V?$allocator@U?$pair@KK@std@@@2@@std@@YAXPAU?$pair@KK@0@IABU10@AAV?$allocator@U?$pair@KK@std@@@0@U_Nonscalar_ptr_iterator_tag@0@@Z 004198c0 f i NetServerLib_A:s_COdbcGameClub.obj
 0001:000188f0       ??$_Uninit_fill_n@PAUGLCLUBBATTLE@@IU1@V?$allocator@UGLCLUBBATTLE@@@std@@@std@@YAXPAUGLCLUBBATTLE@@IABU1@AAV?$allocator@UGLCLUBBATTLE@@@0@U_Nonscalar_ptr_iterator_tag@0@@Z 004198f0 f i NetServerLib_A:s_COdbcGameClub.obj
 0001:00018960       ??$_Uninit_copy@PAUGLCLUBMEMBER@@PAU1@V?$allocator@UGLCLUBMEMBER@@@std@@@std@@YAPAUGLCLUBMEMBER@@PAU1@00AAV?$allocator@UGLCLUBMEMBER@@@0@U_Nonscalar_ptr_iterator_tag@0@@Z 00419960 f i NetServerLib_A:s_COdbcGameClub.obj
 0001:000189e0       ??$_Uninit_fill_n@PAUGLCLUBMEMBER@@IU1@V?$allocator@UGLCLUBMEMBER@@@std@@@std@@YAXPAUGLCLUBMEMBER@@IABU1@AAV?$allocator@UGLCLUBMEMBER@@@0@U_Nonscalar_ptr_iterator_tag@0@@Z 004199e0 f i NetServerLib_A:s_COdbcGameClub.obj
 0001:00018a60       ?_Ufill@?$vector@UGLCLUBINFO@@V?$allocator@UGLCLUBINFO@@@std@@@std@@IAEPAUGLCLUBINFO@@PAU3@IABU3@@Z 00419a60 f i NetServerLib_A:s_COdbcGameClub.obj
 0001:00018a90       ?_Ufill@?$vector@UGLGUID_DB@@V?$allocator@UGLGUID_DB@@@std@@@std@@IAEPAUGLGUID_DB@@PAU3@IABU3@@Z 00419a90 f i NetServerLib_A:s_COdbcGameClub.obj
 0001:00018ac0       ?_Ufill@?$vector@U?$pair@KK@std@@V?$allocator@U?$pair@KK@std@@@2@@std@@IAEPAU?$pair@KK@2@PAU32@IABU32@@Z 00419ac0 f i NetServerLib_A:s_COdbcGameClub.obj
 0001:00018ac0       ?_Ufill@?$vector@UGLSWID@@V?$allocator@UGLSWID@@@std@@@std@@IAEPAUGLSWID@@PAU3@IABU3@@Z 00419ac0 f i NetServerLib_A:s_COdbcGameClub.obj
 0001:00018af0       ?_Ufill@?$vector@UGLCLUBBATTLE@@V?$allocator@UGLCLUBBATTLE@@@std@@@std@@IAEPAUGLCLUBBATTLE@@PAU3@IABU3@@Z 00419af0 f i NetServerLib_A:s_COdbcGameClub.obj
 0001:00018b20       ?_Insert_n@?$vector@U?$pair@KK@std@@V?$allocator@U?$pair@KK@std@@@2@@std@@IAEXViterator@12@IABU?$pair@KK@2@@Z 00419b20 f i NetServerLib_A:s_COdbcGameClub.obj
 0001:00018b20       ?_Insert_n@?$vector@UGLSWID@@V?$allocator@UGLSWID@@@std@@@std@@IAEXViterator@12@IABUGLSWID@@@Z 00419b20 f i NetServerLib_A:s_COdbcGameClub.obj
 0001:00018d70       ?ReadClubMarkImage@COdbcManager@@UAEHKAAVCByteStream@@@Z 00419d70 f   NetServerLib_A:s_COdbcGameClub.obj
 0001:00019010       ?ReadClubStorage@COdbcManager@@UAEHKAAVCByteStream@@@Z 0041a010 f   NetServerLib_A:s_COdbcGameClub.obj
 0001:000192f0       ?_Ufill@?$vector@UGLCLUBMEMBER@@V?$allocator@UGLCLUBMEMBER@@@std@@@std@@IAEPAUGLCLUBMEMBER@@PAU3@IABU3@@Z 0041a2f0 f i NetServerLib_A:s_COdbcGameClub.obj
 0001:00019320       ?_Insert_n@?$vector@UGLCLUBMEMBER@@V?$allocator@UGLCLUBMEMBER@@@std@@@std@@IAEXViterator@12@IABUGLCLUBMEMBER@@@Z 0041a320 f i NetServerLib_A:s_COdbcGameClub.obj
 0001:000195e0       ?_Insert_n@?$vector@UGLCLUBINFO@@V?$allocator@UGLCLUBINFO@@@std@@@std@@IAEXViterator@12@IABUGLCLUBINFO@@@Z 0041a5e0 f i NetServerLib_A:s_COdbcGameClub.obj
 0001:000198c0       ?_Insert_n@?$vector@UGLGUID_DB@@V?$allocator@UGLGUID_DB@@@std@@@std@@IAEXViterator@12@IABUGLGUID_DB@@@Z 0041a8c0 f i NetServerLib_A:s_COdbcGameClub.obj
 0001:00019b80       ?_Insert_n@?$vector@UGLCLUBBATTLE@@V?$allocator@UGLCLUBBATTLE@@@std@@@std@@IAEXViterator@12@IABUGLCLUBBATTLE@@@Z 0041ab80 f i NetServerLib_A:s_COdbcGameClub.obj
 0001:00019e40       ?insert@?$vector@UGLCLUBMEMBER@@V?$allocator@UGLCLUBMEMBER@@@std@@@std@@QAE?AViterator@12@V312@ABUGLCLUBMEMBER@@@Z 0041ae40 f i NetServerLib_A:s_COdbcGameClub.obj
 0001:00019eb0       ?insert@?$vector@UGLCLUBINFO@@V?$allocator@UGLCLUBINFO@@@std@@@std@@QAE?AViterator@12@V312@ABUGLCLUBINFO@@@Z 0041aeb0 f i NetServerLib_A:s_COdbcGameClub.obj
 0001:00019f20       ?insert@?$vector@UGLGUID_DB@@V?$allocator@UGLGUID_DB@@@std@@@std@@QAE?AViterator@12@V312@ABUGLGUID_DB@@@Z 0041af20 f i NetServerLib_A:s_COdbcGameClub.obj
 0001:00019f90       ?insert@?$vector@UGLCLUBBATTLE@@V?$allocator@UGLCLUBBATTLE@@@std@@@std@@QAE?AViterator@12@V312@ABUGLCLUBBATTLE@@@Z 0041af90 f i NetServerLib_A:s_COdbcGameClub.obj
 0001:0001a000       ?GetClubAlliance@COdbcManager@@UAEHAAV?$vector@U?$pair@KK@std@@V?$allocator@U?$pair@KK@std@@@2@@std@@@Z 0041b000 f   NetServerLib_A:s_COdbcGameClub.obj
 0001:0001a2f0       ?push_back@?$vector@UGLCLUBMEMBER@@V?$allocator@UGLCLUBMEMBER@@@std@@@std@@QAEXABUGLCLUBMEMBER@@@Z 0041b2f0 f i NetServerLib_A:s_COdbcGameClub.obj
 0001:0001a380       ?push_back@?$vector@UGLCLUBINFO@@V?$allocator@UGLCLUBINFO@@@std@@@std@@QAEXABUGLCLUBINFO@@@Z 0041b380 f i NetServerLib_A:s_COdbcGameClub.obj
 0001:0001a410       ?push_back@?$vector@UGLGUID_DB@@V?$allocator@UGLGUID_DB@@@std@@@std@@QAEXABUGLGUID_DB@@@Z 0041b410 f i NetServerLib_A:s_COdbcGameClub.obj
 0001:0001a490       ?push_back@?$vector@UGLCLUBBATTLE@@V?$allocator@UGLCLUBBATTLE@@@std@@@std@@QAEXABUGLCLUBBATTLE@@@Z 0041b490 f i NetServerLib_A:s_COdbcGameClub.obj
 0001:0001a520       ?GetClubMember@COdbcManager@@UAEHKAAV?$vector@UGLCLUBMEMBER@@V?$allocator@UGLCLUBMEMBER@@@std@@@std@@@Z 0041b520 f   NetServerLib_A:s_COdbcGameClub.obj
 0001:0001a850       ?GetClubInfo@COdbcManager@@UAEHAAV?$vector@UGLCLUBINFO@@V?$allocator@UGLCLUBINFO@@@std@@@std@@@Z 0041b850 f   NetServerLib_A:s_COdbcGameClub.obj
 0001:0001b880       ?GetClubRegion@COdbcManager@@UAEHAAV?$vector@UGLGUID_DB@@V?$allocator@UGLGUID_DB@@@std@@@std@@@Z 0041c880 f   NetServerLib_A:s_COdbcGameClub.obj
 0001:0001bb00       ?GetSwRegion@COdbcManager@@UAEHAAV?$vector@UGLSWID@@V?$allocator@UGLSWID@@@std@@@std@@@Z 0041cb00 f   NetServerLib_A:s_COdbcGameClub.obj
 0001:0001bda0       ?GetClubBattleInfo@COdbcManager@@UAEHKAAV?$vector@UGLCLUBBATTLE@@V?$allocator@UGLCLUBBATTLE@@@std@@@std@@@Z 0041cda0 f   NetServerLib_A:s_COdbcGameClub.obj
 0001:0001c2d0       ?LogPartyMatch@COdbcManager@@UAEHHHGG@Z 0041d2d0 f   NetServerLib_A:s_COdbcGame.obj
 0001:0001c340       ?SetChaExp@COdbcManager@@UAEHH_J@Z 0041d340 f   NetServerLib_A:s_COdbcGame.obj
 0001:0001c3c0       ?GetChaExp@COdbcManager@@UAE_JH@Z 0041d3c0 f   NetServerLib_A:s_COdbcGame.obj
 0001:0001c5f0       ?SetLastCallPos@COdbcManager@@UAEHHKUD3DXVECTOR3@@@Z 0041d5f0 f   NetServerLib_A:s_COdbcGame.obj
 0001:0001c670       ?CreateNewCharacter@COdbcManager@@UAEHPAUSCHARDATA2@@@Z 0041d670 f   NetServerLib_A:s_COdbcGameChaCreate.obj
 0001:0001cd90       ??1SSTRING@NS_UITEXTUTIL@@QAE@XZ 0041dd90 f i EngineUILib_A:UITextUtil.obj
 0001:0001cd90       ??1?$pair@$$CBV?$CStringT@DV?$StrTraitMFC_DLL@DV?$ChTraitsCRT@D@ATL@@@@@ATL@@PAVDxSkinPieceRootData@@@std@@QAE@XZ 0041dd90 f i EngineLib_A:DxSkinPieceRootData.obj
 0001:0001cd90       ??1SHOPPURCHASE@@QAE@XZ    0041dd90 f i NetServerLib_A:s_COdbcShop.obj
 0001:0001cda0       ?SetPurchaseItem@COdbcManager@@UAEHV?$CStringT@DV?$StrTraitMFC_DLL@DV?$ChTraitsCRT@D@ATL@@@@@ATL@@H@Z 0041dda0 f   NetServerLib_A:s_COdbcShop.obj
 0001:0001ce40       ?_Xlen@?$vector@USHOPPURCHASE@@V?$allocator@USHOPPURCHASE@@@std@@@std@@IBEXXZ 0041de40 f i NetServerLib_A:s_COdbcShop.obj
 0001:0001cec0       ??$fill@PAUSHOPPURCHASE@@U1@@std@@YAXPAUSHOPPURCHASE@@0ABU1@@Z 0041dec0 f i NetServerLib_A:s_COdbcShop.obj
 0001:0001cf00       ??$_Copy_backward_opt@PAUSHOPPURCHASE@@PAU1@@std@@YAPAUSHOPPURCHASE@@PAU1@00U_Nonscalar_ptr_iterator_tag@0@@Z 0041df00 f i NetServerLib_A:s_COdbcShop.obj
 0001:0001cf50       ??$_Uninit_copy@PAUSHOPPURCHASE@@PAU1@V?$allocator@USHOPPURCHASE@@@std@@@std@@YAPAUSHOPPURCHASE@@PAU1@00AAV?$allocator@USHOPPURCHASE@@@0@U_Nonscalar_ptr_iterator_tag@0@@Z 0041df50 f i NetServerLib_A:s_COdbcShop.obj
 0001:0001cff0       ??$_Uninit_fill_n@PAUSHOPPURCHASE@@IU1@V?$allocator@USHOPPURCHASE@@@std@@@std@@YAXPAUSHOPPURCHASE@@IABU1@AAV?$allocator@USHOPPURCHASE@@@0@U_Nonscalar_ptr_iterator_tag@0@@Z 0041dff0 f i NetServerLib_A:s_COdbcShop.obj
 0001:0001d090       ?_Ufill@?$vector@USHOPPURCHASE@@V?$allocator@USHOPPURCHASE@@@std@@@std@@IAEPAUSHOPPURCHASE@@PAU3@IABU3@@Z 0041e090 f i NetServerLib_A:s_COdbcShop.obj
 0001:0001d0c0       ?_Destroy@?$vector@USHOPPURCHASE@@V?$allocator@USHOPPURCHASE@@@std@@@std@@IAEXPAUSHOPPURCHASE@@0@Z 0041e0c0 f i NetServerLib_A:s_COdbcShop.obj
 0001:0001d0f0       ?_Insert_n@?$vector@USHOPPURCHASE@@V?$allocator@USHOPPURCHASE@@@std@@@std@@IAEXViterator@12@IABUSHOPPURCHASE@@@Z 0041e0f0 f i NetServerLib_A:s_COdbcShop.obj
 0001:0001d380       ?GetPurchaseItem@COdbcManager@@UAEHV?$CStringT@DV?$StrTraitMFC_DLL@DV?$ChTraitsCRT@D@ATL@@@@@ATL@@AAV?$vector@USHOPPURCHASE@@V?$allocator@USHOPPURCHASE@@@std@@@std@@@Z 0041e380 f   NetServerLib_A:s_COdbcShop.obj
 0001:0001d6b0       ?LogItemExchange@COdbcManager@@UAEHABUSLOGITEMEXCHANGE@@@Z 0041e6b0 f   NetServerLib_A:s_COdbcLogItem.obj
 0001:0001d770       ?LogMoneyExchange@COdbcManager@@UAEHABUSLOGMONEYEXCHANGE@@@Z 0041e770 f   NetServerLib_A:s_COdbcLogItem.obj
 0001:0001d810       ?LogItemConversion@COdbcManager@@UAEHABUSLOGITEMCONVERSION@@@Z 0041e810 f   NetServerLib_A:s_COdbcLogItem.obj
 0001:0001d8d0       ?_Xlen@?$vector@UVIEWLOGITEMEXCHANGEMAX@@V?$allocator@UVIEWLOGITEMEXCHANGEMAX@@@std@@@std@@IBEXXZ 0041e8d0 f i NetServerLib_A:s_COdbcLogItem.obj
 0001:0001d950       ??$fill@PAUUSER_ATTEND_INFO@@U1@@std@@YAXPAUUSER_ATTEND_INFO@@0ABU1@@Z 0041e950 f i NetServerLib_A:s_COdbcLogEvent.obj
 0001:0001d950       ??$fill@PAUVIEWLOGITEMEXCHANGEMAX@@U1@@std@@YAXPAUVIEWLOGITEMEXCHANGEMAX@@0ABU1@@Z 0041e950 f i NetServerLib_A:s_COdbcLogItem.obj
 0001:0001d990       ??$_Copy_backward_opt@PAUVIEWLOGITEMEXCHANGEMAX@@PAU1@@std@@YAPAUVIEWLOGITEMEXCHANGEMAX@@PAU1@00U_Nonscalar_ptr_iterator_tag@0@@Z 0041e990 f i NetServerLib_A:s_COdbcLogItem.obj
 0001:0001d990       ??$_Copy_backward_opt@PAUUSER_ATTEND_INFO@@PAU1@@std@@YAPAUUSER_ATTEND_INFO@@PAU1@00U_Nonscalar_ptr_iterator_tag@0@@Z 0041e990 f i NetServerLib_A:s_COdbcLogEvent.obj
 0001:0001d9d0       ?_Ufill@?$vector@UVIEWLOGITEMEXCHANGEMAX@@V?$allocator@UVIEWLOGITEMEXCHANGEMAX@@@std@@@std@@IAEPAUVIEWLOGITEMEXCHANGEMAX@@PAU3@IABU3@@Z 0041e9d0 f i NetServerLib_A:s_COdbcLogItem.obj
 0001:0001d9d0       ?_Ufill@?$vector@UUSER_ATTEND_INFO@@V?$allocator@UUSER_ATTEND_INFO@@@std@@@std@@IAEPAUUSER_ATTEND_INFO@@PAU3@IABU3@@Z 0041e9d0 f i NetServerLib_A:s_COdbcLogEvent.obj
 0001:0001da00       ?_Insert_n@?$vector@UVIEWLOGITEMEXCHANGEMAX@@V?$allocator@UVIEWLOGITEMEXCHANGEMAX@@@std@@@std@@IAEXViterator@12@IABUVIEWLOGITEMEXCHANGEMAX@@@Z 0041ea00 f i NetServerLib_A:s_COdbcLogItem.obj
 0001:0001dc70       ?GetItemMaxNum@COdbcManager@@UAE_JHHHAAV?$vector@UVIEWLOGITEMEXCHANGEMAX@@V?$allocator@UVIEWLOGITEMEXCHANGEMAX@@@std@@@std@@@Z 0041ec70 f   NetServerLib_A:s_COdbcLogItem.obj
 0001:0001df90       ?DelChaFriend@COdbcManager@@UAEHHH@Z 0041ef90 f   NetServerLib_A:s_COdbcGameFriend.obj
 0001:0001dff0       ?AddChaFriend@COdbcManager@@UAEHHH@Z 0041eff0 f   NetServerLib_A:s_COdbcGameFriend.obj
 0001:0001e050       ?SetChaFriend@COdbcManager@@UAEHHHH@Z 0041f050 f   NetServerLib_A:s_COdbcGameFriend.obj
 0001:0001e0b0       ?GetHandle@COdbcEnv@@QAEPAXXZ 0041f0b0 f   NetServerLib_A:s_COdbcEnv.obj
 0001:0001e0c0       ?CreateHandle@COdbcEnv@@QAEHXZ 0041f0c0 f   NetServerLib_A:s_COdbcEnv.obj
 0001:0001e190       ?GetInstance@COdbcEnv@@SAPAV1@XZ 0041f190 f   NetServerLib_A:s_COdbcEnv.obj
 0001:0001e200       ?ReleaseInstance@COdbcEnv@@SAXXZ 0041f200 f   NetServerLib_A:s_COdbcEnv.obj
 0001:0001e240       ?Reset@CNetUser@@QAEXXZ    0041f240 f   NetServerLib_A:s_CNetUser.obj
 0001:0001e4b0       ?addRcvMsg@CNetUser@@QAEHPAXK@Z 0041f4b0 f   NetServerLib_A:s_CNetUser.obj
 0001:0001e550       ?CheckGarbageMsg@CNetUser@@QAEXPAX@Z 0041f550 f   NetServerLib_A:s_CNetUser.obj
 0001:0001e7c0       ?getRcvMsg@CNetUser@@QAEPAX_N@Z 0041f7c0 f   NetServerLib_A:s_CNetUser.obj
 0001:0001e990       ?GetIP@CNetUser@@QAEPADXZ  0041f990 f   NetServerLib_A:s_CNetUser.obj
 0001:0001e9a0       ?GetPort@CNetUser@@QAEGXZ  0041f9a0 f   NetServerLib_A:s_CNetUser.obj
 0001:0001e9b0       ?SetNetMode@CNetUser@@QAEXH@Z 0041f9b0 f   NetServerLib_A:s_CNetUser.obj
 0001:0001e9c0       ??0CNetUser@@QAE@XZ        0041f9c0 f   NetServerLib_A:s_CNetUser.obj
 0001:0001ead0       ??1CNetUser@@UAE@XZ        0041fad0 f   NetServerLib_A:s_CNetUser.obj
 0001:0001eb90       ?SetAcceptedClient@CNetUser@@QAEHI@Z 0041fb90 f   NetServerLib_A:s_CNetUser.obj
 0001:0001eca0       ?CloseClient@CNetUser@@QAEHXZ 0041fca0 f   NetServerLib_A:s_CNetUser.obj
 0001:0001edd0       ??HATL@@YA?AV?$CStringT@DV?$StrTraitMFC_DLL@DV?$ChTraitsCRT@D@ATL@@@@@0@ABV10@PBD@Z 0041fdd0 f i NetServerLib_A:s_CCsvFile.obj
 0001:0001ee70       ??1TiXmlDocument@@UAE@XZ   0041fe70 f i NetServerLib_A:s_CWhiteRockXML.obj
 0001:0001eee0       ?OneTimeSceneInit@DxObject@@UAEJXZ 0041fee0 f i EngineLib_A:DxViewPort.obj
 0001:0001eee0       ?DeleteDeviceObjects@DxLightMan@@UAEJXZ 0041fee0 f i EngineLib_A:DxLightMan.obj
 0001:0001eee0       ?DefaultFindFunc@?$CMList@PAUINFO@CDebugSet@@@@KAHPAXAAPAUINFO@CDebugSet@@@Z 0041fee0 f i EngineLib_A:DebugSet.obj
 0001:0001eee0       ?UserDatabaseProc@CSessionServer@@UAEHXZ 0041fee0 f i NetServerLib_A:s_CSessionServer.obj
 0001:0001eee0       ?ToDeclaration@TiXmlNode@@UBEPBVTiXmlDeclaration@@XZ 0041fee0 f i NetServerLib_A:s_CWhiteRockXML.obj
 0001:0001eee0       ?ToDocument@TiXmlNode@@UAEPAVTiXmlDocument@@XZ 0041fee0 f i EngineUILib_A:tinyxml.obj
 0001:0001eee0       ?ToComment@TiXmlNode@@UBEPBVTiXmlComment@@XZ 0041fee0 f i NetServerLib_A:s_CWhiteRockXML.obj
 0001:0001eee0       ?DeleteDeviceObjects@DxObject@@UAEJXZ 0041fee0 f i EngineLib_A:DxViewPort.obj
 0001:0001eee0       ?ToDeclaration@TiXmlNode@@UAEPAVTiXmlDeclaration@@XZ 0041fee0 f i NetServerLib_A:s_CWhiteRockXML.obj
 0001:0001eee0       ?ToDocument@TiXmlNode@@UBEPBVTiXmlDocument@@XZ 0041fee0 f i EngineUILib_A:tinyxml.obj
 0001:0001eee0       ?ToElement@TiXmlNode@@UBEPBVTiXmlElement@@XZ 0041fee0 f i NetServerLib_A:s_CWhiteRockXML.obj
 0001:0001eee0       ?ToText@TiXmlNode@@UBEPBVTiXmlText@@XZ 0041fee0 f i NetServerLib_A:s_CWhiteRockXML.obj
 0001:0001eee0       ?FinalCleanup@DxObject@@UAEJXZ 0041fee0 f i EngineLib_A:DxViewPort.obj
 0001:0001eee0       ?ToUnknown@TiXmlNode@@UAEPAVTiXmlUnknown@@XZ 0041fee0 f i NetServerLib_A:s_CWhiteRockXML.obj
 0001:0001eee0       ?ToUnknown@TiXmlNode@@UBEPBVTiXmlUnknown@@XZ 0041fee0 f i NetServerLib_A:s_CWhiteRockXML.obj
 0001:0001eee0       ?ToText@TiXmlNode@@UAEPAVTiXmlText@@XZ 0041fee0 f i NetServerLib_A:s_CWhiteRockXML.obj
 0001:0001eee0       ?ToElement@TiXmlNode@@UAEPAVTiXmlElement@@XZ 0041fee0 f i NetServerLib_A:s_CWhiteRockXML.obj
 0001:0001eee0       ?ToComment@TiXmlNode@@UAEPAVTiXmlComment@@XZ 0041fee0 f i NetServerLib_A:s_CWhiteRockXML.obj
 0001:0001eee0       ?LogDatabaseProc@CSessionServer@@UAEHXZ 0041fee0 f i NetServerLib_A:s_CSessionServer.obj
 0001:0001eee0       ?WebDatabaseProc@CSessionServer@@UAEHXZ 0041fee0 f i NetServerLib_A:s_CSessionServer.obj
 0001:0001eee0       ?InvalidateDeviceObjects@DxObject@@UAEJXZ 0041fee0 f i EngineLib_A:DxViewPort.obj
 0001:0001eef0       ??_ETiXmlDocument@@UAEPAXI@Z 0041fef0 f i NetServerLib_A:s_CWhiteRockXML.obj
 0001:0001eef0       ??_GTiXmlDocument@@UAEPAXI@Z 0041fef0 f i NetServerLib_A:s_CWhiteRockXML.obj
 0001:0001ef10       ??0CWhiteRockXml@@QAE@XZ   0041ff10 f   NetServerLib_A:s_CWhiteRockXML.obj
 0001:0001ef20       ??1CWhiteRockXml@@QAE@XZ   0041ff20 f   NetServerLib_A:s_CWhiteRockXML.obj
 0001:0001ef70       ??0CSendMsgBuffer@@QAE@XZ  0041ff70 f   NetServerLib_A:SendMsgBuffer.obj
 0001:0001efb0       ??1CSendMsgBuffer@@QAE@XZ  0041ffb0 f   NetServerLib_A:SendMsgBuffer.obj
 0001:0001eff0       ??R?$less@V?$basic_string@DU?$char_traits@D@std@@V?$allocator@D@2@@std@@@std@@QBE_NABV?$basic_string@DU?$char_traits@D@std@@V?$allocator@D@2@@1@0@Z 0041fff0 f i NetServerLib_A:s_CDbActionGame.obj
 0001:0001f010       ?_Inc@const_iterator@?$_Tree@V?$_Tmap_traits@V?$basic_string@DU?$char_traits@D@std@@V?$allocator@D@2@@std@@Uunz_file_pos_s@@U?$less@V?$basic_string@DU?$char_traits@D@std@@V?$allocator@D@2@@std@@@2@V?$allocator@U?$pair@$$CBV?$basic_string@DU?$char_traits@D@std@@V?$allocator@D@2@@std@@Uunz_file_pos_s@@@std@@@2@$0A@@std@@@std@@QAEXXZ 00420010 f i EngineLib_A:Unzipper.obj
 0001:0001f010       ?_Inc@const_iterator@?$_Tree@V?$_Tmap_traits@KUITEM_COOLTIME@@U?$less@K@std@@V?$allocator@U?$pair@$$CBKUITEM_COOLTIME@@@std@@@3@$0A@@std@@@std@@QAEXXZ 00420010 f i NetServerLib_A:s_CDbActionGame.obj
 0001:0001f010       ?_Inc@const_iterator@?$_Tree@V?$_Tmap_traits@USWavFileKey@@PAUSWavFileData@@U?$less@USWavFileKey@@@std@@V?$allocator@U?$pair@$$CBUSWavFileKey@@PAUSWavFileData@@@std@@@4@$0A@@std@@@std@@QAEXXZ 00420010 f i EngineSoundLib_A:DxSoundMan.obj
 0001:0001f070       ??1_com_error@@UAE@XZ      00420070 f i NetServerLib_A:DaumGameCrypt.obj
 0001:0001f0a0       ??_E_com_error@@UAEPAXI@Z  004200a0 f i NetServerLib_A:DaumGameCrypt.obj
 0001:0001f0a0       ??_G_com_error@@UAEPAXI@Z  004200a0 f i NetServerLib_A:DaumGameCrypt.obj
 0001:0001f0e0       ??0CPROFILE@@QAE@XZ        004200e0 f   EngineLib_A:profile.obj
 0001:0001f170       ?DXUtil_Timer@@YGMW4TIMER_COMMAND@@@Z 00420170 f   EngineLib_A:dxutil.obj
 0001:0001f520       ??0CRijndael@@QAE@XZ       00420520 f   EngineLib_A:Rijndael.obj
 0001:0001f540       ??1CRijndael@@UAE@XZ       00420540 f   EngineLib_A:Rijndael.obj
 0001:0001f550       ?Signature@CRijndael@@EAEXPAD@Z 00420550 f   EngineLib_A:Rijndael.obj
 0001:0001f630       ??0runtime_error@std@@QAE@ABV?$basic_string@DU?$char_traits@D@std@@V?$allocator@D@2@@1@@Z 00420630 f i EngineLib_A:Rijndael.obj
 0001:0001f690       ?what@runtime_error@std@@UBEPBDXZ 00420690 f i EngineLib_A:Rijndael.obj
 0001:0001f690       ?what@logic_error@std@@UBEPBDXZ 00420690 f i NetServerLib_A:s_CServer.obj
 0001:0001f6a0       ??_Eruntime_error@std@@UAEPAXI@Z 004206a0 f i EngineLib_A:Rijndael.obj
 0001:0001f6a0       ??_Gruntime_error@std@@UAEPAXI@Z 004206a0 f i EngineLib_A:Rijndael.obj
 0001:0001f6c0       ??1runtime_error@std@@UAE@XZ 004206c0 f i EngineLib_A:Rijndael.obj
 0001:0001f720       ??_ECRijndael@@UAEPAXI@Z   00420720 f i EngineLib_A:Rijndael.obj
 0001:0001f720       ??_GCRijndael@@UAEPAXI@Z   00420720 f i EngineLib_A:Rijndael.obj
 0001:0001f740       ??0runtime_error@std@@QAE@ABV01@@Z 00420740 f i EngineLib_A:Rijndael.obj
 0001:0001f7a0       ?ResetChain@CRijndael@@UAEXXZ 004207a0 f   EngineLib_A:Rijndael.obj
 0001:0001f830       ?DefEncryptBlock@CRijndael@@AAEXPBDPAD@Z 00420830 f   EngineLib_A:Rijndael.obj
 0001:0001fbf0       ?DefDecryptBlock@CRijndael@@AAEXPBDPAD@Z 00420bf0 f   EngineLib_A:Rijndael.obj
 0001:0001ffa0       ?EncryptBlock@CRijndael@@AAEXPBDPAD@Z 00420fa0 f   EngineLib_A:Rijndael.obj
 0001:00020300       ?DecryptBlock@CRijndael@@AAEXPBDPAD@Z 00421300 f   EngineLib_A:Rijndael.obj
 0001:00020680       ?Encrypt@CRijndael@@UAEXPBDPADI@Z 00421680 f   EngineLib_A:Rijndael.obj
 0001:000208a0       ?Decrypt@CRijndael@@UAEXPBDPADI@Z 004218a0 f   EngineLib_A:Rijndael.obj
 0001:00020ae0       ?EncryptFileA@CRijndael@@UAEXABV?$basic_string@DU?$char_traits@D@std@@V?$allocator@D@2@@std@@0@Z 00421ae0 f   EngineLib_A:Rijndael.obj
 0001:00020e90       ?DecryptFileA@CRijndael@@UAEXABV?$basic_string@DU?$char_traits@D@std@@V?$allocator@D@2@@std@@0@Z 00421e90 f   EngineLib_A:Rijndael.obj
 0001:000212d0       ?Init@INFO@CDebugSet@@QAEXXZ 004222d0 f i EngineLib_A:DebugSet.obj
 0001:00021320       ??0SPOSTEXT@CDebugSet@@QAE@MMV?$basic_string@DU?$char_traits@D@std@@V?$allocator@D@2@@std@@@Z 00422320 f i EngineLib_A:DebugSet.obj
 0001:00021390       ??1_Node@?$_List_nod@USPOSTEXT@CDebugSet@@V?$allocator@USPOSTEXT@CDebugSet@@@std@@@std@@QAE@XZ 00422390 f i EngineLib_A:DebugSet.obj
 0001:000213a0       ?DelHead@?$CMList@PAUINFO@CDebugSet@@@@QAEHXZ 004223a0 f i EngineLib_A:DebugSet.obj
 0001:000213f0       ?RemoveAll@?$CMList@PAUINFO@CDebugSet@@@@QAEXXZ 004223f0 f i EngineLib_A:DebugSet.obj
 0001:00021450       ?GetCurTime@CDebugSet@@YA?AV?$basic_string@DU?$char_traits@D@std@@V?$allocator@D@2@@std@@XZ 00422450 f   EngineLib_A:DebugSet.obj
 0001:00021580       ?ToLogFile@CDebugSet@@YAXPBDZZ 00422580 f   EngineLib_A:DebugSet.obj
 0001:00021680       ?_Buynode@?$list@USPOSTEXT@CDebugSet@@V?$allocator@USPOSTEXT@CDebugSet@@@std@@@std@@IAEPAU_Node@?$_List_nod@USPOSTEXT@CDebugSet@@V?$allocator@USPOSTEXT@CDebugSet@@@std@@@2@XZ 00422680 f i EngineLib_A:DebugSet.obj
 0001:000216a0       ?_Buynode@?$list@USPOSTEXT@CDebugSet@@V?$allocator@USPOSTEXT@CDebugSet@@@std@@@std@@IAEPAU_Node@?$_List_nod@USPOSTEXT@CDebugSet@@V?$allocator@USPOSTEXT@CDebugSet@@@std@@@2@PAU342@0ABUSPOSTEXT@CDebugSet@@@Z 004226a0 f i EngineLib_A:DebugSet.obj
 0001:00021740       ?_Incsize@?$list@USPOSTEXT@CDebugSet@@V?$allocator@USPOSTEXT@CDebugSet@@@std@@@std@@IAEXI@Z 00422740 f i EngineLib_A:DebugSet.obj
 0001:000217e0       ?ToListView@CDebugSet@@YAXPBDZZ 004227e0 f   EngineLib_A:DebugSet.obj
 0001:00021a20       ?ToFile@CDebugSet@@YAXPBD0ZZ 00422a20 f   EngineLib_A:DebugSet.obj
 0001:00021b20       ?clear@?$list@USPOSTEXT@CDebugSet@@V?$allocator@USPOSTEXT@CDebugSet@@@std@@@std@@QAEXXZ 00422b20 f i EngineLib_A:DebugSet.obj
 0001:00021b60       ?ToPos@CDebugSet@@YAXMMPBDZZ 00422b60 f   EngineLib_A:DebugSet.obj
 0001:00021c40       ?_Min@?$_Tree@V?$_Tmap_traits@KUSMTH@GLPeriod@@U?$less@K@std@@V?$allocator@U?$pair@$$CBKUSMTH@GLPeriod@@@std@@@4@$0A@@std@@@std@@KAPAU_Node@?$_Tree_nod@V?$_Tmap_traits@KUSMTH@GLPeriod@@U?$less@K@std@@V?$allocator@U?$pair@$$CBKUSMTH@GLPeriod@@@std@@@4@$0A@@std@@@2@PAU342@@Z 00422c40 f i EngineLib_A:GLPeriod.obj
 0001:00021c40       ?_Min@?$_Tree@V?$_Tmap_traits@KUCOUNTVERTEXFACE@NSCHARSG@@U?$less@K@std@@V?$allocator@U?$pair@$$CBKUCOUNTVERTEXFACE@NSCHARSG@@@std@@@4@$0A@@std@@@std@@KAPAU_Node@?$_Tree_nod@V?$_Tmap_traits@KUCOUNTVERTEXFACE@NSCHARSG@@U?$less@K@std@@V?$allocator@U?$pair@$$CBKUCOUNTVERTEXFACE@NSCHARSG@@@std@@@4@$0A@@std@@@2@PAU342@@Z 00422c40 f i EngineLib_A:NsSMeshSceneGraph.obj
 0001:00021c60       ?_Lrotate@?$_Tree@V?$_Tmap_traits@KUSMTH@GLPeriod@@U?$less@K@std@@V?$allocator@U?$pair@$$CBKUSMTH@GLPeriod@@@std@@@4@$0A@@std@@@std@@IAEXPAU_Node@?$_Tree_nod@V?$_Tmap_traits@KUSMTH@GLPeriod@@U?$less@K@std@@V?$allocator@U?$pair@$$CBKUSMTH@GLPeriod@@@std@@@4@$0A@@std@@@2@@Z 00422c60 f i EngineLib_A:GLPeriod.obj
 0001:00021c60       ?_Lrotate@?$_Tree@V?$_Tmap_traits@KUCOUNTVERTEXFACE@NSCHARSG@@U?$less@K@std@@V?$allocator@U?$pair@$$CBKUCOUNTVERTEXFACE@NSCHARSG@@@std@@@4@$0A@@std@@@std@@IAEXPAU_Node@?$_Tree_nod@V?$_Tmap_traits@KUCOUNTVERTEXFACE@NSCHARSG@@U?$less@K@std@@V?$allocator@U?$pair@$$CBKUCOUNTVERTEXFACE@NSCHARSG@@@std@@@4@$0A@@std@@@2@@Z 00422c60 f i EngineLib_A:NsSMeshSceneGraph.obj
 0001:00021cc0       ?_Xlen@?$vector@USONEMAPWEATHER@@V?$allocator@USONEMAPWEATHER@@@std@@@std@@IBEXXZ 00422cc0 f i EngineLib_A:GLPeriod.obj
 0001:00021d40       ?_Dec@const_iterator@?$_Tree@V?$_Tmap_traits@KUSMTH@GLPeriod@@U?$less@K@std@@V?$allocator@U?$pair@$$CBKUSMTH@GLPeriod@@@std@@@4@$0A@@std@@@std@@QAEXXZ 00422d40 f i EngineLib_A:GLPeriod.obj
 0001:00021da0       ?_Buynode@?$_Tree@V?$_Tmap_traits@KUSMTH@GLPeriod@@U?$less@K@std@@V?$allocator@U?$pair@$$CBKUSMTH@GLPeriod@@@std@@@4@$0A@@std@@@std@@IAEPAU_Node@?$_Tree_nod@V?$_Tmap_traits@KUSMTH@GLPeriod@@U?$less@K@std@@V?$allocator@U?$pair@$$CBKUSMTH@GLPeriod@@@std@@@4@$0A@@std@@@2@PAU342@00ABU?$pair@$$CBKUSMTH@GLPeriod@@@2@D@Z 00422da0 f i EngineLib_A:GLPeriod.obj
 0001:00021df0       ?_Erase@?$_Tree@V?$_Tmap_traits@KUSMTH@GLPeriod@@U?$less@K@std@@V?$allocator@U?$pair@$$CBKUSMTH@GLPeriod@@@std@@@4@$0A@@std@@@std@@IAEXPAU_Node@?$_Tree_nod@V?$_Tmap_traits@KUSMTH@GLPeriod@@U?$less@K@std@@V?$allocator@U?$pair@$$CBKUSMTH@GLPeriod@@@std@@@4@$0A@@std@@@2@@Z 00422df0 f i EngineLib_A:GLPeriod.obj
 0001:00021e30       ?_Insert@?$_Tree@V?$_Tmap_traits@KUSMTH@GLPeriod@@U?$less@K@std@@V?$allocator@U?$pair@$$CBKUSMTH@GLPeriod@@@std@@@4@$0A@@std@@@std@@IAE?AViterator@12@_NPAU_Node@?$_Tree_nod@V?$_Tmap_traits@KUSMTH@GLPeriod@@U?$less@K@std@@V?$allocator@U?$pair@$$CBKUSMTH@GLPeriod@@@std@@@4@$0A@@std@@@2@ABU?$pair@$$CBKUSMTH@GLPeriod@@@2@@Z 00422e30 f i EngineLib_A:GLPeriod.obj
 0001:00021ff0       ?erase@?$_Tree@V?$_Tmap_traits@KUSMTH@GLPeriod@@U?$less@K@std@@V?$allocator@U?$pair@$$CBKUSMTH@GLPeriod@@@std@@@4@$0A@@std@@@std@@QAE?AViterator@12@V312@@Z 00422ff0 f i EngineLib_A:GLPeriod.obj
 0001:000222c0       ?insert@?$_Tree@V?$_Tmap_traits@KUSMTH@GLPeriod@@U?$less@K@std@@V?$allocator@U?$pair@$$CBKUSMTH@GLPeriod@@@std@@@4@$0A@@std@@@std@@QAE?AU?$pair@Viterator@?$_Tree@V?$_Tmap_traits@KUSMTH@GLPeriod@@U?$less@K@std@@V?$allocator@U?$pair@$$CBKUSMTH@GLPeriod@@@std@@@4@$0A@@std@@@std@@_N@2@ABU?$pair@$$CBKUSMTH@GLPeriod@@@2@@Z 004232c0 f i EngineLib_A:GLPeriod.obj
 0001:00022380       ?erase@?$_Tree@V?$_Tmap_traits@KUSMTH@GLPeriod@@U?$less@K@std@@V?$allocator@U?$pair@$$CBKUSMTH@GLPeriod@@@std@@@4@$0A@@std@@@std@@QAE?AViterator@12@V312@0@Z 00423380 f i EngineLib_A:GLPeriod.obj
 0001:00022440       ??1?$vector@USNATIVEID@@V?$allocator@USNATIVEID@@@std@@@std@@QAE@XZ 00423440 f i RanClientLib_A:GLItemMan.obj
 0001:00022440       ??1?$vector@PAVDXLIGHT@@V?$allocator@PAVDXLIGHT@@@std@@@std@@QAE@XZ 00423440 f i EngineLib_A:DxLightMan.obj
 0001:00022440       ??1?$vector@PAUAttributeIB@@V?$allocator@PAUAttributeIB@@@std@@@std@@QAE@XZ 00423440 f i EngineLib_A:NsSMeshSceneGraph.obj
 0001:00022440       ??1?$vector@USANIATTACK@@V?$allocator@USANIATTACK@@@std@@@std@@QAE@XZ 00423440 f i RanClientLib_A:GLogicData.obj
 0001:00022440       ??1?$vector@USRANDOM_DATA@@V?$allocator@USRANDOM_DATA@@@std@@@std@@QAE@XZ 00423440 f i RanClientLib_A:GLItemMan.obj
 0001:00022440       ??1?$vector@USTRACOR@@V?$allocator@USTRACOR@@@std@@@std@@QAE@XZ 00423440 f i EngineLib_A:DxCharPart.obj
 0001:00022440       ??1?$vector@PAVDxDynamicMesh@@V?$allocator@PAVDxDynamicMesh@@@std@@@std@@QAE@XZ 00423440 f i EngineLib_A:NsSMeshSceneGraph.obj
 0001:00022440       ?_Tidy@?$vector@USONEMAPWEATHER@@V?$allocator@USONEMAPWEATHER@@@std@@@std@@IAEXXZ 00423440 f i EngineLib_A:GLPeriod.obj
 0001:00022440       ??1?$vector@PAUHICON__@@V?$allocator@PAUHICON__@@@std@@@std@@QAE@XZ 00423440 f i EngineUILib_A:Cursor.obj
 0001:00022440       ??1?$vector@HV?$allocator@H@std@@@std@@QAE@XZ 00423440 f i NetServerLib_A:s_CClientManager.obj
 0001:00022440       ??1?$vector@PAVDxEffChar@@V?$allocator@PAVDxEffChar@@@std@@@std@@QAE@XZ 00423440 f i EngineLib_A:DxCharPart.obj
 0001:00022440       ?_Tidy@?$vector@Viterator@?$list@U?$pair@$$CBV?$basic_string@DU?$char_traits@D@std@@V?$allocator@D@2@@std@@PAUSSoundEx@@@std@@V?$allocator@U?$pair@$$CBV?$basic_string@DU?$char_traits@D@std@@V?$allocator@D@2@@std@@PAUSSoundEx@@@std@@@2@@std@@V?$allocator@Viterator@?$list@U?$pair@$$CBV?$basic_string@DU?$char_traits@D@std@@V?$allocator@D@2@@std@@PAUSSoundEx@@@std@@V?$allocator@U?$pair@$$CBV?$basic_string@DU?$char_traits@D@std@@V?$allocator@D@2@@std@@PAUSSoundEx@@@std@@@2@@std@@@3@@std@@IAEXXZ 00423440 f i EngineSoundLib_A:DxSoundLib.obj
 0001:00022440       ??1?$vector@USONEMAPWEATHER@@V?$allocator@USONEMAPWEATHER@@@std@@@std@@QAE@XZ 00423440 f i EngineLib_A:GLPeriod.obj
 0001:00022470       ??1?$map@KUSMTH@GLPeriod@@U?$less@K@std@@V?$allocator@U?$pair@$$CBKUSMTH@GLPeriod@@@std@@@4@@std@@QAE@XZ 00423470 f i EngineLib_A:GLPeriod.obj
 0001:000224a0       ??1GLPeriod@@QAE@XZ        004234a0 f   EngineLib_A:GLPeriod.obj
 0001:00022500       ??0GLPeriod@@IAE@XZ        00423500 f   EngineLib_A:GLPeriod.obj
 0001:00022990       ?GetInstance@GLPeriod@@SAAAV1@XZ 00423990 f   EngineLib_A:GLPeriod.obj
 0001:000229f0       ?HoldCursor@DxInputDevice@@QAEXXZ 004239f0 f   EngineLib_A:DxInputDevice.obj
 0001:00022a20       ?_Max@?$_Tree@V?$_Tset_traits@EU?$less@E@std@@V?$allocator@E@2@$0A@@std@@@std@@KAPAU_Node@?$_Tree_nod@V?$_Tset_traits@EU?$less@E@std@@V?$allocator@E@2@$0A@@std@@@2@PAU342@@Z 00423a20 f i EngineLib_A:DxInputDevice.obj
 0001:00022a40       ?_Min@?$_Tree@V?$_Tset_traits@EU?$less@E@std@@V?$allocator@E@2@$0A@@std@@@std@@KAPAU_Node@?$_Tree_nod@V?$_Tset_traits@EU?$less@E@std@@V?$allocator@E@2@$0A@@std@@@2@PAU342@@Z 00423a40 f i EngineLib_A:DxInputDevice.obj
 0001:00022a60       ?_Rrotate@?$_Tree@V?$_Tset_traits@EU?$less@E@std@@V?$allocator@E@2@$0A@@std@@@std@@IAEXPAU_Node@?$_Tree_nod@V?$_Tset_traits@EU?$less@E@std@@V?$allocator@E@2@$0A@@std@@@2@@Z 00423a60 f i EngineLib_A:DxInputDevice.obj
 0001:00022ac0       ?_Inc@const_iterator@?$_Tree@V?$_Tset_traits@EU?$less@E@std@@V?$allocator@E@2@$0A@@std@@@std@@QAEXXZ 00423ac0 f i EngineLib_A:DxInputDevice.obj
 0001:00022b20       ?_Lrotate@?$_Tree@V?$_Tset_traits@EU?$less@E@std@@V?$allocator@E@2@$0A@@std@@@std@@IAEXPAU_Node@?$_Tree_nod@V?$_Tset_traits@EU?$less@E@std@@V?$allocator@E@2@$0A@@std@@@2@@Z 00423b20 f i EngineLib_A:DxInputDevice.obj
 0001:00022b80       ?_Erase@?$_Tree@V?$_Tset_traits@EU?$less@E@std@@V?$allocator@E@2@$0A@@std@@@std@@IAEXPAU_Node@?$_Tree_nod@V?$_Tset_traits@EU?$less@E@std@@V?$allocator@E@2@$0A@@std@@@2@@Z 00423b80 f i EngineLib_A:DxInputDevice.obj
 0001:00022bc0       ?_Buynode@?$_Tree@V?$_Tset_traits@EU?$less@E@std@@V?$allocator@E@2@$0A@@std@@@std@@IAEPAU_Node@?$_Tree_nod@V?$_Tset_traits@EU?$less@E@std@@V?$allocator@E@2@$0A@@std@@@2@XZ 00423bc0 f i EngineLib_A:DxInputDevice.obj
 0001:00022c00       ?erase@?$_Tree@V?$_Tset_traits@EU?$less@E@std@@V?$allocator@E@2@$0A@@std@@@std@@QAE?AViterator@12@V312@@Z 00423c00 f i EngineLib_A:DxInputDevice.obj
 0001:00022ed0       ?erase@?$_Tree@V?$_Tset_traits@EU?$less@E@std@@V?$allocator@E@2@$0A@@std@@@std@@QAE?AViterator@12@V312@0@Z 00423ed0 f i EngineLib_A:DxInputDevice.obj
 0001:00022f90       ??1?$set@EU?$less@E@std@@V?$allocator@E@2@@std@@QAE@XZ 00423f90 f i EngineLib_A:DxInputDevice.obj
 0001:00022fc0       ??1DxInputDevice@@UAE@XZ   00423fc0 f   EngineLib_A:DxInputDevice.obj
 0001:00023070       ??0DxInputDevice@@IAE@XZ   00424070 f   EngineLib_A:DxInputDevice.obj
 0001:00023170       ??_GDxInputDevice@@UAEPAXI@Z 00424170 f i EngineLib_A:DxInputDevice.obj
 0001:00023170       ??_EDxInputDevice@@UAEPAXI@Z 00424170 f i EngineLib_A:DxInputDevice.obj
 0001:00023190       ?GetInstance@DxInputDevice@@SAAAV1@XZ 00424190 f   EngineLib_A:DxInputDevice.obj
 0001:000231f0       ??0IMethod@@QAE@XZ         004241f0 f   EngineLib_A:Method.obj
 0001:00023200       ??1IMethod@@UAE@XZ         00424200 f   EngineLib_A:Method.obj
 0001:00023210       ??_EIMethod@@UAEPAXI@Z     00424210 f i EngineLib_A:Method.obj
 0001:00023210       ??_GIMethod@@UAEPAXI@Z     00424210 f i EngineLib_A:Method.obj
 0001:00023230       ?Xor@IMethod@@IAEXPADPBD@Z 00424230 f   EngineLib_A:Method.obj
 0001:000232c0       ?Pad@IMethod@@QAEHPADH@Z   004242c0 f   EngineLib_A:Method.obj
 0001:000233a0       ??0CSHA@@QAE@XZ            004243a0 f   EngineLib_A:Sha.obj
 0001:000233f0       ?Transform@CSHA@@AAEXXZ    004243f0 f   EngineLib_A:Sha.obj
 0001:00025da0       ?AddData@CSHA@@QAEXPBDH@Z  00426da0 f   EngineLib_A:Sha.obj
 0001:00025f00       ?FinalDigest@CSHA@@QAEXPAD@Z 00426f00 f   EngineLib_A:Sha.obj
 0001:00026130       ??0CDoubleBuffering@@QAE@AAV?$basic_ifstream@DU?$char_traits@D@std@@@std@@PADHH@Z 00427130 f   EngineLib_A:DoubleBuffering.obj
 0001:00026290       ?GetData@CDoubleBuffering@@QAEHPADH@Z 00427290 f   EngineLib_A:DoubleBuffering.obj
 0001:000264f0       ??1DxWeatherMan@@QAE@XZ    004274f0 f   EngineLib_A:DxWeatherMan.obj
 0001:00026570       ?InitDeviceObjects@DxWeatherMan@@UAEJPAUIDirect3DDevice9@@@Z 00427570 f   EngineLib_A:DxWeatherMan.obj
 0001:000265a0       ?InvalidateDeviceObjects@DxWeatherMan@@UAEJPAUIDirect3DDevice9@@@Z 004275a0 f   EngineLib_A:DxWeatherMan.obj
 0001:000265a0       ?RestoreDeviceObjects@DxWeatherMan@@UAEJPAUIDirect3DDevice9@@@Z 004275a0 f   EngineLib_A:DxWeatherMan.obj
 0001:000265c0       ?DeleteDeviceObjects@DxWeatherMan@@UAEJXZ 004275c0 f   EngineLib_A:DxWeatherMan.obj
 0001:000265d0       ?Render@DxWeatherMan@@UAEJPAUIDirect3DDevice9@@@Z 004275d0 f   EngineLib_A:DxWeatherMan.obj
 0001:000265f0       ?RestoreDeviceObjects@DxObject@@UAEJPAUIDirect3DDevice9@@@Z 004275f0 f   EngineLib_A:DxViewPort.obj
 0001:000265f0       ?Execute@CDbAction@@UAEHPAVCServer@@@Z 004275f0 f   NetServerLib_A:s_CDbActionUser.obj
 0001:000265f0       ?Render@DxObject@@UAEJPAUIDirect3DDevice9@@@Z 004275f0 f   EngineLib_A:DxViewPort.obj
 0001:000265f0       ?GetClubRegion@GLDBMan@@UAEHAAV?$vector@UGLGUID_DB@@V?$allocator@UGLGUID_DB@@@std@@@std@@@Z 004275f0 f   NetServerLib_A:s_COdbcManager.obj
 0001:000265f0       ?InitDeviceObjects@DxObject@@UAEJPAUIDirect3DDevice9@@@Z 004275f0 f   EngineLib_A:DxViewPort.obj
 0001:000265f0       ?MyUserClassCheck@GLDBMan@@UAEHPBD@Z 004275f0 f   NetServerLib_A:s_COdbcManager.obj
 0001:000265f0       ?SaveCharacter@GLEmulatorDBMan@@UAEHPAX@Z 004275f0 f   RanClientLib_A:GLAgentServer.obj
 0001:000265f0       ?ThaiUserClassCheck@GLDBMan@@UAEHPBD@Z 004275f0 f   NetServerLib_A:s_COdbcManager.obj
 0001:000265f0       ?CreateNewCharacter@GLDBMan@@UAEHPAUSCHARDATA2@@@Z 004275f0 f   NetServerLib_A:s_COdbcManager.obj
 0001:000265f0       ?Render_Prev@DxWeatherMan@@UAEJPAUIDirect3DDevice9@@@Z 004275f0 f   EngineLib_A:DxWeatherMan.obj
 0001:000265f0       ?LogAction@GLDBMan@@UAEHABUSLOGACTION@@@Z 004275f0 f   NetServerLib_A:s_COdbcManager.obj
 0001:000265f0       ?GetClubAlliance@GLDBMan@@UAEHAAV?$vector@U?$pair@KK@std@@V?$allocator@U?$pair@KK@std@@@2@@std@@@Z 004275f0 f   NetServerLib_A:s_COdbcManager.obj
 0001:000265f0       ?LogRandomItem@GLDBMan@@UAEHABUSLOGRANDOMOPTION@@@Z 004275f0 f   NetServerLib_A:s_COdbcManager.obj
 0001:000265f0       ?LogVehicleAction@GLDBMan@@UAEHABUSLOGVEHICLEACTION@@@Z 004275f0 f   NetServerLib_A:s_COdbcManager.obj
 0001:000265f0       ?LogItemConversion@GLDBMan@@UAEHABUSLOGITEMCONVERSION@@@Z 004275f0 f   NetServerLib_A:s_COdbcManager.obj
 0001:000265f0       ?LogItemExchange@GLDBMan@@UAEHABUSLOGITEMEXCHANGE@@@Z 004275f0 f   NetServerLib_A:s_COdbcManager.obj
 0001:000265f0       ?ReadUserInven@GLEmulatorDBMan@@UAEHPAUSCHARDATA2@@@Z 004275f0 f   RanClientLib_A:GLAgentServer.obj
 0001:000265f0       ?GetClubInfo@GLDBMan@@UAEHAAV?$vector@UGLCLUBINFO@@V?$allocator@UGLCLUBINFO@@@std@@@std@@@Z 004275f0 f   NetServerLib_A:s_COdbcManager.obj
 0001:000265f0       ?DeleteClubMember@GLDBMan@@UAEHK@Z 004275f0 f   NetServerLib_A:s_COdbcManager.obj
 0001:000265f0       ?LogMoneyExchange@GLDBMan@@UAEHABUSLOGMONEYEXCHANGE@@@Z 004275f0 f   NetServerLib_A:s_COdbcManager.obj
 0001:000265f0       ?GetSwRegion@GLDBMan@@UAEHAAV?$vector@UGLSWID@@V?$allocator@UGLSWID@@@std@@@std@@@Z 004275f0 f   NetServerLib_A:s_COdbcManager.obj
 0001:000265f0       ?RestoreDeviceObjects@DxEffectRain@@QAEJPAUIDirect3DDevice9@@@Z 004275f0 f   EngineLib_A:DxWeatherManEx.obj
 0001:000265f0       ?InvalidateDeviceObjects@DxEffectRain@@QAEJPAUIDirect3DDevice9@@@Z 004275f0 f   EngineLib_A:DxWeatherManEx.obj
 0001:000265f0       ?LogPetAction@GLDBMan@@UAEHABUSLOGPETACTION@@@Z 004275f0 f   NetServerLib_A:s_COdbcManager.obj
 0001:000265f0       ?UserChaNumIncrease@GLDBMan@@UAEHH@Z 004275f0 f   NetServerLib_A:s_COdbcManager.obj
 0001:000265f0       ?ReSetAllianceBattle@GLDBMan@@UAEHK@Z 004275f0 f   NetServerLib_A:s_COdbcManager.obj
 0001:00026600       ??0DxWeatherMan@@QAE@XZ    00427600 f   EngineLib_A:DxWeatherMan.obj
 0001:000266b0       ??$_Uninit_copy@PAUPET_RELIST@@PAU1@V?$allocator@UPET_RELIST@@@std@@@std@@YAPAUPET_RELIST@@PAU1@00AAV?$allocator@UPET_RELIST@@@0@U_Nonscalar_ptr_iterator_tag@0@@Z 004276b0 f i NetServerLib_A:s_COdbcGamePet.obj
 0001:000266b0       ??$_Uninit_copy@Vconst_iterator@?$vector@USONEMAPWEATHER@@V?$allocator@USONEMAPWEATHER@@@std@@@std@@PAUSONEMAPWEATHER@@V?$allocator@USONEMAPWEATHER@@@3@@std@@YAPAUSONEMAPWEATHER@@Vconst_iterator@?$vector@USONEMAPWEATHER@@V?$allocator@USONEMAPWEATHER@@@std@@@0@0PAU1@AAV?$allocator@USONEMAPWEATHER@@@0@U_Nonscalar_ptr_iterator_tag@0@@Z 004276b0 f i EngineLib_A:DxWeatherMan.obj
 0001:000266e0       ??0?$vector@USONEMAPWEATHER@@V?$allocator@USONEMAPWEATHER@@@std@@@std@@QAE@ABV01@@Z 004276e0 f i EngineLib_A:DxWeatherMan.obj
 0001:000267b0       ?GetOneMapWeather@GLPeriod@@QAE?AV?$vector@USONEMAPWEATHER@@V?$allocator@USONEMAPWEATHER@@@std@@@std@@XZ 004277b0 f i EngineLib_A:DxWeatherMan.obj
 0001:000267e0       ?FrameMove@DxWeatherMan@@UAEJMM@Z 004277e0 f   EngineLib_A:DxWeatherMan.obj
 0001:000269c0       ??1DXLIGHT@@UAE@XZ         004279c0 f i EngineLib_A:DxLightMan.obj
 0001:000269f0       ??_EDXLIGHT@@UAEPAXI@Z     004279f0 f i EngineLib_A:DxLightMan.obj
 0001:000269f0       ??_GDXLIGHT@@UAEPAXI@Z     004279f0 f i EngineLib_A:DxLightMan.obj
 0001:00026a30       ??_GDXLIGHTNODE@@QAEPAXI@Z 00427a30 f i EngineLib_A:DxLightMan.obj
 0001:00026a80       ?COLORBLEND@?A0xc04b7ddc@@YA?AU_D3DCOLORVALUE@@ABU2@0M@Z 00427a80 f   EngineLib_A:DxLightMan.obj
 0001:00026b00       ?InitDeviceObjects@DxLightMan@@UAEJPAUIDirect3DDevice9@@@Z 00427b00 f   EngineLib_A:DxLightMan.obj
 0001:00026bd0       ?IsCollisionVolume@DXLIGHTNODE@@QAEHAAUCLIPVOLUME@@@Z 00427bd0 f   EngineLib_A:DxLightMan.obj
 0001:00027270       ?Clone2DPLight@DxLightMan@@QAEXXZ 00428270 f   EngineLib_A:DxLightMan.obj
 0001:000272c0       ?_Max@?$_Tree@V?$_Tmap_traits@KUOBJQUADTemp@@U?$less@K@std@@V?$allocator@U?$pair@$$CBKUOBJQUADTemp@@@std@@@3@$0A@@std@@@std@@KAPAU_Node@?$_Tree_nod@V?$_Tmap_traits@KUOBJQUADTemp@@U?$less@K@std@@V?$allocator@U?$pair@$$CBKUOBJQUADTemp@@@std@@@3@$0A@@std@@@2@PAU342@@Z 004282c0 f i EngineLib_A:DxMapEditManThread.obj
 0001:000272c0       ?_Max@?$_Tree@V?$_Tmap_traits@KKU?$less@K@std@@V?$allocator@U?$pair@$$CBKK@std@@@2@$00@std@@@std@@KAPAU_Node@?$_Tree_nod@V?$_Tmap_traits@KKU?$less@K@std@@V?$allocator@U?$pair@$$CBKK@std@@@2@$00@std@@@2@PAU342@@Z 004282c0 f i EngineLib_A:NsSMeshSceneGraph.obj
 0001:000272c0       ?_Max@?$_Tree@V?$_Tmap_traits@V?$CStringT@DV?$StrTraitMFC_DLL@DV?$ChTraitsCRT@D@ATL@@@@@ATL@@PAVDxSkinPieceRootData@@U?$less@V?$CStringT@DV?$StrTraitMFC_DLL@DV?$ChTraitsCRT@D@ATL@@@@@ATL@@@std@@V?$allocator@U?$pair@$$CBV?$CStringT@DV?$StrTraitMFC_DLL@DV?$ChTraitsCRT@D@ATL@@@@@ATL@@PAVDxSkinPieceRootData@@@std@@@5@$0A@@std@@@std@@KAPAU_Node@?$_Tree_nod@V?$_Tmap_traits@V?$CStringT@DV?$StrTraitMFC_DLL@DV?$ChTraitsCRT@D@ATL@@@@@ATL@@PAVDxSkinPieceRootData@@U?$less@V?$CStringT@DV?$StrTraitMFC_DLL@DV?$ChTraitsCRT@D@ATL@@@@@ATL@@@std@@V?$allocator@U?$pair@$$CBV?$CStringT@DV?$StrTraitMFC_DLL@DV?$ChTraitsCRT@D@ATL@@@@@ATL@@PAVDxSkinPieceRootData@@@std@@@5@$0A@@std@@@2@PAU342@@Z 004282c0 f i EngineLib_A:DxSkinPieceRootData.obj
 0001:000272c0       ?_Max@?$_Tree@V?$_Tmap_traits@HHU?$less@H@std@@V?$allocator@U?$pair@$$CBHH@std@@@2@$0A@@std@@@std@@KAPAU_Node@?$_Tree_nod@V?$_Tmap_traits@HHU?$less@H@std@@V?$allocator@U?$pair@$$CBHH@std@@@2@$0A@@std@@@2@PAU342@@Z 004282c0 f i NetServerLib_A:s_CClientManager.obj
 0001:000272c0       ?_Max@?$_Tree@V?$_Tmap_traits@MPAVDXLIGHT@@U?$less@M@std@@V?$allocator@U?$pair@$$CBMPAVDXLIGHT@@@std@@@3@$00@std@@@std@@KAPAU_Node@?$_Tree_nod@V?$_Tmap_traits@MPAVDXLIGHT@@U?$less@M@std@@V?$allocator@U?$pair@$$CBMPAVDXLIGHT@@@std@@@3@$00@std@@@2@PAU342@@Z 004282c0 f i EngineLib_A:DxLightMan.obj
 0001:000272e0       ??0DXLIGHT@@QAE@XZ         004282e0 f i EngineLib_A:DxLightMan.obj
 0001:00027380       ?IsOffLight@GLPeriod@@QAEHXZ 00428380 f i EngineLib_A:DxLightMan.obj
 0001:000273f0       ?MakeAABBTree@DxLightMan@@IAEXPAPAVDXLIGHT@@KPAUDXLIGHTNODE@@ABUD3DXVECTOR3@@2@Z 004283f0 f   EngineLib_A:DxLightMan.obj
 0001:00028330       ?_Inc@const_iterator@?$_Tree@V?$_Tmap_traits@V?$CStringT@DV?$StrTraitMFC_DLL@DV?$ChTraitsCRT@D@ATL@@@@@ATL@@PAVDxSkinPieceRootData@@U?$less@V?$CStringT@DV?$StrTraitMFC_DLL@DV?$ChTraitsCRT@D@ATL@@@@@ATL@@@std@@V?$allocator@U?$pair@$$CBV?$CStringT@DV?$StrTraitMFC_DLL@DV?$ChTraitsCRT@D@ATL@@@@@ATL@@PAVDxSkinPieceRootData@@@std@@@5@$0A@@std@@@std@@QAEXXZ 00429330 f i EngineLib_A:DxSkinPieceRootData.obj
 0001:00028330       ?_Inc@const_iterator@?$_Tree@V?$_Tmap_traits@U?$pair@GG@std@@PAUSINVENITEM@@U?$less@U?$pair@GG@std@@@2@V?$allocator@U?$pair@$$CBU?$pair@GG@std@@PAUSINVENITEM@@@std@@@2@$0A@@std@@@std@@QAEXXZ 00429330 f i RanClientLib_A:GLCharData.obj
 0001:00028330       ?_Inc@const_iterator@?$_Tree@V?$_Tmap_traits@KUOBJQUADTemp@@U?$less@K@std@@V?$allocator@U?$pair@$$CBKUOBJQUADTemp@@@std@@@3@$0A@@std@@@std@@QAEXXZ 00429330 f i EngineLib_A:DxMapEditManThread.obj
 0001:00028330       ?_Inc@const_iterator@?$_Tree@V?$_Tmap_traits@KKU?$less@K@std@@V?$allocator@U?$pair@$$CBKK@std@@@2@$00@std@@@std@@QAEXXZ 00429330 f i EngineLib_A:NsSMeshSceneGraph.obj
 0001:00028330       ?_Inc@const_iterator@?$_Tree@V?$_Tmap_traits@MPAVDXLIGHT@@U?$less@M@std@@V?$allocator@U?$pair@$$CBMPAVDXLIGHT@@@std@@@3@$00@std@@@std@@QAEXXZ 00429330 f i EngineLib_A:DxLightMan.obj
 0001:00028330       ?_Inc@const_iterator@?$_Tree@V?$_Tmap_traits@HHU?$less@H@std@@V?$allocator@U?$pair@$$CBHH@std@@@2@$0A@@std@@@std@@QAEXXZ 00429330 f i NetServerLib_A:s_CClientManager.obj
 0001:00028330       ?_Inc@const_iterator@?$_Tree@V?$_Tmap_traits@KPAVGLQUESTPROG@@U?$less@K@std@@V?$allocator@U?$pair@$$CBKPAVGLQUESTPROG@@@std@@@3@$0A@@std@@@std@@QAEXXZ 00429330 f i RanClientLib_A:GLQuestPlay.obj
 0001:00028390       ?SetDefault@DXLIGHT@@QAEXXZ 00429390 f i EngineLib_A:DxLightMan.obj
 0001:000284a0       ??4DXLIGHT@@QAEXABV0@@Z    004294a0 f i EngineLib_A:DxLightMan.obj
 0001:00028530       ?FrameMove@DxLightMan@@UAEJMM@Z 00429530 f   EngineLib_A:DxLightMan.obj
 0001:00028930       ?MakeAABBTree@DxLightMan@@QAEXXZ 00429930 f   EngineLib_A:DxLightMan.obj
 0001:00028bd0       ?_Erase@?$_Tree@V?$_Tmap_traits@MPAVDXLIGHT@@U?$less@M@std@@V?$allocator@U?$pair@$$CBMPAVDXLIGHT@@@std@@@3@$00@std@@@std@@IAEXPAU_Node@?$_Tree_nod@V?$_Tmap_traits@MPAVDXLIGHT@@U?$less@M@std@@V?$allocator@U?$pair@$$CBMPAVDXLIGHT@@@std@@@3@$00@std@@@2@@Z 00429bd0 f i EngineLib_A:DxLightMan.obj
 0001:00028c10       ?_Buynode@?$_Tree@V?$_Tmap_traits@HHU?$less@H@std@@V?$allocator@U?$pair@$$CBHH@std@@@2@$0A@@std@@@std@@IAEPAU_Node@?$_Tree_nod@V?$_Tmap_traits@HHU?$less@H@std@@V?$allocator@U?$pair@$$CBHH@std@@@2@$0A@@std@@@2@XZ 00429c10 f i NetServerLib_A:s_CClientManager.obj
 0001:00028c10       ?_Buynode@?$_Tree@V?$_Tmap_traits@KUOBJQUADTemp@@U?$less@K@std@@V?$allocator@U?$pair@$$CBKUOBJQUADTemp@@@std@@@3@$0A@@std@@@std@@IAEPAU_Node@?$_Tree_nod@V?$_Tmap_traits@KUOBJQUADTemp@@U?$less@K@std@@V?$allocator@U?$pair@$$CBKUOBJQUADTemp@@@std@@@3@$0A@@std@@@2@XZ 00429c10 f i EngineLib_A:DxQUADTree.obj
 0001:00028c10       ?_Buynode@?$_Tree@V?$_Tmap_traits@KKU?$less@K@std@@V?$allocator@U?$pair@$$CBKK@std@@@2@$00@std@@@std@@IAEPAU_Node@?$_Tree_nod@V?$_Tmap_traits@KKU?$less@K@std@@V?$allocator@U?$pair@$$CBKK@std@@@2@$00@std@@@2@XZ 00429c10 f i EngineLib_A:NsSMeshSceneGraph.obj
 0001:00028c10       ?_Buynode@?$_Tree@V?$_Tmap_traits@V?$CStringT@DV?$StrTraitMFC_DLL@DV?$ChTraitsCRT@D@ATL@@@@@ATL@@PAVDxSkinPieceRootData@@U?$less@V?$CStringT@DV?$StrTraitMFC_DLL@DV?$ChTraitsCRT@D@ATL@@@@@ATL@@@std@@V?$allocator@U?$pair@$$CBV?$CStringT@DV?$StrTraitMFC_DLL@DV?$ChTraitsCRT@D@ATL@@@@@ATL@@PAVDxSkinPieceRootData@@@std@@@5@$0A@@std@@@std@@IAEPAU_Node@?$_Tree_nod@V?$_Tmap_traits@V?$CStringT@DV?$StrTraitMFC_DLL@DV?$ChTraitsCRT@D@ATL@@@@@ATL@@PAVDxSkinPieceRootData@@U?$less@V?$CStringT@DV?$StrTraitMFC_DLL@DV?$ChTraitsCRT@D@ATL@@@@@ATL@@@std@@V?$allocator@U?$pair@$$CBV?$CStringT@DV?$StrTraitMFC_DLL@DV?$ChTraitsCRT@D@ATL@@@@@ATL@@PAVDxSkinPieceRootData@@@std@@@5@$0A@@std@@@2@XZ 00429c10 f i EngineLib_A:DxSkinPieceRootData.obj
 0001:00028c10       ?_Buynode@?$_Tree@V?$_Tmap_traits@MPAVDXLIGHT@@U?$less@M@std@@V?$allocator@U?$pair@$$CBMPAVDXLIGHT@@@std@@@3@$00@std@@@std@@IAEPAU_Node@?$_Tree_nod@V?$_Tmap_traits@MPAVDXLIGHT@@U?$less@M@std@@V?$allocator@U?$pair@$$CBMPAVDXLIGHT@@@std@@@3@$00@std@@@2@XZ 00429c10 f i EngineLib_A:DxLightMan.obj
 0001:00028c50       ?_Buynode@?$_Tree@V?$_Tmap_traits@HHU?$less@H@std@@V?$allocator@U?$pair@$$CBHH@std@@@2@$0A@@std@@@std@@IAEPAU_Node@?$_Tree_nod@V?$_Tmap_traits@HHU?$less@H@std@@V?$allocator@U?$pair@$$CBHH@std@@@2@$0A@@std@@@2@PAU342@00ABU?$pair@$$CBHH@2@D@Z 00429c50 f i NetServerLib_A:s_CClientManager.obj
 0001:00028c50       ?_Buynode@?$_Tree@V?$_Tmap_traits@U?$pair@GG@std@@PAUSINVENITEM@@U?$less@U?$pair@GG@std@@@2@V?$allocator@U?$pair@$$CBU?$pair@GG@std@@PAUSINVENITEM@@@std@@@2@$0A@@std@@@std@@IAEPAU_Node@?$_Tree_nod@V?$_Tmap_traits@U?$pair@GG@std@@PAUSINVENITEM@@U?$less@U?$pair@GG@std@@@2@V?$allocator@U?$pair@$$CBU?$pair@GG@std@@PAUSINVENITEM@@@std@@@2@$0A@@std@@@2@PAU342@00ABU?$pair@$$CBU?$pair@GG@std@@PAUSINVENITEM@@@2@D@Z 00429c50 f i RanClientLib_A:GLInventory.obj
 0001:00028c50       ?_Buynode@?$_Tree@V?$_Tmap_traits@MPAVDXLIGHT@@U?$less@M@std@@V?$allocator@U?$pair@$$CBMPAVDXLIGHT@@@std@@@3@$00@std@@@std@@IAEPAU_Node@?$_Tree_nod@V?$_Tmap_traits@MPAVDXLIGHT@@U?$less@M@std@@V?$allocator@U?$pair@$$CBMPAVDXLIGHT@@@std@@@3@$00@std@@@2@PAU342@00ABU?$pair@$$CBMPAVDXLIGHT@@@2@D@Z 00429c50 f i EngineLib_A:DxLightMan.obj
 0001:00028c90       ?SerialData@DXLIGHT@@UAEXXZ 00429c90 f   EngineLib_A:DxLightMan.obj
 0001:00028cd0       ?_Insert@?$_Tree@V?$_Tmap_traits@MPAVDXLIGHT@@U?$less@M@std@@V?$allocator@U?$pair@$$CBMPAVDXLIGHT@@@std@@@3@$00@std@@@std@@IAE?AViterator@12@_NPAU_Node@?$_Tree_nod@V?$_Tmap_traits@MPAVDXLIGHT@@U?$less@M@std@@V?$allocator@U?$pair@$$CBMPAVDXLIGHT@@@std@@@3@$00@std@@@2@ABU?$pair@$$CBMPAVDXLIGHT@@@2@@Z 00429cd0 f i EngineLib_A:DxLightMan.obj
 0001:00028e90       ?erase@?$_Tree@V?$_Tmap_traits@MPAVDXLIGHT@@U?$less@M@std@@V?$allocator@U?$pair@$$CBMPAVDXLIGHT@@@std@@@3@$00@std@@@std@@QAE?AViterator@12@V312@@Z 00429e90 f i EngineLib_A:DxLightMan.obj
 0001:00029160       ?insert@?$_Tree@V?$_Tmap_traits@MPAVDXLIGHT@@U?$less@M@std@@V?$allocator@U?$pair@$$CBMPAVDXLIGHT@@@std@@@3@$00@std@@@std@@QAE?AU?$pair@Viterator@?$_Tree@V?$_Tmap_traits@MPAVDXLIGHT@@U?$less@M@std@@V?$allocator@U?$pair@$$CBMPAVDXLIGHT@@@std@@@3@$00@std@@@std@@_N@2@ABU?$pair@$$CBMPAVDXLIGHT@@@2@@Z 0042a160 f i EngineLib_A:DxLightMan.obj
 0001:000291d0       ?erase@?$_Tree@V?$_Tmap_traits@MPAVDXLIGHT@@U?$less@M@std@@V?$allocator@U?$pair@$$CBMPAVDXLIGHT@@@std@@@3@$00@std@@@std@@QAE?AViterator@12@V312@0@Z 0042a1d0 f i EngineLib_A:DxLightMan.obj
 0001:00029290       ?CleanUp@DxLightMan@@QAEXXZ 0042a290 f   EngineLib_A:DxLightMan.obj
 0001:00029370       ?TreeRender@DxLightMan@@QAEXPAUDXLIGHTNODE@@PAUIDirect3DDevice9@@AAUCLIPVOLUME@@@Z 0042a370 f   EngineLib_A:DxLightMan.obj
 0001:000295b0       ?Render@DxLightMan@@UAEJPAUIDirect3DDevice9@@@Z 0042a5b0 f   EngineLib_A:DxLightMan.obj
 0001:000299a0       ??1?$multimap@MPAVDXLIGHT@@U?$less@M@std@@V?$allocator@U?$pair@$$CBMPAVDXLIGHT@@@std@@@3@@std@@QAE@XZ 0042a9a0 f i EngineLib_A:DxLightMan.obj
 0001:000299d0       ??1DxLightMan@@UAE@XZ      0042a9d0 f   EngineLib_A:DxLightMan.obj
 0001:00029af0       ??0DxLightMan@@QAE@XZ      0042aaf0 f   EngineLib_A:DxLightMan.obj
 0001:00029d40       ??_GDxLightMan@@UAEPAXI@Z  0042ad40 f i EngineLib_A:DxLightMan.obj
 0001:00029d40       ??_EDxLightMan@@UAEPAXI@Z  0042ad40 f i EngineLib_A:DxLightMan.obj
 0001:00029d60       ??1DxEffectRain@@UAE@XZ    0042ad60 f   EngineLib_A:DxWeatherManEx.obj
 0001:00029de0       ?DeleteDeviceObjects@DxEffectRain@@QAEJXZ 0042ade0 f   EngineLib_A:DxWeatherManEx.obj
 0001:00029eb0       ?StopSound@DxEffectRain@@QAEJXZ 0042aeb0 f   EngineLib_A:DxWeatherManEx.obj
 0001:00029f30       ??1DxEffectCloud@@UAE@XZ   0042af30 f   EngineLib_A:DxWeatherManEx.obj
 0001:00029f40       ??0DxEffectRain@@QAE@XZ    0042af40 f   EngineLib_A:DxWeatherManEx.obj
 0001:00029fd0       ??_GDxEffectRain@@UAEPAXI@Z 0042afd0 f i EngineLib_A:DxWeatherManEx.obj
 0001:00029fd0       ??_EDxEffectRain@@UAEPAXI@Z 0042afd0 f i EngineLib_A:DxWeatherManEx.obj
 0001:00029ff0       ?FrameMove@DxEffectRain@@QAEJMUD3DXVECTOR3@@MH@Z 0042aff0 f   EngineLib_A:DxWeatherManEx.obj
 0001:0002a7d0       ?Render@DxEffectRain@@QAEJPAUIDirect3DDevice9@@@Z 0042b7d0 f   EngineLib_A:DxWeatherManEx.obj
 0001:0002aad0       ??_EDxEffectCloud@@UAEPAXI@Z 0042bad0 f i EngineLib_A:DxWeatherManEx.obj
 0001:0002aad0       ??_GDxEffectCloud@@UAEPAXI@Z 0042bad0 f i EngineLib_A:DxWeatherManEx.obj
 0001:0002aaf0       ?InitDeviceObjects@DxEffectRain@@QAEJPAUIDirect3DDevice9@@UD3DXVECTOR3@@M@Z 0042baf0 f   EngineLib_A:DxWeatherManEx.obj
 0001:0002b290       ??0DxEffectCloud@@QAE@XZ   0042c290 f   EngineLib_A:DxWeatherManEx.obj
 0001:0002b300       ??0DxEffectSnow@@QAE@XZ    0042c300 f   EngineLib_A:DxWeatherManSnow.obj
 0001:0002b320       ??1DxEffectSnow@@UAE@XZ    0042c320 f   EngineLib_A:DxWeatherManSnow.obj
 0001:0002b330       ?FrameMove@DxEffectSnow@@QAEJMUD3DXVECTOR3@@MH@Z 0042c330 f   EngineLib_A:DxWeatherManSnow.obj
 0001:0002b410       ??0DxEffectLeaves@@QAE@XZ  0042c410 f   EngineLib_A:DxWeatherManSnow.obj
 0001:0002b430       ??1DxEffectLeaves@@UAE@XZ  0042c430 f   EngineLib_A:DxWeatherManSnow.obj
 0001:0002b440       ?FrameMove@DxEffectLeaves@@QAEJMUD3DXVECTOR3@@MH@Z 0042c440 f   EngineLib_A:DxWeatherManSnow.obj
 0001:0002b520       ??_GDxEffectSnow@@UAEPAXI@Z 0042c520 f i EngineLib_A:DxWeatherManSnow.obj
 0001:0002b520       ??_EDxEffectSnow@@UAEPAXI@Z 0042c520 f i EngineLib_A:DxWeatherManSnow.obj
 0001:0002b540       ??_EDxEffectLeaves@@UAEPAXI@Z 0042c540 f i EngineLib_A:DxWeatherManSnow.obj
 0001:0002b540       ??_GDxEffectLeaves@@UAEPAXI@Z 0042c540 f i EngineLib_A:DxWeatherManSnow.obj
 0001:0002b560       ??1SFileHandle@@UAE@XZ     0042c560 f   EngineLib_A:SFileSystem.obj
 0001:0002b580       ??_ESFileHandle@@UAEPAXI@Z 0042c580 f i EngineLib_A:SFileSystem.obj
 0001:0002b580       ??_GSFileHandle@@UAEPAXI@Z 0042c580 f i EngineLib_A:SFileSystem.obj
 0001:0002b5c0       ?clear@?$list@PAVSFileHandle@@V?$allocator@PAVSFileHandle@@@std@@@std@@QAEXXZ 0042c5c0 f i EngineLib_A:SFileSystem.obj
 0001:0002b5c0       ?clear@?$list@PAUANIMCONTNODE@@V?$allocator@PAUANIMCONTNODE@@@std@@@std@@QAEXXZ 0042c5c0 f i EngineLib_A:DxSkinAniControl.obj
 0001:0002b600       ?_Buynode@?$list@PAVSFileHandle@@V?$allocator@PAVSFileHandle@@@std@@@std@@IAEPAU_Node@?$_List_nod@PAVSFileHandle@@V?$allocator@PAVSFileHandle@@@std@@@2@XZ 0042c600 f i EngineLib_A:SFileSystem.obj
 0001:0002b600       ?_Buynode@?$list@PAUANIMCONTNODE@@V?$allocator@PAUANIMCONTNODE@@@std@@@std@@IAEPAU_Node@?$_List_nod@PAUANIMCONTNODE@@V?$allocator@PAUANIMCONTNODE@@@std@@@2@XZ 0042c600 f i EngineLib_A:DxSkinAniControl.obj
 0001:0002b620       ?CloseFileSystem@SFileSystem@@QAEXXZ 0042c620 f   EngineLib_A:SFileSystem.obj
 0001:0002b6e0       ??1?$list@PAUANIMCONTNODE@@V?$allocator@PAUANIMCONTNODE@@@std@@@std@@QAE@XZ 0042c6e0 f i EngineLib_A:DxSkinAniControl.obj
 0001:0002b6e0       ??1?$list@PAVSFileHandle@@V?$allocator@PAVSFileHandle@@@std@@@std@@QAE@XZ 0042c6e0 f i EngineLib_A:SFileSystem.obj
 0001:0002b700       ??1SFileSystem@@UAE@XZ     0042c700 f   EngineLib_A:SFileSystem.obj
 0001:0002b780       ??0SFileSystem@@QAE@XZ     0042c780 f   EngineLib_A:SFileSystem.obj
 0001:0002b810       ??_ESFileSystem@@UAEPAXI@Z 0042c810 f i EngineLib_A:SFileSystem.obj
 0001:0002b810       ??_GSFileSystem@@UAEPAXI@Z 0042c810 f i EngineLib_A:SFileSystem.obj
 0001:0002b830       ?_Max@?$_Tree@V?$_Tmap_traits@V?$basic_string@DU?$char_traits@D@std@@V?$allocator@D@2@@std@@Uunz_file_pos_s@@U?$less@V?$basic_string@DU?$char_traits@D@std@@V?$allocator@D@2@@std@@@2@V?$allocator@U?$pair@$$CBV?$basic_string@DU?$char_traits@D@std@@V?$allocator@D@2@@std@@Uunz_file_pos_s@@@std@@@2@$0A@@std@@@std@@KAPAU_Node@?$_Tree_nod@V?$_Tmap_traits@V?$basic_string@DU?$char_traits@D@std@@V?$allocator@D@2@@std@@Uunz_file_pos_s@@U?$less@V?$basic_string@DU?$char_traits@D@std@@V?$allocator@D@2@@std@@@2@V?$allocator@U?$pair@$$CBV?$basic_string@DU?$char_traits@D@std@@V?$allocator@D@2@@std@@Uunz_file_pos_s@@@std@@@2@$0A@@std@@@2@PAU342@@Z 0042c830 f i EngineLib_A:Unzipper.obj
 0001:0002b830       ?_Max@?$_Tree@V?$_Tmap_traits@USWavFileKey@@PAUSWavFileData@@U?$less@USWavFileKey@@@std@@V?$allocator@U?$pair@$$CBUSWavFileKey@@PAUSWavFileData@@@std@@@4@$0A@@std@@@std@@KAPAU_Node@?$_Tree_nod@V?$_Tmap_traits@USWavFileKey@@PAUSWavFileData@@U?$less@USWavFileKey@@@std@@V?$allocator@U?$pair@$$CBUSWavFileKey@@PAUSWavFileData@@@std@@@4@$0A@@std@@@2@PAU342@@Z 0042c830 f i EngineSoundLib_A:DxSoundMan.obj
 0001:0002b850       ?erase@?$_Tree@V?$_Tmap_traits@V?$basic_string@DU?$char_traits@D@std@@V?$allocator@D@2@@std@@Uunz_file_pos_s@@U?$less@V?$basic_string@DU?$char_traits@D@std@@V?$allocator@D@2@@std@@@2@V?$allocator@U?$pair@$$CBV?$basic_string@DU?$char_traits@D@std@@V?$allocator@D@2@@std@@Uunz_file_pos_s@@@std@@@2@$0A@@std@@@std@@QAE?AViterator@12@V312@@Z 0042c850 f i EngineLib_A:Unzipper.obj
 0001:0002bb30       ?_Erase@?$_Tree@V?$_Tmap_traits@V?$basic_string@DU?$char_traits@D@std@@V?$allocator@D@2@@std@@Uunz_file_pos_s@@U?$less@V?$basic_string@DU?$char_traits@D@std@@V?$allocator@D@2@@std@@@2@V?$allocator@U?$pair@$$CBV?$basic_string@DU?$char_traits@D@std@@V?$allocator@D@2@@std@@Uunz_file_pos_s@@@std@@@2@$0A@@std@@@std@@IAEXPAU_Node@?$_Tree_nod@V?$_Tmap_traits@V?$basic_string@DU?$char_traits@D@std@@V?$allocator@D@2@@std@@Uunz_file_pos_s@@U?$less@V?$basic_string@DU?$char_traits@D@std@@V?$allocator@D@2@@std@@@2@V?$allocator@U?$pair@$$CBV?$basic_string@DU?$char_traits@D@std@@V?$allocator@D@2@@std@@Uunz_file_pos_s@@@std@@@2@$0A@@std@@@2@@Z 0042cb30 f i EngineLib_A:Unzipper.obj
 0001:0002bb70       ?erase@?$_Tree@V?$_Tmap_traits@V?$basic_string@DU?$char_traits@D@std@@V?$allocator@D@2@@std@@Uunz_file_pos_s@@U?$less@V?$basic_string@DU?$char_traits@D@std@@V?$allocator@D@2@@std@@@2@V?$allocator@U?$pair@$$CBV?$basic_string@DU?$char_traits@D@std@@V?$allocator@D@2@@std@@Uunz_file_pos_s@@@std@@@2@$0A@@std@@@std@@QAE?AViterator@12@V312@0@Z 0042cb70 f i EngineLib_A:Unzipper.obj
 0001:0002bc30       ??1?$map@V?$basic_string@DU?$char_traits@D@std@@V?$allocator@D@2@@std@@Uunz_file_pos_s@@U?$less@V?$basic_string@DU?$char_traits@D@std@@V?$allocator@D@2@@std@@@2@V?$allocator@U?$pair@$$CBV?$basic_string@DU?$char_traits@D@std@@V?$allocator@D@2@@std@@Uunz_file_pos_s@@@std@@@2@@std@@QAE@XZ 0042cc30 f i EngineLib_A:Unzipper.obj
 0001:0002bc60       ??0?$map@V?$basic_string@DU?$char_traits@D@std@@V?$allocator@D@2@@std@@Uunz_file_pos_s@@U?$less@V?$basic_string@DU?$char_traits@D@std@@V?$allocator@D@2@@std@@@2@V?$allocator@U?$pair@$$CBV?$basic_string@DU?$char_traits@D@std@@V?$allocator@D@2@@std@@Uunz_file_pos_s@@@std@@@2@@std@@QAE@XZ 0042cc60 f i EngineLib_A:Unzipper.obj
 0001:0002bc90       ??$hash_value@DU?$char_traits@D@std@@V?$allocator@D@2@@stdext@@YAIABV?$basic_string@DU?$char_traits@D@std@@V?$allocator@D@2@@std@@@Z 0042cc90 f i EngineLib_A:DxEffSinglePropGMan.obj
 0001:0002bcd0       ?RENDERSPHERE@EDITMESHS@@YAXPAUIDirect3DDevice9@@U_D3DVECTOR@@MPAUD3DXMATRIX@@K@Z 0042ccd0 f   EngineLib_A:EditMeshs.obj
 0001:0002be70       ?Create@DxObject@@UAEJPAUIDirect3DDevice9@@@Z 0042ce70 f i EngineLib_A:DxViewPort.obj
 0001:0002bec0       ?CleanUp@DxObject@@UAEJXZ  0042cec0 f i EngineLib_A:DxViewPort.obj
 0001:0002bee0       ?CollisionMap@DxViewPort@@QAE_NABUD3DXVECTOR3@@0AAU2@@Z 0042cee0 f   EngineLib_A:DxViewPort.obj
 0001:0002bf80       ?Calculate@?$DxDamper@UD3DXVECTOR3@@@@QAE?AUD3DXVECTOR3@@U2@M@Z 0042cf80 f i EngineLib_A:DxViewPort.obj
 0001:0002c040       ?Calculate@?$DxDamper@M@@QAEMMM@Z 0042d040 f i EngineLib_A:DxViewPort.obj
 0001:0002c080       ??0DxViewPort@@IAE@XZ      0042d080 f   EngineLib_A:DxViewPort.obj
 0001:0002c2f0       ?InitDeviceObjects@DxViewPort@@UAEJPAUIDirect3DDevice9@@PAUHWND__@@@Z 0042d2f0 f i EngineLib_A:DxViewPort.obj
 0001:0002c310       ??1DxViewPort@@UAE@XZ      0042d310 f   EngineLib_A:DxViewPort.obj
 0001:0002c320       ?SetViewTrans@DxViewPort@@QAEJAAUD3DXVECTOR3@@00@Z 0042d320 f   EngineLib_A:DxViewPort.obj
 0001:0002c3e0       ?CameraMove@DxViewPort@@QAEXAAUD3DXVECTOR3@@@Z 0042d3e0 f   EngineLib_A:DxViewPort.obj
 0001:0002c570       ?CameraRotation@DxViewPort@@QAEXAAUD3DXVECTOR3@@H@Z 0042d570 f   EngineLib_A:DxViewPort.obj
 0001:0002c920       ?ComputeBoundBox@DxViewPort@@QAEXPAUD3DXVECTOR3@@@Z 0042d920 f   EngineLib_A:DxViewPort.obj
 0001:0002cb60       ?ComputeUpVecter@DxViewPort@@QAE?AUD3DXVECTOR3@@ABU2@0@Z 0042db60 f   EngineLib_A:DxViewPort.obj
 0001:0002ccc0       ?ComputeClipPoint@DxViewPort@@QAEXXZ 0042dcc0 f   EngineLib_A:DxViewPort.obj
 0001:0002cf70       ?ComputeClipVolume@DxViewPort@@QAEXAAUCLIPVOLUME@@@Z 0042df70 f   EngineLib_A:DxViewPort.obj
 0001:0002d6d0       ?GetMouseTargetPosWnd@DxViewPort@@QAEHAAUD3DXVECTOR3@@@Z 0042e6d0 f   EngineLib_A:DxViewPort.obj
 0001:0002d960       ??_EDxViewPort@@UAEPAXI@Z  0042e960 f i EngineLib_A:DxViewPort.obj
 0001:0002d960       ??_GDxViewPort@@UAEPAXI@Z  0042e960 f i EngineLib_A:DxViewPort.obj
 0001:0002d980       ?CameraZoom@DxViewPort@@QAEXM@Z 0042e980 f   EngineLib_A:DxViewPort.obj
 0001:0002dde0       ?FrameMove@DxViewPort@@UAEJMM@Z 0042ede0 f   EngineLib_A:DxViewPort.obj
 0001:0002e340       ?GetInstance@DxViewPort@@SAAAV1@XZ 0042f340 f   EngineLib_A:DxViewPort.obj
 0001:0002e380       ?D3DUtil_InitMaterial@@YAXAAU_D3DMATERIAL9@@MMMM@Z 0042f380 f   EngineLib_A:DXUTmisc.obj
 0001:0002e3d0       ?D3DUtil_InitLight@@YAXAAU_D3DLIGHT9@@W4_D3DLIGHTTYPE@@MMM@Z 0042f3d0 f   EngineLib_A:DXUTmisc.obj
 0001:0002e440       ??0TextureContainer@TextureManager@@QAE@XZ 0042f440 f   EngineLib_A:TextureManager.obj
 0001:0002e480       ?IsEncrypt@TextureContainer@TextureManager@@QAE_NPBD@Z 0042f480 f   EngineLib_A:TextureManager.obj
 0001:0002e510       ?LoadImageData@TextureContainer@TextureManager@@IAEJPAUIDirect3DDevice9@@HH@Z 0042f510 f   EngineLib_A:TextureManager.obj
 0001:0002eca0       ?_Rrotate@?$_Tree@V?$_Tmap_traits@V?$basic_string@DU?$char_traits@D@std@@V?$allocator@D@2@@std@@PAVDxSimMesh@@U?$less@V?$basic_string@DU?$char_traits@D@std@@V?$allocator@D@2@@std@@@2@V?$allocator@U?$pair@$$CBV?$basic_string@DU?$char_traits@D@std@@V?$allocator@D@2@@std@@PAVDxSimMesh@@@std@@@2@$0A@@std@@@std@@IAEXPAU_Node@?$_Tree_nod@V?$_Tmap_traits@V?$basic_string@DU?$char_traits@D@std@@V?$allocator@D@2@@std@@PAVDxSimMesh@@U?$less@V?$basic_string@DU?$char_traits@D@std@@V?$allocator@D@2@@std@@@2@V?$allocator@U?$pair@$$CBV?$basic_string@DU?$char_traits@D@std@@V?$allocator@D@2@@std@@PAVDxSimMesh@@@std@@@2@$0A@@std@@@2@@Z 0042fca0 f i EngineLib_A:DxSimpleMeshMan.obj
 0001:0002eca0       ?_Rrotate@?$_Tree@V?$_Tmap_traits@V?$basic_string@DU?$char_traits@D@std@@V?$allocator@D@2@@std@@KU?$less@V?$basic_string@DU?$char_traits@D@std@@V?$allocator@D@2@@std@@@2@V?$allocator@U?$pair@$$CBV?$basic_string@DU?$char_traits@D@std@@V?$allocator@D@2@@std@@K@std@@@2@$0A@@std@@@std@@IAEXPAU_Node@?$_Tree_nod@V?$_Tmap_traits@V?$basic_string@DU?$char_traits@D@std@@V?$allocator@D@2@@std@@KU?$less@V?$basic_string@DU?$char_traits@D@std@@V?$allocator@D@2@@std@@@2@V?$allocator@U?$pair@$$CBV?$basic_string@DU?$char_traits@D@std@@V?$allocator@D@2@@std@@K@std@@@2@$0A@@std@@@2@@Z 0042fca0 f i EngineLib_A:TextureManager.obj
 0001:0002eca0       ?_Rrotate@?$_Tree@V?$_Tmap_traits@V?$basic_string@DU?$char_traits@D@std@@V?$allocator@D@2@@std@@PAVTextureContainer@TextureManager@@U?$less@V?$basic_string@DU?$char_traits@D@std@@V?$allocator@D@2@@std@@@2@V?$allocator@U?$pair@$$CBV?$basic_string@DU?$char_traits@D@std@@V?$allocator@D@2@@std@@PAVTextureContainer@TextureManager@@@std@@@2@$0A@@std@@@std@@IAEXPAU_Node@?$_Tree_nod@V?$_Tmap_traits@V?$basic_string@DU?$char_traits@D@std@@V?$allocator@D@2@@std@@PAVTextureContainer@TextureManager@@U?$less@V?$basic_string@DU?$char_traits@D@std@@V?$allocator@D@2@@std@@@2@V?$allocator@U?$pair@$$CBV?$basic_string@DU?$char_traits@D@std@@V?$allocator@D@2@@std@@PAVTextureContainer@TextureManager@@@std@@@2@$0A@@std@@@2@@Z 0042fca0 f i EngineLib_A:TextureManager.obj
 0001:0002eca0       ?_Rrotate@?$_Tree@V?$_Tmap_traits@V?$basic_string@DU?$char_traits@D@std@@V?$allocator@D@2@@std@@PAUDxSkinPiece@@U?$less@V?$basic_string@DU?$char_traits@D@std@@V?$allocator@D@2@@std@@@2@V?$allocator@U?$pair@$$CBV?$basic_string@DU?$char_traits@D@std@@V?$allocator@D@2@@std@@PAUDxSkinPiece@@@std@@@2@$0A@@std@@@std@@IAEXPAU_Node@?$_Tree_nod@V?$_Tmap_traits@V?$basic_string@DU?$char_traits@D@std@@V?$allocator@D@2@@std@@PAUDxSkinPiece@@U?$less@V?$basic_string@DU?$char_traits@D@std@@V?$allocator@D@2@@std@@@2@V?$allocator@U?$pair@$$CBV?$basic_string@DU?$char_traits@D@std@@V?$allocator@D@2@@std@@PAUDxSkinPiece@@@std@@@2@$0A@@std@@@2@@Z 0042fca0 f i EngineLib_A:DxSkinPieceContainer.obj
 0001:0002eca0       ?_Rrotate@?$_Tree@V?$_Tmap_traits@V?$basic_string@DU?$char_traits@D@std@@V?$allocator@D@2@@std@@PAUSTATICDATA@NSSTATICMESH@@U?$less@V?$basic_string@DU?$char_traits@D@std@@V?$allocator@D@2@@std@@@2@V?$allocator@U?$pair@$$CBV?$basic_string@DU?$char_traits@D@std@@V?$allocator@D@2@@std@@PAUSTATICDATA@NSSTATICMESH@@@std@@@2@$0A@@std@@@std@@IAEXPAU_Node@?$_Tree_nod@V?$_Tmap_traits@V?$basic_string@DU?$char_traits@D@std@@V?$allocator@D@2@@std@@PAUSTATICDATA@NSSTATICMESH@@U?$less@V?$basic_string@DU?$char_traits@D@std@@V?$allocator@D@2@@std@@@2@V?$allocator@U?$pair@$$CBV?$basic_string@DU?$char_traits@D@std@@V?$allocator@D@2@@std@@PAUSTATICDATA@NSSTATICMESH@@@std@@@2@$0A@@std@@@2@@Z 0042fca0 f i EngineLib_A:DxStaticMesh.obj
 0001:0002ed00       ?_Inc@const_iterator@?$_Tree@V?$_Tmap_traits@V?$basic_string@DU?$char_traits@D@std@@V?$allocator@D@2@@std@@PAVDxSimMesh@@U?$less@V?$basic_string@DU?$char_traits@D@std@@V?$allocator@D@2@@std@@@2@V?$allocator@U?$pair@$$CBV?$basic_string@DU?$char_traits@D@std@@V?$allocator@D@2@@std@@PAVDxSimMesh@@@std@@@2@$0A@@std@@@std@@QAEXXZ 0042fd00 f i EngineLib_A:DxSimpleMeshMan.obj
 0001:0002ed00       ?_Inc@const_iterator@?$_Tree@V?$_Tmap_traits@V?$basic_string@DU?$char_traits@D@std@@V?$allocator@D@2@@std@@KU?$less@V?$basic_string@DU?$char_traits@D@std@@V?$allocator@D@2@@std@@@2@V?$allocator@U?$pair@$$CBV?$basic_string@DU?$char_traits@D@std@@V?$allocator@D@2@@std@@K@std@@@2@$0A@@std@@@std@@QAEXXZ 0042fd00 f i EngineLib_A:TextureManager.obj
 0001:0002ed00       ?_Inc@const_iterator@?$_Tree@V?$_Tmap_traits@V?$basic_string@DU?$char_traits@D@std@@V?$allocator@D@2@@std@@PAVTextureContainer@TextureManager@@U?$less@V?$basic_string@DU?$char_traits@D@std@@V?$allocator@D@2@@std@@@2@V?$allocator@U?$pair@$$CBV?$basic_string@DU?$char_traits@D@std@@V?$allocator@D@2@@std@@PAVTextureContainer@TextureManager@@@std@@@2@$0A@@std@@@std@@QAEXXZ 0042fd00 f i EngineLib_A:TextureManager.obj
 0001:0002ed00       ?_Inc@const_iterator@?$_Tree@V?$_Tmap_traits@V?$basic_string@DU?$char_traits@D@std@@V?$allocator@D@2@@std@@PAUDxSkinPiece@@U?$less@V?$basic_string@DU?$char_traits@D@std@@V?$allocator@D@2@@std@@@2@V?$allocator@U?$pair@$$CBV?$basic_string@DU?$char_traits@D@std@@V?$allocator@D@2@@std@@PAUDxSkinPiece@@@std@@@2@$0A@@std@@@std@@QAEXXZ 0042fd00 f i EngineLib_A:DxSkinPieceContainer.obj
 0001:0002ed00       ?_Inc@const_iterator@?$_Tree@V?$_Tmap_traits@V?$basic_string@DU?$char_traits@D@std@@V?$allocator@D@2@@std@@PAUSTATICDATA@NSSTATICMESH@@U?$less@V?$basic_string@DU?$char_traits@D@std@@V?$allocator@D@2@@std@@@2@V?$allocator@U?$pair@$$CBV?$basic_string@DU?$char_traits@D@std@@V?$allocator@D@2@@std@@PAUSTATICDATA@NSSTATICMESH@@@std@@@2@$0A@@std@@@std@@QAEXXZ 0042fd00 f i EngineLib_A:DxStaticMesh.obj
 0001:0002ed60       ?_Dec@const_iterator@?$_Tree@V?$_Tmap_traits@V?$basic_string@DU?$char_traits@D@std@@V?$allocator@D@2@@std@@KU?$less@V?$basic_string@DU?$char_traits@D@std@@V?$allocator@D@2@@std@@@2@V?$allocator@U?$pair@$$CBV?$basic_string@DU?$char_traits@D@std@@V?$allocator@D@2@@std@@K@std@@@2@$0A@@std@@@std@@QAEXXZ 0042fd60 f i EngineLib_A:TextureManager.obj
 0001:0002ed60       ?_Dec@const_iterator@?$_Tree@V?$_Tmap_traits@V?$basic_string@DU?$char_traits@D@std@@V?$allocator@D@2@@std@@PAVTextureContainer@TextureManager@@U?$less@V?$basic_string@DU?$char_traits@D@std@@V?$allocator@D@2@@std@@@2@V?$allocator@U?$pair@$$CBV?$basic_string@DU?$char_traits@D@std@@V?$allocator@D@2@@std@@PAVTextureContainer@TextureManager@@@std@@@2@$0A@@std@@@std@@QAEXXZ 0042fd60 f i EngineLib_A:TextureManager.obj
 0001:0002edc0       ??1TextureContainer@TextureManager@@QAE@XZ 0042fdc0 f   EngineLib_A:TextureManager.obj
 0001:0002eec0       ?LoadTexture@TextureContainer@TextureManager@@QAEJPBDPAUIDirect3DDevice9@@KKH@Z 0042fec0 f   EngineLib_A:TextureManager.obj
 0001:0002ef00       ?_Lbound@?$_Tree@V?$_Tmap_traits@V?$basic_string@DU?$char_traits@D@std@@V?$allocator@D@2@@std@@PAVDxSimMesh@@U?$less@V?$basic_string@DU?$char_traits@D@std@@V?$allocator@D@2@@std@@@2@V?$allocator@U?$pair@$$CBV?$basic_string@DU?$char_traits@D@std@@V?$allocator@D@2@@std@@PAVDxSimMesh@@@std@@@2@$0A@@std@@@std@@IBEPAU_Node@?$_Tree_nod@V?$_Tmap_traits@V?$basic_string@DU?$char_traits@D@std@@V?$allocator@D@2@@std@@PAVDxSimMesh@@U?$less@V?$basic_string@DU?$char_traits@D@std@@V?$allocator@D@2@@std@@@2@V?$allocator@U?$pair@$$CBV?$basic_string@DU?$char_traits@D@std@@V?$allocator@D@2@@std@@PAVDxSimMesh@@@std@@@2@$0A@@std@@@2@ABV?$basic_string@DU?$char_traits@D@std@@V?$allocator@D@2@@2@@Z 0042ff00 f i EngineLib_A:DxSimpleMeshMan.obj
 0001:0002ef00       ?_Lbound@?$_Tree@V?$_Tmap_traits@V?$basic_string@DU?$char_traits@D@std@@V?$allocator@D@2@@std@@PAUDxSkinPiece@@U?$less@V?$basic_string@DU?$char_traits@D@std@@V?$allocator@D@2@@std@@@2@V?$allocator@U?$pair@$$CBV?$basic_string@DU?$char_traits@D@std@@V?$allocator@D@2@@std@@PAUDxSkinPiece@@@std@@@2@$0A@@std@@@std@@IBEPAU_Node@?$_Tree_nod@V?$_Tmap_traits@V?$basic_string@DU?$char_traits@D@std@@V?$allocator@D@2@@std@@PAUDxSkinPiece@@U?$less@V?$basic_string@DU?$char_traits@D@std@@V?$allocator@D@2@@std@@@2@V?$allocator@U?$pair@$$CBV?$basic_string@DU?$char_traits@D@std@@V?$allocator@D@2@@std@@PAUDxSkinPiece@@@std@@@2@$0A@@std@@@2@ABV?$basic_string@DU?$char_traits@D@std@@V?$allocator@D@2@@2@@Z 0042ff00 f i EngineLib_A:DxSkinPieceContainer.obj
 0001:0002ef00       ?_Lbound@?$_Tree@V?$_Tmap_traits@V?$basic_string@DU?$char_traits@D@std@@V?$allocator@D@2@@std@@PAVTextureContainer@TextureManager@@U?$less@V?$basic_string@DU?$char_traits@D@std@@V?$allocator@D@2@@std@@@2@V?$allocator@U?$pair@$$CBV?$basic_string@DU?$char_traits@D@std@@V?$allocator@D@2@@std@@PAVTextureContainer@TextureManager@@@std@@@2@$0A@@std@@@std@@IBEPAU_Node@?$_Tree_nod@V?$_Tmap_traits@V?$basic_string@DU?$char_traits@D@std@@V?$allocator@D@2@@std@@PAVTextureContainer@TextureManager@@U?$less@V?$basic_string@DU?$char_traits@D@std@@V?$allocator@D@2@@std@@@2@V?$allocator@U?$pair@$$CBV?$basic_string@DU?$char_traits@D@std@@V?$allocator@D@2@@std@@PAVTextureContainer@TextureManager@@@std@@@2@$0A@@std@@@2@ABV?$basic_string@DU?$char_traits@D@std@@V?$allocator@D@2@@2@@Z 0042ff00 f i EngineLib_A:TextureManager.obj
 0001:0002ef00       ?_Lbound@?$_Tree@V?$_Tmap_traits@V?$basic_string@DU?$char_traits@D@std@@V?$allocator@D@2@@std@@KU?$less@V?$basic_string@DU?$char_traits@D@std@@V?$allocator@D@2@@std@@@2@V?$allocator@U?$pair@$$CBV?$basic_string@DU?$char_traits@D@std@@V?$allocator@D@2@@std@@K@std@@@2@$0A@@std@@@std@@IBEPAU_Node@?$_Tree_nod@V?$_Tmap_traits@V?$basic_string@DU?$char_traits@D@std@@V?$allocator@D@2@@std@@KU?$less@V?$basic_string@DU?$char_traits@D@std@@V?$allocator@D@2@@std@@@2@V?$allocator@U?$pair@$$CBV?$basic_string@DU?$char_traits@D@std@@V?$allocator@D@2@@std@@K@std@@@2@$0A@@std@@@2@ABV?$basic_string@DU?$char_traits@D@std@@V?$allocator@D@2@@2@@Z 0042ff00 f i EngineLib_A:TextureManager.obj
 0001:0002ef50       ?_Buynode@?$_Tree@V?$_Tmap_traits@V?$basic_string@DU?$char_traits@D@std@@V?$allocator@D@2@@std@@PAUSTATICDATA@NSSTATICMESH@@U?$less@V?$basic_string@DU?$char_traits@D@std@@V?$allocator@D@2@@std@@@2@V?$allocator@U?$pair@$$CBV?$basic_string@DU?$char_traits@D@std@@V?$allocator@D@2@@std@@PAUSTATICDATA@NSSTATICMESH@@@std@@@2@$0A@@std@@@std@@IAEPAU_Node@?$_Tree_nod@V?$_Tmap_traits@V?$basic_string@DU?$char_traits@D@std@@V?$allocator@D@2@@std@@PAUSTATICDATA@NSSTATICMESH@@U?$less@V?$basic_string@DU?$char_traits@D@std@@V?$allocator@D@2@@std@@@2@V?$allocator@U?$pair@$$CBV?$basic_string@DU?$char_traits@D@std@@V?$allocator@D@2@@std@@PAUSTATICDATA@NSSTATICMESH@@@std@@@2@$0A@@std@@@2@XZ 0042ff50 f i EngineLib_A:DxStaticMesh.obj
 0001:0002ef50       ?_Buynode@?$_Tree@V?$_Tmap_traits@V?$basic_string@DU?$char_traits@D@std@@V?$allocator@D@2@@std@@PAUDxSkinPiece@@U?$less@V?$basic_string@DU?$char_traits@D@std@@V?$allocator@D@2@@std@@@2@V?$allocator@U?$pair@$$CBV?$basic_string@DU?$char_traits@D@std@@V?$allocator@D@2@@std@@PAUDxSkinPiece@@@std@@@2@$0A@@std@@@std@@IAEPAU_Node@?$_Tree_nod@V?$_Tmap_traits@V?$basic_string@DU?$char_traits@D@std@@V?$allocator@D@2@@std@@PAUDxSkinPiece@@U?$less@V?$basic_string@DU?$char_traits@D@std@@V?$allocator@D@2@@std@@@2@V?$allocator@U?$pair@$$CBV?$basic_string@DU?$char_traits@D@std@@V?$allocator@D@2@@std@@PAUDxSkinPiece@@@std@@@2@$0A@@std@@@2@XZ 0042ff50 f i EngineLib_A:DxSkinPieceContainer.obj
 0001:0002ef50       ?_Buynode@?$_Tree@V?$_Tmap_traits@V?$basic_string@DU?$char_traits@D@std@@V?$allocator@D@2@@std@@KU?$less@V?$basic_string@DU?$char_traits@D@std@@V?$allocator@D@2@@std@@@2@V?$allocator@U?$pair@$$CBV?$basic_string@DU?$char_traits@D@std@@V?$allocator@D@2@@std@@K@std@@@2@$0A@@std@@@std@@IAEPAU_Node@?$_Tree_nod@V?$_Tmap_traits@V?$basic_string@DU?$char_traits@D@std@@V?$allocator@D@2@@std@@KU?$less@V?$basic_string@DU?$char_traits@D@std@@V?$allocator@D@2@@std@@@2@V?$allocator@U?$pair@$$CBV?$basic_string@DU?$char_traits@D@std@@V?$allocator@D@2@@std@@K@std@@@2@$0A@@std@@@2@XZ 0042ff50 f i EngineLib_A:TextureManager.obj
 0001:0002ef50       ?_Buynode@?$_Tree@V?$_Tmap_traits@V?$basic_string@DU?$char_traits@D@std@@V?$allocator@D@2@@std@@PAVDxSimMesh@@U?$less@V?$basic_string@DU?$char_traits@D@std@@V?$allocator@D@2@@std@@@2@V?$allocator@U?$pair@$$CBV?$basic_string@DU?$char_traits@D@std@@V?$allocator@D@2@@std@@PAVDxSimMesh@@@std@@@2@$0A@@std@@@std@@IAEPAU_Node@?$_Tree_nod@V?$_Tmap_traits@V?$basic_string@DU?$char_traits@D@std@@V?$allocator@D@2@@std@@PAVDxSimMesh@@U?$less@V?$basic_string@DU?$char_traits@D@std@@V?$allocator@D@2@@std@@@2@V?$allocator@U?$pair@$$CBV?$basic_string@DU?$char_traits@D@std@@V?$allocator@D@2@@std@@PAVDxSimMesh@@@std@@@2@$0A@@std@@@2@XZ 0042ff50 f i EngineLib_A:DxSimpleMeshMan.obj
 0001:0002ef50       ?_Buynode@?$_Tree@V?$_Tmap_traits@V?$basic_string@DU?$char_traits@D@std@@V?$allocator@D@2@@std@@PAVTextureContainer@TextureManager@@U?$less@V?$basic_string@DU?$char_traits@D@std@@V?$allocator@D@2@@std@@@2@V?$allocator@U?$pair@$$CBV?$basic_string@DU?$char_traits@D@std@@V?$allocator@D@2@@std@@PAVTextureContainer@TextureManager@@@std@@@2@$0A@@std@@@std@@IAEPAU_Node@?$_Tree_nod@V?$_Tmap_traits@V?$basic_string@DU?$char_traits@D@std@@V?$allocator@D@2@@std@@PAVTextureContainer@TextureManager@@U?$less@V?$basic_string@DU?$char_traits@D@std@@V?$allocator@D@2@@std@@@2@V?$allocator@U?$pair@$$CBV?$basic_string@DU?$char_traits@D@std@@V?$allocator@D@2@@std@@PAVTextureContainer@TextureManager@@@std@@@2@$0A@@std@@@2@XZ 0042ff50 f i EngineLib_A:TextureManager.obj
 0001:0002ef90       ?_Buynode@?$_Tree@V?$_Tmap_traits@V?$basic_string@DU?$char_traits@D@std@@V?$allocator@D@2@@std@@KU?$less@V?$basic_string@DU?$char_traits@D@std@@V?$allocator@D@2@@std@@@2@V?$allocator@U?$pair@$$CBV?$basic_string@DU?$char_traits@D@std@@V?$allocator@D@2@@std@@K@std@@@2@$0A@@std@@@std@@IAEPAU_Node@?$_Tree_nod@V?$_Tmap_traits@V?$basic_string@DU?$char_traits@D@std@@V?$allocator@D@2@@std@@KU?$less@V?$basic_string@DU?$char_traits@D@std@@V?$allocator@D@2@@std@@@2@V?$allocator@U?$pair@$$CBV?$basic_string@DU?$char_traits@D@std@@V?$allocator@D@2@@std@@K@std@@@2@$0A@@std@@@2@PAU342@00ABU?$pair@$$CBV?$basic_string@DU?$char_traits@D@std@@V?$allocator@D@2@@std@@K@2@D@Z 0042ff90 f i EngineLib_A:TextureManager.obj
 0001:0002ef90       ?_Buynode@?$_Tree@V?$_Tmap_traits@V?$basic_string@DU?$char_traits@D@std@@V?$allocator@D@2@@std@@PAVTextureContainer@TextureManager@@U?$less@V?$basic_string@DU?$char_traits@D@std@@V?$allocator@D@2@@std@@@2@V?$allocator@U?$pair@$$CBV?$basic_string@DU?$char_traits@D@std@@V?$allocator@D@2@@std@@PAVTextureContainer@TextureManager@@@std@@@2@$0A@@std@@@std@@IAEPAU_Node@?$_Tree_nod@V?$_Tmap_traits@V?$basic_string@DU?$char_traits@D@std@@V?$allocator@D@2@@std@@PAVTextureContainer@TextureManager@@U?$less@V?$basic_string@DU?$char_traits@D@std@@V?$allocator@D@2@@std@@@2@V?$allocator@U?$pair@$$CBV?$basic_string@DU?$char_traits@D@std@@V?$allocator@D@2@@std@@PAVTextureContainer@TextureManager@@@std@@@2@$0A@@std@@@2@PAU342@00ABU?$pair@$$CBV?$basic_string@DU?$char_traits@D@std@@V?$allocator@D@2@@std@@PAVTextureContainer@TextureManager@@@2@D@Z 0042ff90 f i EngineLib_A:TextureManager.obj
 0001:0002f030       ?_Insert@?$_Tree@V?$_Tmap_traits@V?$basic_string@DU?$char_traits@D@std@@V?$allocator@D@2@@std@@PAVTextureContainer@TextureManager@@U?$less@V?$basic_string@DU?$char_traits@D@std@@V?$allocator@D@2@@std@@@2@V?$allocator@U?$pair@$$CBV?$basic_string@DU?$char_traits@D@std@@V?$allocator@D@2@@std@@PAVTextureContainer@TextureManager@@@std@@@2@$0A@@std@@@std@@IAE?AViterator@12@_NPAU_Node@?$_Tree_nod@V?$_Tmap_traits@V?$basic_string@DU?$char_traits@D@std@@V?$allocator@D@2@@std@@PAVTextureContainer@TextureManager@@U?$less@V?$basic_string@DU?$char_traits@D@std@@V?$allocator@D@2@@std@@@2@V?$allocator@U?$pair@$$CBV?$basic_string@DU?$char_traits@D@std@@V?$allocator@D@2@@std@@PAVTextureContainer@TextureManager@@@std@@@2@$0A@@std@@@2@ABU?$pair@$$CBV?$basic_string@DU?$char_traits@D@std@@V?$allocator@D@2@@std@@PAVTextureContainer@TextureManager@@@2@@Z 00430030 f i EngineLib_A:TextureManager.obj
 0001:0002f030       ?_Insert@?$_Tree@V?$_Tmap_traits@V?$basic_string@DU?$char_traits@D@std@@V?$allocator@D@2@@std@@KU?$less@V?$basic_string@DU?$char_traits@D@std@@V?$allocator@D@2@@std@@@2@V?$allocator@U?$pair@$$CBV?$basic_string@DU?$char_traits@D@std@@V?$allocator@D@2@@std@@K@std@@@2@$0A@@std@@@std@@IAE?AViterator@12@_NPAU_Node@?$_Tree_nod@V?$_Tmap_traits@V?$basic_string@DU?$char_traits@D@std@@V?$allocator@D@2@@std@@KU?$less@V?$basic_string@DU?$char_traits@D@std@@V?$allocator@D@2@@std@@@2@V?$allocator@U?$pair@$$CBV?$basic_string@DU?$char_traits@D@std@@V?$allocator@D@2@@std@@K@std@@@2@$0A@@std@@@2@ABU?$pair@$$CBV?$basic_string@DU?$char_traits@D@std@@V?$allocator@D@2@@std@@K@2@@Z 00430030 f i EngineLib_A:TextureManager.obj
 0001:0002f1f0       ?IsLoading_AddRef@TextureManager@@YAHPBD@Z 004301f0 f   EngineLib_A:TextureManager.obj
 0001:0002f2c0       ?GetCompleteTex_AddRef@TextureManager@@YAPAUIDirect3DTexture9@@PBD@Z 004302c0 f   EngineLib_A:TextureManager.obj
 0001:0002f390       ?erase@?$_Tree@V?$_Tmap_traits@V?$basic_string@DU?$char_traits@D@std@@V?$allocator@D@2@@std@@PAVTextureContainer@TextureManager@@U?$less@V?$basic_string@DU?$char_traits@D@std@@V?$allocator@D@2@@std@@@2@V?$allocator@U?$pair@$$CBV?$basic_string@DU?$char_traits@D@std@@V?$allocator@D@2@@std@@PAVTextureContainer@TextureManager@@@std@@@2@$0A@@std@@@std@@QAE?AViterator@12@V312@@Z 00430390 f i EngineLib_A:TextureManager.obj
 0001:0002f390       ?erase@?$_Tree@V?$_Tmap_traits@V?$basic_string@DU?$char_traits@D@std@@V?$allocator@D@2@@std@@KU?$less@V?$basic_string@DU?$char_traits@D@std@@V?$allocator@D@2@@std@@@2@V?$allocator@U?$pair@$$CBV?$basic_string@DU?$char_traits@D@std@@V?$allocator@D@2@@std@@K@std@@@2@$0A@@std@@@std@@QAE?AViterator@12@V312@@Z 00430390 f i EngineLib_A:TextureManager.obj
 0001:0002f670       ?_Erase@?$_Tree@V?$_Tmap_traits@V?$basic_string@DU?$char_traits@D@std@@V?$allocator@D@2@@std@@PAVTextureContainer@TextureManager@@U?$less@V?$basic_string@DU?$char_traits@D@std@@V?$allocator@D@2@@std@@@2@V?$allocator@U?$pair@$$CBV?$basic_string@DU?$char_traits@D@std@@V?$allocator@D@2@@std@@PAVTextureContainer@TextureManager@@@std@@@2@$0A@@std@@@std@@IAEXPAU_Node@?$_Tree_nod@V?$_Tmap_traits@V?$basic_string@DU?$char_traits@D@std@@V?$allocator@D@2@@std@@PAVTextureContainer@TextureManager@@U?$less@V?$basic_string@DU?$char_traits@D@std@@V?$allocator@D@2@@std@@@2@V?$allocator@U?$pair@$$CBV?$basic_string@DU?$char_traits@D@std@@V?$allocator@D@2@@std@@PAVTextureContainer@TextureManager@@@std@@@2@$0A@@std@@@2@@Z 00430670 f i EngineLib_A:TextureManager.obj
 0001:0002f6b0       ?insert@?$_Tree@V?$_Tmap_traits@V?$basic_string@DU?$char_traits@D@std@@V?$allocator@D@2@@std@@PAVTextureContainer@TextureManager@@U?$less@V?$basic_string@DU?$char_traits@D@std@@V?$allocator@D@2@@std@@@2@V?$allocator@U?$pair@$$CBV?$basic_string@DU?$char_traits@D@std@@V?$allocator@D@2@@std@@PAVTextureContainer@TextureManager@@@std@@@2@$0A@@std@@@std@@QAE?AU?$pair@Viterator@?$_Tree@V?$_Tmap_traits@V?$basic_string@DU?$char_traits@D@std@@V?$allocator@D@2@@std@@PAVTextureContainer@TextureManager@@U?$less@V?$basic_string@DU?$char_traits@D@std@@V?$allocator@D@2@@std@@@2@V?$allocator@U?$pair@$$CBV?$basic_string@DU?$char_traits@D@std@@V?$allocator@D@2@@std@@PAVTextureContainer@TextureManager@@@std@@@2@$0A@@std@@@std@@_N@2@ABU?$pair@$$CBV?$basic_string@DU?$char_traits@D@std@@V?$allocator@D@2@@std@@PAVTextureContainer@TextureManager@@@2@@Z 004306b0 f i EngineLib_A:TextureManager.obj
 0001:0002f6b0       ?insert@?$_Tree@V?$_Tmap_traits@V?$basic_string@DU?$char_traits@D@std@@V?$allocator@D@2@@std@@KU?$less@V?$basic_string@DU?$char_traits@D@std@@V?$allocator@D@2@@std@@@2@V?$allocator@U?$pair@$$CBV?$basic_string@DU?$char_traits@D@std@@V?$allocator@D@2@@std@@K@std@@@2@$0A@@std@@@std@@QAE?AU?$pair@Viterator@?$_Tree@V?$_Tmap_traits@V?$basic_string@DU?$char_traits@D@std@@V?$allocator@D@2@@std@@KU?$less@V?$basic_string@DU?$char_traits@D@std@@V?$allocator@D@2@@std@@@2@V?$allocator@U?$pair@$$CBV?$basic_string@DU?$char_traits@D@std@@V?$allocator@D@2@@std@@K@std@@@2@$0A@@std@@@std@@_N@2@ABU?$pair@$$CBV?$basic_string@DU?$char_traits@D@std@@V?$allocator@D@2@@std@@K@2@@Z 004306b0 f i EngineLib_A:TextureManager.obj
 0001:0002f790       ?_Erase@?$_Tree@V?$_Tmap_traits@V?$basic_string@DU?$char_traits@D@std@@V?$allocator@D@2@@std@@KU?$less@V?$basic_string@DU?$char_traits@D@std@@V?$allocator@D@2@@std@@@2@V?$allocator@U?$pair@$$CBV?$basic_string@DU?$char_traits@D@std@@V?$allocator@D@2@@std@@K@std@@@2@$0A@@std@@@std@@IAEXPAU_Node@?$_Tree_nod@V?$_Tmap_traits@V?$basic_string@DU?$char_traits@D@std@@V?$allocator@D@2@@std@@KU?$less@V?$basic_string@DU?$char_traits@D@std@@V?$allocator@D@2@@std@@@2@V?$allocator@U?$pair@$$CBV?$basic_string@DU?$char_traits@D@std@@V?$allocator@D@2@@std@@K@std@@@2@$0A@@std@@@2@@Z 00430790 f i EngineLib_A:TextureManager.obj
 0001:0002f7d0       ?SubLoadingMap@TextureManager@@YAHPBD@Z 004307d0 f   EngineLib_A:TextureManager.obj
 0001:0002f8e0       ?SubCompleteMap@TextureManager@@YAHPBD@Z 004308e0 f   EngineLib_A:TextureManager.obj
 0001:0002f9f0       ?ReleaseTexture@TextureManager@@YAJPBDAAPAUIDirect3DTexture9@@@Z 004309f0 f   EngineLib_A:TextureManager.obj
 0001:0002fa90       ?insert@?$_Tree@V?$_Tmap_traits@V?$basic_string@DU?$char_traits@D@std@@V?$allocator@D@2@@std@@PAVTextureContainer@TextureManager@@U?$less@V?$basic_string@DU?$char_traits@D@std@@V?$allocator@D@2@@std@@@2@V?$allocator@U?$pair@$$CBV?$basic_string@DU?$char_traits@D@std@@V?$allocator@D@2@@std@@PAVTextureContainer@TextureManager@@@std@@@2@$0A@@std@@@std@@QAE?AViterator@12@V312@ABU?$pair@$$CBV?$basic_string@DU?$char_traits@D@std@@V?$allocator@D@2@@std@@PAVTextureContainer@TextureManager@@@2@@Z 00430a90 f i EngineLib_A:TextureManager.obj
 0001:0002fa90       ?insert@?$_Tree@V?$_Tmap_traits@V?$basic_string@DU?$char_traits@D@std@@V?$allocator@D@2@@std@@KU?$less@V?$basic_string@DU?$char_traits@D@std@@V?$allocator@D@2@@std@@@2@V?$allocator@U?$pair@$$CBV?$basic_string@DU?$char_traits@D@std@@V?$allocator@D@2@@std@@K@std@@@2@$0A@@std@@@std@@QAE?AViterator@12@V312@ABU?$pair@$$CBV?$basic_string@DU?$char_traits@D@std@@V?$allocator@D@2@@std@@K@2@@Z 00430a90 f i EngineLib_A:TextureManager.obj
 0001:0002fc50       ?erase@?$_Tree@V?$_Tmap_traits@V?$basic_string@DU?$char_traits@D@std@@V?$allocator@D@2@@std@@PAVTextureContainer@TextureManager@@U?$less@V?$basic_string@DU?$char_traits@D@std@@V?$allocator@D@2@@std@@@2@V?$allocator@U?$pair@$$CBV?$basic_string@DU?$char_traits@D@std@@V?$allocator@D@2@@std@@PAVTextureContainer@TextureManager@@@std@@@2@$0A@@std@@@std@@QAE?AViterator@12@V312@0@Z 00430c50 f i EngineLib_A:TextureManager.obj
 0001:0002fd10       ??A?$map@V?$basic_string@DU?$char_traits@D@std@@V?$allocator@D@2@@std@@KU?$less@V?$basic_string@DU?$char_traits@D@std@@V?$allocator@D@2@@std@@@2@V?$allocator@U?$pair@$$CBV?$basic_string@DU?$char_traits@D@std@@V?$allocator@D@2@@std@@K@std@@@2@@std@@QAEAAKABV?$basic_string@DU?$char_traits@D@std@@V?$allocator@D@2@@1@@Z 00430d10 f i EngineLib_A:TextureManager.obj
 0001:0002fd10       ??A?$map@V?$basic_string@DU?$char_traits@D@std@@V?$allocator@D@2@@std@@PAVTextureContainer@TextureManager@@U?$less@V?$basic_string@DU?$char_traits@D@std@@V?$allocator@D@2@@std@@@2@V?$allocator@U?$pair@$$CBV?$basic_string@DU?$char_traits@D@std@@V?$allocator@D@2@@std@@PAVTextureContainer@TextureManager@@@std@@@2@@std@@QAEAAPAVTextureContainer@TextureManager@@ABV?$basic_string@DU?$char_traits@D@std@@V?$allocator@D@2@@1@@Z 00430d10 f i EngineLib_A:TextureManager.obj
 0001:0002fdb0       ?erase@?$_Tree@V?$_Tmap_traits@V?$basic_string@DU?$char_traits@D@std@@V?$allocator@D@2@@std@@KU?$less@V?$basic_string@DU?$char_traits@D@std@@V?$allocator@D@2@@std@@@2@V?$allocator@U?$pair@$$CBV?$basic_string@DU?$char_traits@D@std@@V?$allocator@D@2@@std@@K@std@@@2@$0A@@std@@@std@@QAE?AViterator@12@V312@0@Z 00430db0 f i EngineLib_A:TextureManager.obj
 0001:0002fe70       ?GetLoading2CompleteTex_AddRef@TextureManager@@YAPAUIDirect3DTexture9@@PBDPAVTextureContainer@1@@Z 00430e70 f   EngineLib_A:TextureManager.obj
 0001:0002ffc0       ?AddLoadingMap@TextureManager@@YAXPAVTextureContainer@1@PBD@Z 00430fc0 f   EngineLib_A:TextureManager.obj
 0001:00030050       ?AddCompleteMap@TextureManager@@YAPAUIDirect3DTexture9@@PAVTextureContainer@1@PBD@Z 00431050 f   EngineLib_A:TextureManager.obj
 0001:000300e0       ?AddTextureID@TextureManager@@YAXPBD@Z 004310e0 f   EngineLib_A:TextureManager.obj
 0001:000301e0       ?LoadTexture@TextureManager@@YAJPBDPAUIDirect3DDevice9@@AAPAUIDirect3DTexture9@@KKH@Z 004311e0 f   EngineLib_A:TextureManager.obj
 0001:00030410       ??1?$map@V?$basic_string@DU?$char_traits@D@std@@V?$allocator@D@2@@std@@PAVTextureContainer@TextureManager@@U?$less@V?$basic_string@DU?$char_traits@D@std@@V?$allocator@D@2@@std@@@2@V?$allocator@U?$pair@$$CBV?$basic_string@DU?$char_traits@D@std@@V?$allocator@D@2@@std@@PAVTextureContainer@TextureManager@@@std@@@2@@std@@QAE@XZ 00431410 f i EngineLib_A:TextureManager.obj
 0001:00030440       ??0?$map@V?$basic_string@DU?$char_traits@D@std@@V?$allocator@D@2@@std@@PAUSTATICDATA@NSSTATICMESH@@U?$less@V?$basic_string@DU?$char_traits@D@std@@V?$allocator@D@2@@std@@@2@V?$allocator@U?$pair@$$CBV?$basic_string@DU?$char_traits@D@std@@V?$allocator@D@2@@std@@PAUSTATICDATA@NSSTATICMESH@@@std@@@2@@std@@QAE@XZ 00431440 f i EngineLib_A:DxStaticMesh.obj
 0001:00030440       ??0?$map@V?$basic_string@DU?$char_traits@D@std@@V?$allocator@D@2@@std@@KU?$less@V?$basic_string@DU?$char_traits@D@std@@V?$allocator@D@2@@std@@@2@V?$allocator@U?$pair@$$CBV?$basic_string@DU?$char_traits@D@std@@V?$allocator@D@2@@std@@K@std@@@2@@std@@QAE@XZ 00431440 f i EngineLib_A:TextureManager.obj
 0001:00030440       ??0?$map@V?$basic_string@DU?$char_traits@D@std@@V?$allocator@D@2@@std@@PAVTextureContainer@TextureManager@@U?$less@V?$basic_string@DU?$char_traits@D@std@@V?$allocator@D@2@@std@@@2@V?$allocator@U?$pair@$$CBV?$basic_string@DU?$char_traits@D@std@@V?$allocator@D@2@@std@@PAVTextureContainer@TextureManager@@@std@@@2@@std@@QAE@XZ 00431440 f i EngineLib_A:TextureManager.obj
 0001:00030470       ??1?$map@V?$basic_string@DU?$char_traits@D@std@@V?$allocator@D@2@@std@@KU?$less@V?$basic_string@DU?$char_traits@D@std@@V?$allocator@D@2@@std@@@2@V?$allocator@U?$pair@$$CBV?$basic_string@DU?$char_traits@D@std@@V?$allocator@D@2@@std@@K@std@@@2@@std@@QAE@XZ 00431470 f i EngineLib_A:TextureManager.obj
 0001:000304a0       ??1ANIMCONTNODE@@QAE@XZ    004314a0 f   EngineLib_A:DxSkinAniControl.obj
 0001:000304c0       ??$for_each@Viterator@?$list@PAUANIMCONTNODE@@V?$allocator@PAUANIMCONTNODE@@@std@@@std@@UDeleteObject@?$CMemPool@UANIMCONTNODE@@@@@std@@YA?AUDeleteObject@?$CMemPool@UANIMCONTNODE@@@@Viterator@?$list@PAUANIMCONTNODE@@V?$allocator@PAUANIMCONTNODE@@@std@@@0@0U12@@Z 004314c0 f i EngineLib_A:DxSkinAniControl.obj
 0001:00030500       ??0?$CMemPool@UANIMCONTNODE@@@@QAE@XZ 00431500 f i EngineLib_A:DxSkinAniControl.obj
 0001:00030530       ??1?$CMemPool@UANIMCONTNODE@@@@QAE@XZ 00431530 f i EngineLib_A:DxSkinAniControl.obj
 0001:000305a0       ?IsLineTriangleCollision@COLLISION@@YAHPAUD3DXVECTOR3@@000000H@Z 004315a0 f   EngineLib_A:Collision.obj
 0001:00031eb0       ?CalculatePlane2Line@COLLISION@@YA_NABUD3DXPLANE@@ABUD3DXVECTOR3@@1AAU3@@Z 00432eb0 f   EngineLib_A:Collision.obj
 0001:00031fa0       ?IsCollision@DxAABBNode@@QAEHAAUD3DXVECTOR3@@0@Z 00432fa0 f   EngineLib_A:Collision.obj
 0001:00032330       ?_Min@?$_Tree@V?$_Tmap_traits@V?$basic_string@DU?$char_traits@D@std@@V?$allocator@D@2@@std@@PAVTextureContainer@TextureManager@@U?$less@V?$basic_string@DU?$char_traits@D@std@@V?$allocator@D@2@@std@@@2@V?$allocator@U?$pair@$$CBV?$basic_string@DU?$char_traits@D@std@@V?$allocator@D@2@@std@@PAVTextureContainer@TextureManager@@@std@@@2@$0A@@std@@@std@@KAPAU_Node@?$_Tree_nod@V?$_Tmap_traits@V?$basic_string@DU?$char_traits@D@std@@V?$allocator@D@2@@std@@PAVTextureContainer@TextureManager@@U?$less@V?$basic_string@DU?$char_traits@D@std@@V?$allocator@D@2@@std@@@2@V?$allocator@U?$pair@$$CBV?$basic_string@DU?$char_traits@D@std@@V?$allocator@D@2@@std@@PAVTextureContainer@TextureManager@@@std@@@2@$0A@@std@@@2@PAU342@@Z 00433330 f i EngineLib_A:TextureManager.obj
 0001:00032330       ?_Min@?$_Tree@V?$_Tmap_traits@V?$basic_string@DU?$char_traits@D@std@@V?$allocator@D@2@@std@@PAVDxSimMesh@@U?$less@V?$basic_string@DU?$char_traits@D@std@@V?$allocator@D@2@@std@@@2@V?$allocator@U?$pair@$$CBV?$basic_string@DU?$char_traits@D@std@@V?$allocator@D@2@@std@@PAVDxSimMesh@@@std@@@2@$0A@@std@@@std@@KAPAU_Node@?$_Tree_nod@V?$_Tmap_traits@V?$basic_string@DU?$char_traits@D@std@@V?$allocator@D@2@@std@@PAVDxSimMesh@@U?$less@V?$basic_string@DU?$char_traits@D@std@@V?$allocator@D@2@@std@@@2@V?$allocator@U?$pair@$$CBV?$basic_string@DU?$char_traits@D@std@@V?$allocator@D@2@@std@@PAVDxSimMesh@@@std@@@2@$0A@@std@@@2@PAU342@@Z 00433330 f i EngineLib_A:DxSimpleMeshMan.obj
 0001:00032330       ?_Min@?$_Tree@V?$_Tmap_traits@V?$basic_string@DU?$char_traits@D@std@@V?$allocator@D@2@@std@@PAUSTATICDATA@NSSTATICMESH@@U?$less@V?$basic_string@DU?$char_traits@D@std@@V?$allocator@D@2@@std@@@2@V?$allocator@U?$pair@$$CBV?$basic_string@DU?$char_traits@D@std@@V?$allocator@D@2@@std@@PAUSTATICDATA@NSSTATICMESH@@@std@@@2@$0A@@std@@@std@@KAPAU_Node@?$_Tree_nod@V?$_Tmap_traits@V?$basic_string@DU?$char_traits@D@std@@V?$allocator@D@2@@std@@PAUSTATICDATA@NSSTATICMESH@@U?$less@V?$basic_string@DU?$char_traits@D@std@@V?$allocator@D@2@@std@@@2@V?$allocator@U?$pair@$$CBV?$basic_string@DU?$char_traits@D@std@@V?$allocator@D@2@@std@@PAUSTATICDATA@NSSTATICMESH@@@std@@@2@$0A@@std@@@2@PAU342@@Z 00433330 f i EngineLib_A:DxStaticMesh.obj
 0001:00032330       ?_Min@?$_Tree@V?$_Tmap_traits@V?$basic_string@DU?$char_traits@D@std@@V?$allocator@D@2@@std@@PAUDxSkinPiece@@U?$less@V?$basic_string@DU?$char_traits@D@std@@V?$allocator@D@2@@std@@@2@V?$allocator@U?$pair@$$CBV?$basic_string@DU?$char_traits@D@std@@V?$allocator@D@2@@std@@PAUDxSkinPiece@@@std@@@2@$0A@@std@@@std@@KAPAU_Node@?$_Tree_nod@V?$_Tmap_traits@V?$basic_string@DU?$char_traits@D@std@@V?$allocator@D@2@@std@@PAUDxSkinPiece@@U?$less@V?$basic_string@DU?$char_traits@D@std@@V?$allocator@D@2@@std@@@2@V?$allocator@U?$pair@$$CBV?$basic_string@DU?$char_traits@D@std@@V?$allocator@D@2@@std@@PAUDxSkinPiece@@@std@@@2@$0A@@std@@@2@PAU342@@Z 00433330 f i EngineLib_A:DxSkinPieceContainer.obj
 0001:00032330       ?_Min@?$_Tree@V?$_Tmap_traits@V?$basic_string@DU?$char_traits@D@std@@V?$allocator@D@2@@std@@KU?$less@V?$basic_string@DU?$char_traits@D@std@@V?$allocator@D@2@@std@@@2@V?$allocator@U?$pair@$$CBV?$basic_string@DU?$char_traits@D@std@@V?$allocator@D@2@@std@@K@std@@@2@$0A@@std@@@std@@KAPAU_Node@?$_Tree_nod@V?$_Tmap_traits@V?$basic_string@DU?$char_traits@D@std@@V?$allocator@D@2@@std@@KU?$less@V?$basic_string@DU?$char_traits@D@std@@V?$allocator@D@2@@std@@@2@V?$allocator@U?$pair@$$CBV?$basic_string@DU?$char_traits@D@std@@V?$allocator@D@2@@std@@K@std@@@2@$0A@@std@@@2@PAU342@@Z 00433330 f i EngineLib_A:TextureManager.obj
 0001:00032350       ?_Max@?$_Tree@V?$_Tmap_traits@V?$basic_string@DU?$char_traits@D@std@@V?$allocator@D@2@@std@@KU?$less@V?$basic_string@DU?$char_traits@D@std@@V?$allocator@D@2@@std@@@2@V?$allocator@U?$pair@$$CBV?$basic_string@DU?$char_traits@D@std@@V?$allocator@D@2@@std@@K@std@@@2@$0A@@std@@@std@@KAPAU_Node@?$_Tree_nod@V?$_Tmap_traits@V?$basic_string@DU?$char_traits@D@std@@V?$allocator@D@2@@std@@KU?$less@V?$basic_string@DU?$char_traits@D@std@@V?$allocator@D@2@@std@@@2@V?$allocator@U?$pair@$$CBV?$basic_string@DU?$char_traits@D@std@@V?$allocator@D@2@@std@@K@std@@@2@$0A@@std@@@2@PAU342@@Z 00433350 f i EngineLib_A:TextureManager.obj
 0001:00032350       ?_Max@?$_Tree@V?$_Tmap_traits@V?$basic_string@DU?$char_traits@D@std@@V?$allocator@D@2@@std@@PAUSTATICDATA@NSSTATICMESH@@U?$less@V?$basic_string@DU?$char_traits@D@std@@V?$allocator@D@2@@std@@@2@V?$allocator@U?$pair@$$CBV?$basic_string@DU?$char_traits@D@std@@V?$allocator@D@2@@std@@PAUSTATICDATA@NSSTATICMESH@@@std@@@2@$0A@@std@@@std@@KAPAU_Node@?$_Tree_nod@V?$_Tmap_traits@V?$basic_string@DU?$char_traits@D@std@@V?$allocator@D@2@@std@@PAUSTATICDATA@NSSTATICMESH@@U?$less@V?$basic_string@DU?$char_traits@D@std@@V?$allocator@D@2@@std@@@2@V?$allocator@U?$pair@$$CBV?$basic_string@DU?$char_traits@D@std@@V?$allocator@D@2@@std@@PAUSTATICDATA@NSSTATICMESH@@@std@@@2@$0A@@std@@@2@PAU342@@Z 00433350 f i EngineLib_A:DxStaticMesh.obj
 0001:00032350       ?_Max@?$_Tree@V?$_Tmap_traits@V?$basic_string@DU?$char_traits@D@std@@V?$allocator@D@2@@std@@PAVTextureContainer@TextureManager@@U?$less@V?$basic_string@DU?$char_traits@D@std@@V?$allocator@D@2@@std@@@2@V?$allocator@U?$pair@$$CBV?$basic_string@DU?$char_traits@D@std@@V?$allocator@D@2@@std@@PAVTextureContainer@TextureManager@@@std@@@2@$0A@@std@@@std@@KAPAU_Node@?$_Tree_nod@V?$_Tmap_traits@V?$basic_string@DU?$char_traits@D@std@@V?$allocator@D@2@@std@@PAVTextureContainer@TextureManager@@U?$less@V?$basic_string@DU?$char_traits@D@std@@V?$allocator@D@2@@std@@@2@V?$allocator@U?$pair@$$CBV?$basic_string@DU?$char_traits@D@std@@V?$allocator@D@2@@std@@PAVTextureContainer@TextureManager@@@std@@@2@$0A@@std@@@2@PAU342@@Z 00433350 f i EngineLib_A:TextureManager.obj
 0001:00032350       ?_Max@?$_Tree@V?$_Tmap_traits@V?$basic_string@DU?$char_traits@D@std@@V?$allocator@D@2@@std@@PAVDxSimMesh@@U?$less@V?$basic_string@DU?$char_traits@D@std@@V?$allocator@D@2@@std@@@2@V?$allocator@U?$pair@$$CBV?$basic_string@DU?$char_traits@D@std@@V?$allocator@D@2@@std@@PAVDxSimMesh@@@std@@@2@$0A@@std@@@std@@KAPAU_Node@?$_Tree_nod@V?$_Tmap_traits@V?$basic_string@DU?$char_traits@D@std@@V?$allocator@D@2@@std@@PAVDxSimMesh@@U?$less@V?$basic_string@DU?$char_traits@D@std@@V?$allocator@D@2@@std@@@2@V?$allocator@U?$pair@$$CBV?$basic_string@DU?$char_traits@D@std@@V?$allocator@D@2@@std@@PAVDxSimMesh@@@std@@@2@$0A@@std@@@2@PAU342@@Z 00433350 f i EngineLib_A:DxSimpleMeshMan.obj
 0001:00032350       ?_Max@?$_Tree@V?$_Tmap_traits@V?$basic_string@DU?$char_traits@D@std@@V?$allocator@D@2@@std@@PAUDxSkinPiece@@U?$less@V?$basic_string@DU?$char_traits@D@std@@V?$allocator@D@2@@std@@@2@V?$allocator@U?$pair@$$CBV?$basic_string@DU?$char_traits@D@std@@V?$allocator@D@2@@std@@PAUDxSkinPiece@@@std@@@2@$0A@@std@@@std@@KAPAU_Node@?$_Tree_nod@V?$_Tmap_traits@V?$basic_string@DU?$char_traits@D@std@@V?$allocator@D@2@@std@@PAUDxSkinPiece@@U?$less@V?$basic_string@DU?$char_traits@D@std@@V?$allocator@D@2@@std@@@2@V?$allocator@U?$pair@$$CBV?$basic_string@DU?$char_traits@D@std@@V?$allocator@D@2@@std@@PAUDxSkinPiece@@@std@@@2@$0A@@std@@@2@PAU342@@Z 00433350 f i EngineLib_A:DxSkinPieceContainer.obj
 0001:00032370       ?_Lrotate@?$_Tree@V?$_Tmap_traits@V?$basic_string@DU?$char_traits@D@std@@V?$allocator@D@2@@std@@PAVTextureContainer@TextureManager@@U?$less@V?$basic_string@DU?$char_traits@D@std@@V?$allocator@D@2@@std@@@2@V?$allocator@U?$pair@$$CBV?$basic_string@DU?$char_traits@D@std@@V?$allocator@D@2@@std@@PAVTextureContainer@TextureManager@@@std@@@2@$0A@@std@@@std@@IAEXPAU_Node@?$_Tree_nod@V?$_Tmap_traits@V?$basic_string@DU?$char_traits@D@std@@V?$allocator@D@2@@std@@PAVTextureContainer@TextureManager@@U?$less@V?$basic_string@DU?$char_traits@D@std@@V?$allocator@D@2@@std@@@2@V?$allocator@U?$pair@$$CBV?$basic_string@DU?$char_traits@D@std@@V?$allocator@D@2@@std@@PAVTextureContainer@TextureManager@@@std@@@2@$0A@@std@@@2@@Z 00433370 f i EngineLib_A:TextureManager.obj
 0001:00032370       ?_Lrotate@?$_Tree@V?$_Tmap_traits@V?$basic_string@DU?$char_traits@D@std@@V?$allocator@D@2@@std@@PAUSTATICDATA@NSSTATICMESH@@U?$less@V?$basic_string@DU?$char_traits@D@std@@V?$allocator@D@2@@std@@@2@V?$allocator@U?$pair@$$CBV?$basic_string@DU?$char_traits@D@std@@V?$allocator@D@2@@std@@PAUSTATICDATA@NSSTATICMESH@@@std@@@2@$0A@@std@@@std@@IAEXPAU_Node@?$_Tree_nod@V?$_Tmap_traits@V?$basic_string@DU?$char_traits@D@std@@V?$allocator@D@2@@std@@PAUSTATICDATA@NSSTATICMESH@@U?$less@V?$basic_string@DU?$char_traits@D@std@@V?$allocator@D@2@@std@@@2@V?$allocator@U?$pair@$$CBV?$basic_string@DU?$char_traits@D@std@@V?$allocator@D@2@@std@@PAUSTATICDATA@NSSTATICMESH@@@std@@@2@$0A@@std@@@2@@Z 00433370 f i EngineLib_A:DxStaticMesh.obj
 0001:00032370       ?_Lrotate@?$_Tree@V?$_Tmap_traits@V?$basic_string@DU?$char_traits@D@std@@V?$allocator@D@2@@std@@KU?$less@V?$basic_string@DU?$char_traits@D@std@@V?$allocator@D@2@@std@@@2@V?$allocator@U?$pair@$$CBV?$basic_string@DU?$char_traits@D@std@@V?$allocator@D@2@@std@@K@std@@@2@$0A@@std@@@std@@IAEXPAU_Node@?$_Tree_nod@V?$_Tmap_traits@V?$basic_string@DU?$char_traits@D@std@@V?$allocator@D@2@@std@@KU?$less@V?$basic_string@DU?$char_traits@D@std@@V?$allocator@D@2@@std@@@2@V?$allocator@U?$pair@$$CBV?$basic_string@DU?$char_traits@D@std@@V?$allocator@D@2@@std@@K@std@@@2@$0A@@std@@@2@@Z 00433370 f i EngineLib_A:TextureManager.obj
 0001:00032370       ?_Lrotate@?$_Tree@V?$_Tmap_traits@V?$basic_string@DU?$char_traits@D@std@@V?$allocator@D@2@@std@@PAUDxSkinPiece@@U?$less@V?$basic_string@DU?$char_traits@D@std@@V?$allocator@D@2@@std@@@2@V?$allocator@U?$pair@$$CBV?$basic_string@DU?$char_traits@D@std@@V?$allocator@D@2@@std@@PAUDxSkinPiece@@@std@@@2@$0A@@std@@@std@@IAEXPAU_Node@?$_Tree_nod@V?$_Tmap_traits@V?$basic_string@DU?$char_traits@D@std@@V?$allocator@D@2@@std@@PAUDxSkinPiece@@U?$less@V?$basic_string@DU?$char_traits@D@std@@V?$allocator@D@2@@std@@@2@V?$allocator@U?$pair@$$CBV?$basic_string@DU?$char_traits@D@std@@V?$allocator@D@2@@std@@PAUDxSkinPiece@@@std@@@2@$0A@@std@@@2@@Z 00433370 f i EngineLib_A:DxSkinPieceContainer.obj
 0001:00032370       ?_Lrotate@?$_Tree@V?$_Tmap_traits@V?$basic_string@DU?$char_traits@D@std@@V?$allocator@D@2@@std@@PAVDxSimMesh@@U?$less@V?$basic_string@DU?$char_traits@D@std@@V?$allocator@D@2@@std@@@2@V?$allocator@U?$pair@$$CBV?$basic_string@DU?$char_traits@D@std@@V?$allocator@D@2@@std@@PAVDxSimMesh@@@std@@@2@$0A@@std@@@std@@IAEXPAU_Node@?$_Tree_nod@V?$_Tmap_traits@V?$basic_string@DU?$char_traits@D@std@@V?$allocator@D@2@@std@@PAVDxSimMesh@@U?$less@V?$basic_string@DU?$char_traits@D@std@@V?$allocator@D@2@@std@@@2@V?$allocator@U?$pair@$$CBV?$basic_string@DU?$char_traits@D@std@@V?$allocator@D@2@@std@@PAVDxSimMesh@@@std@@@2@$0A@@std@@@2@@Z 00433370 f i EngineLib_A:DxSimpleMeshMan.obj
 0001:000323d0       ?erase@?$_Tree@V?$_Tmap_traits@V?$basic_string@DU?$char_traits@D@std@@V?$allocator@D@2@@std@@PAUSTATICDATA@NSSTATICMESH@@U?$less@V?$basic_string@DU?$char_traits@D@std@@V?$allocator@D@2@@std@@@2@V?$allocator@U?$pair@$$CBV?$basic_string@DU?$char_traits@D@std@@V?$allocator@D@2@@std@@PAUSTATICDATA@NSSTATICMESH@@@std@@@2@$0A@@std@@@std@@QAE?AViterator@12@V312@@Z 004333d0 f i EngineLib_A:DxStaticMesh.obj
 0001:000326b0       ?_Erase@?$_Tree@V?$_Tmap_traits@V?$basic_string@DU?$char_traits@D@std@@V?$allocator@D@2@@std@@PAUSTATICDATA@NSSTATICMESH@@U?$less@V?$basic_string@DU?$char_traits@D@std@@V?$allocator@D@2@@std@@@2@V?$allocator@U?$pair@$$CBV?$basic_string@DU?$char_traits@D@std@@V?$allocator@D@2@@std@@PAUSTATICDATA@NSSTATICMESH@@@std@@@2@$0A@@std@@@std@@IAEXPAU_Node@?$_Tree_nod@V?$_Tmap_traits@V?$basic_string@DU?$char_traits@D@std@@V?$allocator@D@2@@std@@PAUSTATICDATA@NSSTATICMESH@@U?$less@V?$basic_string@DU?$char_traits@D@std@@V?$allocator@D@2@@std@@@2@V?$allocator@U?$pair@$$CBV?$basic_string@DU?$char_traits@D@std@@V?$allocator@D@2@@std@@PAUSTATICDATA@NSSTATICMESH@@@std@@@2@$0A@@std@@@2@@Z 004336b0 f i EngineLib_A:DxStaticMesh.obj
 0001:000326f0       ?erase@?$_Tree@V?$_Tmap_traits@V?$basic_string@DU?$char_traits@D@std@@V?$allocator@D@2@@std@@PAUSTATICDATA@NSSTATICMESH@@U?$less@V?$basic_string@DU?$char_traits@D@std@@V?$allocator@D@2@@std@@@2@V?$allocator@U?$pair@$$CBV?$basic_string@DU?$char_traits@D@std@@V?$allocator@D@2@@std@@PAUSTATICDATA@NSSTATICMESH@@@std@@@2@$0A@@std@@@std@@QAE?AViterator@12@V312@0@Z 004336f0 f i EngineLib_A:DxStaticMesh.obj
 0001:000327b0       ??1?$map@V?$basic_string@DU?$char_traits@D@std@@V?$allocator@D@2@@std@@PAUSTATICDATA@NSSTATICMESH@@U?$less@V?$basic_string@DU?$char_traits@D@std@@V?$allocator@D@2@@std@@@2@V?$allocator@U?$pair@$$CBV?$basic_string@DU?$char_traits@D@std@@V?$allocator@D@2@@std@@PAUSTATICDATA@NSSTATICMESH@@@std@@@2@@std@@QAE@XZ 004337b0 f i EngineLib_A:DxStaticMesh.obj
 0001:000327e0       ?IsCollision@NavigationMesh@@IAEXPAUDxAABBNode@@AAUD3DXVECTOR3@@11AAK@Z 004337e0 f   EngineLib_A:navagationtree.obj
 0001:000329d0       ?IsCollision@NavigationMesh@@QAEXAAUD3DXVECTOR3@@00AAKAAH@Z 004339d0 f   EngineLib_A:navagationtree.obj
 0001:00032a80       ??$for_each@Viterator@?$vector@PAVDxEffChar@@V?$allocator@PAVDxEffChar@@@std@@@std@@UDeleteObject@std_afunc@@@std@@YA?AUDeleteObject@std_afunc@@Viterator@?$vector@PAVDxEffChar@@V?$allocator@PAVDxEffChar@@@std@@@0@0U12@@Z 00433a80 f i EngineLib_A:DxCharPart.obj
 0001:00032ac0       ?find@?$_Tree@V?$_Tmap_traits@V?$basic_string@DU?$char_traits@D@std@@V?$allocator@D@2@@std@@PAVDxSimMesh@@U?$less@V?$basic_string@DU?$char_traits@D@std@@V?$allocator@D@2@@std@@@2@V?$allocator@U?$pair@$$CBV?$basic_string@DU?$char_traits@D@std@@V?$allocator@D@2@@std@@PAVDxSimMesh@@@std@@@2@$0A@@std@@@std@@QAE?AViterator@12@ABV?$basic_string@DU?$char_traits@D@std@@V?$allocator@D@2@@2@@Z 00433ac0 f i EngineLib_A:DxSimpleMeshMan.obj
 0001:00032ac0       ?find@?$_Tree@V?$_Tmap_traits@V?$basic_string@DU?$char_traits@D@std@@V?$allocator@D@2@@std@@PAUDxSkinPiece@@U?$less@V?$basic_string@DU?$char_traits@D@std@@V?$allocator@D@2@@std@@@2@V?$allocator@U?$pair@$$CBV?$basic_string@DU?$char_traits@D@std@@V?$allocator@D@2@@std@@PAUDxSkinPiece@@@std@@@2@$0A@@std@@@std@@QAE?AViterator@12@ABV?$basic_string@DU?$char_traits@D@std@@V?$allocator@D@2@@2@@Z 00433ac0 f i EngineLib_A:DxSkinPieceContainer.obj
 0001:00032b20       ?erase@?$_Tree@V?$_Tmap_traits@V?$basic_string@DU?$char_traits@D@std@@V?$allocator@D@2@@std@@PAUDxSkinPiece@@U?$less@V?$basic_string@DU?$char_traits@D@std@@V?$allocator@D@2@@std@@@2@V?$allocator@U?$pair@$$CBV?$basic_string@DU?$char_traits@D@std@@V?$allocator@D@2@@std@@PAUDxSkinPiece@@@std@@@2@$0A@@std@@@std@@QAE?AViterator@12@V312@@Z 00433b20 f i EngineLib_A:DxSkinPieceContainer.obj
 0001:00032e00       ?_Erase@?$_Tree@V?$_Tmap_traits@V?$basic_string@DU?$char_traits@D@std@@V?$allocator@D@2@@std@@PAUDxSkinPiece@@U?$less@V?$basic_string@DU?$char_traits@D@std@@V?$allocator@D@2@@std@@@2@V?$allocator@U?$pair@$$CBV?$basic_string@DU?$char_traits@D@std@@V?$allocator@D@2@@std@@PAUDxSkinPiece@@@std@@@2@$0A@@std@@@std@@IAEXPAU_Node@?$_Tree_nod@V?$_Tmap_traits@V?$basic_string@DU?$char_traits@D@std@@V?$allocator@D@2@@std@@PAUDxSkinPiece@@U?$less@V?$basic_string@DU?$char_traits@D@std@@V?$allocator@D@2@@std@@@2@V?$allocator@U?$pair@$$CBV?$basic_string@DU?$char_traits@D@std@@V?$allocator@D@2@@std@@PAUDxSkinPiece@@@std@@@2@$0A@@std@@@2@@Z 00433e00 f i EngineLib_A:DxSkinPieceContainer.obj
 0001:00032e40       ?erase@?$_Tree@V?$_Tmap_traits@V?$basic_string@DU?$char_traits@D@std@@V?$allocator@D@2@@std@@PAUDxSkinPiece@@U?$less@V?$basic_string@DU?$char_traits@D@std@@V?$allocator@D@2@@std@@@2@V?$allocator@U?$pair@$$CBV?$basic_string@DU?$char_traits@D@std@@V?$allocator@D@2@@std@@PAUDxSkinPiece@@@std@@@2@$0A@@std@@@std@@QAE?AViterator@12@V312@0@Z 00433e40 f i EngineLib_A:DxSkinPieceContainer.obj
 0001:00032f00       ??1DxSkinPiece@@QAE@XZ     00433f00 f   EngineLib_A:DxSkinPieceContainer.obj
 0001:00033020       ?ReleasePiece@DxSkinPieceContainer@@QAEJPBD@Z 00434020 f   EngineLib_A:DxSkinPieceContainer.obj
 0001:00033110       ??1DxSkinPieceContainer@@UAE@XZ 00434110 f   EngineLib_A:DxSkinPieceContainer.obj
 0001:00033150       ??0DxSkinPieceContainer@@IAE@XZ 00434150 f   EngineLib_A:DxSkinPieceContainer.obj
 0001:000331a0       ??_GDxSkinPieceContainer@@UAEPAXI@Z 004341a0 f i EngineLib_A:DxSkinPieceContainer.obj
 0001:000331a0       ??_EDxSkinPieceContainer@@UAEPAXI@Z 004341a0 f i EngineLib_A:DxSkinPieceContainer.obj
 0001:000331c0       ?GetInstance@DxSkinPieceContainer@@SAAAV1@XZ 004341c0 f   EngineLib_A:DxSkinPieceContainer.obj
 0001:00033220       ??1SBIN@DxSkinAniMan@@QAE@XZ 00434220 f i EngineLib_A:DxSkinAniManThread.obj
 0001:00033270       ??1_Node@?$_List_nod@USBIN@DxSkinAniMan@@V?$allocator@USBIN@DxSkinAniMan@@@std@@@std@@QAE@XZ 00434270 f i EngineLib_A:DxSkinAniManThread.obj
 0001:00033280       ?_Buynode@?$list@USBIN@DxSkinAniMan@@V?$allocator@USBIN@DxSkinAniMan@@@std@@@std@@IAEPAU_Node@?$_List_nod@USBIN@DxSkinAniMan@@V?$allocator@USBIN@DxSkinAniMan@@@std@@@2@XZ 00434280 f i EngineLib_A:DxSkinAniManThread.obj
 0001:000332a0       ?clear@?$list@USBIN@DxSkinAniMan@@V?$allocator@USBIN@DxSkinAniMan@@@std@@@std@@QAEXXZ 004342a0 f i EngineLib_A:DxSkinAniManThread.obj
 0001:000332e0       ?CameraLimitCheck@DxViewPort@@QAE_NXZ 004342e0 f   EngineLib_A:DxViewPortSetCamera.obj
 0001:000334b0       ??0CMemoryTexture@@QAE@XZ  004344b0 f   EngineLib_A:MemoryTexture.obj
 0001:000334c0       ??1CMemoryTexture@@QAE@XZ  004344c0 f   EngineLib_A:MemoryTexture.obj
 0001:000334e0       ?DecryptTexture@CMemoryTexture@@QAE_NPAU_iobuf@@@Z 004344e0 f   EngineLib_A:MemoryTexture.obj
 0001:000335d0       ?LoadFileDec@CMemoryTexture@@QAE_NPBD@Z 004345d0 f   EngineLib_A:MemoryTexture.obj
 0001:00033640       ??1?$pair@$$CBV?$basic_string@DU?$char_traits@D@std@@V?$allocator@D@2@@std@@V12@@std@@QAE@XZ 00434640 f i EngineLib_A:CFileFind.obj
 0001:00033690       ?_Max@?$_Tree@V?$_Tmap_traits@V?$basic_string@DU?$char_traits@D@std@@V?$allocator@D@2@@std@@V12@U?$less@V?$basic_string@DU?$char_traits@D@std@@V?$allocator@D@2@@std@@@2@V?$allocator@U?$pair@$$CBV?$basic_string@DU?$char_traits@D@std@@V?$allocator@D@2@@std@@V12@@std@@@2@$0A@@std@@@std@@KAPAU_Node@?$_Tree_nod@V?$_Tmap_traits@V?$basic_string@DU?$char_traits@D@std@@V?$allocator@D@2@@std@@V12@U?$less@V?$basic_string@DU?$char_traits@D@std@@V?$allocator@D@2@@std@@@2@V?$allocator@U?$pair@$$CBV?$basic_string@DU?$char_traits@D@std@@V?$allocator@D@2@@std@@V12@@std@@@2@$0A@@std@@@2@PAU342@@Z 00434690 f i EngineLib_A:CFileFind.obj
 0001:000336b0       ?_Min@?$_Tree@V?$_Tmap_traits@V?$basic_string@DU?$char_traits@D@std@@V?$allocator@D@2@@std@@V12@U?$less@V?$basic_string@DU?$char_traits@D@std@@V?$allocator@D@2@@std@@@2@V?$allocator@U?$pair@$$CBV?$basic_string@DU?$char_traits@D@std@@V?$allocator@D@2@@std@@V12@@std@@@2@$0A@@std@@@std@@KAPAU_Node@?$_Tree_nod@V?$_Tmap_traits@V?$basic_string@DU?$char_traits@D@std@@V?$allocator@D@2@@std@@V12@U?$less@V?$basic_string@DU?$char_traits@D@std@@V?$allocator@D@2@@std@@@2@V?$allocator@U?$pair@$$CBV?$basic_string@DU?$char_traits@D@std@@V?$allocator@D@2@@std@@V12@@std@@@2@$0A@@std@@@2@PAU342@@Z 004346b0 f i EngineLib_A:CFileFind.obj
 0001:000336d0       ?_Inc@const_iterator@?$_Tree@V?$_Tmap_traits@V?$basic_string@DU?$char_traits@D@std@@V?$allocator@D@2@@std@@V12@U?$less@V?$basic_string@DU?$char_traits@D@std@@V?$allocator@D@2@@std@@@2@V?$allocator@U?$pair@$$CBV?$basic_string@DU?$char_traits@D@std@@V?$allocator@D@2@@std@@V12@@std@@@2@$0A@@std@@@std@@QAEXXZ 004346d0 f i EngineLib_A:CFileFind.obj
 0001:00033730       ??1_Node@?$_Tree_nod@V?$_Tmap_traits@V?$basic_string@DU?$char_traits@D@std@@V?$allocator@D@2@@std@@V12@U?$less@V?$basic_string@DU?$char_traits@D@std@@V?$allocator@D@2@@std@@@2@V?$allocator@U?$pair@$$CBV?$basic_string@DU?$char_traits@D@std@@V?$allocator@D@2@@std@@V12@@std@@@2@$0A@@std@@@std@@QAE@XZ 00434730 f i EngineLib_A:CFileFind.obj
 0001:00033740       ?_Lbound@?$_Tree@V?$_Tmap_traits@V?$basic_string@DU?$char_traits@D@std@@V?$allocator@D@2@@std@@V12@U?$less@V?$basic_string@DU?$char_traits@D@std@@V?$allocator@D@2@@std@@@2@V?$allocator@U?$pair@$$CBV?$basic_string@DU?$char_traits@D@std@@V?$allocator@D@2@@std@@V12@@std@@@2@$0A@@std@@@std@@IBEPAU_Node@?$_Tree_nod@V?$_Tmap_traits@V?$basic_string@DU?$char_traits@D@std@@V?$allocator@D@2@@std@@V12@U?$less@V?$basic_string@DU?$char_traits@D@std@@V?$allocator@D@2@@std@@@2@V?$allocator@U?$pair@$$CBV?$basic_string@DU?$char_traits@D@std@@V?$allocator@D@2@@std@@V12@@std@@@2@$0A@@std@@@2@ABV?$basic_string@DU?$char_traits@D@std@@V?$allocator@D@2@@2@@Z 00434740 f i EngineLib_A:CFileFind.obj
 0001:00033790       ?_Lrotate@?$_Tree@V?$_Tmap_traits@V?$basic_string@DU?$char_traits@D@std@@V?$allocator@D@2@@std@@V12@U?$less@V?$basic_string@DU?$char_traits@D@std@@V?$allocator@D@2@@std@@@2@V?$allocator@U?$pair@$$CBV?$basic_string@DU?$char_traits@D@std@@V?$allocator@D@2@@std@@V12@@std@@@2@$0A@@std@@@std@@IAEXPAU_Node@?$_Tree_nod@V?$_Tmap_traits@V?$basic_string@DU?$char_traits@D@std@@V?$allocator@D@2@@std@@V12@U?$less@V?$basic_string@DU?$char_traits@D@std@@V?$allocator@D@2@@std@@@2@V?$allocator@U?$pair@$$CBV?$basic_string@DU?$char_traits@D@std@@V?$allocator@D@2@@std@@V12@@std@@@2@$0A@@std@@@2@@Z 00434790 f i EngineLib_A:CFileFind.obj
 0001:000337f0       ?_Rrotate@?$_Tree@V?$_Tmap_traits@V?$basic_string@DU?$char_traits@D@std@@V?$allocator@D@2@@std@@V12@U?$less@V?$basic_string@DU?$char_traits@D@std@@V?$allocator@D@2@@std@@@2@V?$allocator@U?$pair@$$CBV?$basic_string@DU?$char_traits@D@std@@V?$allocator@D@2@@std@@V12@@std@@@2@$0A@@std@@@std@@IAEXPAU_Node@?$_Tree_nod@V?$_Tmap_traits@V?$basic_string@DU?$char_traits@D@std@@V?$allocator@D@2@@std@@V12@U?$less@V?$basic_string@DU?$char_traits@D@std@@V?$allocator@D@2@@std@@@2@V?$allocator@U?$pair@$$CBV?$basic_string@DU?$char_traits@D@std@@V?$allocator@D@2@@std@@V12@@std@@@2@$0A@@std@@@2@@Z 004347f0 f i EngineLib_A:CFileFind.obj
 0001:00033850       ?_Buynode@?$_Tree@V?$_Tmap_traits@V?$basic_string@DU?$char_traits@D@std@@V?$allocator@D@2@@std@@V12@U?$less@V?$basic_string@DU?$char_traits@D@std@@V?$allocator@D@2@@std@@@2@V?$allocator@U?$pair@$$CBV?$basic_string@DU?$char_traits@D@std@@V?$allocator@D@2@@std@@V12@@std@@@2@$0A@@std@@@std@@IAEPAU_Node@?$_Tree_nod@V?$_Tmap_traits@V?$basic_string@DU?$char_traits@D@std@@V?$allocator@D@2@@std@@V12@U?$less@V?$basic_string@DU?$char_traits@D@std@@V?$allocator@D@2@@std@@@2@V?$allocator@U?$pair@$$CBV?$basic_string@DU?$char_traits@D@std@@V?$allocator@D@2@@std@@V12@@std@@@2@$0A@@std@@@2@XZ 00434850 f i EngineLib_A:CFileFind.obj
 0001:00033890       ?find@?$_Tree@V?$_Tmap_traits@V?$basic_string@DU?$char_traits@D@std@@V?$allocator@D@2@@std@@V12@U?$less@V?$basic_string@DU?$char_traits@D@std@@V?$allocator@D@2@@std@@@2@V?$allocator@U?$pair@$$CBV?$basic_string@DU?$char_traits@D@std@@V?$allocator@D@2@@std@@V12@@std@@@2@$0A@@std@@@std@@QAE?AViterator@12@ABV?$basic_string@DU?$char_traits@D@std@@V?$allocator@D@2@@2@@Z 00434890 f i EngineLib_A:CFileFind.obj
 0001:000338f0       ?erase@?$_Tree@V?$_Tmap_traits@V?$basic_string@DU?$char_traits@D@std@@V?$allocator@D@2@@std@@V12@U?$less@V?$basic_string@DU?$char_traits@D@std@@V?$allocator@D@2@@std@@@2@V?$allocator@U?$pair@$$CBV?$basic_string@DU?$char_traits@D@std@@V?$allocator@D@2@@std@@V12@@std@@@2@$0A@@std@@@std@@QAE?AViterator@12@V312@@Z 004348f0 f i EngineLib_A:CFileFind.obj
 0001:00033bf0       ?FindPathName@CFileFindTree@@QAEPAV?$basic_string@DU?$char_traits@D@std@@V?$allocator@D@2@@std@@AAV23@@Z 00434bf0 f   EngineLib_A:CFileFind.obj
 0001:00033c20       ?_Erase@?$_Tree@V?$_Tmap_traits@V?$basic_string@DU?$char_traits@D@std@@V?$allocator@D@2@@std@@V12@U?$less@V?$basic_string@DU?$char_traits@D@std@@V?$allocator@D@2@@std@@@2@V?$allocator@U?$pair@$$CBV?$basic_string@DU?$char_traits@D@std@@V?$allocator@D@2@@std@@V12@@std@@@2@$0A@@std@@@std@@IAEXPAU_Node@?$_Tree_nod@V?$_Tmap_traits@V?$basic_string@DU?$char_traits@D@std@@V?$allocator@D@2@@std@@V12@U?$less@V?$basic_string@DU?$char_traits@D@std@@V?$allocator@D@2@@std@@@2@V?$allocator@U?$pair@$$CBV?$basic_string@DU?$char_traits@D@std@@V?$allocator@D@2@@std@@V12@@std@@@2@$0A@@std@@@2@@Z 00434c20 f i EngineLib_A:CFileFind.obj
 0001:00033c60       ?erase@?$_Tree@V?$_Tmap_traits@V?$basic_string@DU?$char_traits@D@std@@V?$allocator@D@2@@std@@V12@U?$less@V?$basic_string@DU?$char_traits@D@std@@V?$allocator@D@2@@std@@@2@V?$allocator@U?$pair@$$CBV?$basic_string@DU?$char_traits@D@std@@V?$allocator@D@2@@std@@V12@@std@@@2@$0A@@std@@@std@@QAE?AViterator@12@V312@0@Z 00434c60 f i EngineLib_A:CFileFind.obj
 0001:00033d20       ??1CFileFindTree@@QAE@XZ   00434d20 f   EngineLib_A:CFileFind.obj
 0001:00033da0       ??0CFileFindTree@@QAE@XZ   00434da0 f   EngineLib_A:CFileFind.obj
 0001:00033e10       ?_Max@?$_Tree@V?$_Tmap_traits@KUSMTH@GLPeriod@@U?$less@K@std@@V?$allocator@U?$pair@$$CBKUSMTH@GLPeriod@@@std@@@4@$0A@@std@@@std@@KAPAU_Node@?$_Tree_nod@V?$_Tmap_traits@KUSMTH@GLPeriod@@U?$less@K@std@@V?$allocator@U?$pair@$$CBKUSMTH@GLPeriod@@@std@@@4@$0A@@std@@@2@PAU342@@Z 00434e10 f i EngineLib_A:GLPeriod.obj
 0001:00033e10       ?_Max@?$_Tree@V?$_Tmap_traits@KUCOUNTVERTEXFACE@NSCHARSG@@U?$less@K@std@@V?$allocator@U?$pair@$$CBKUCOUNTVERTEXFACE@NSCHARSG@@@std@@@4@$0A@@std@@@std@@KAPAU_Node@?$_Tree_nod@V?$_Tmap_traits@KUCOUNTVERTEXFACE@NSCHARSG@@U?$less@K@std@@V?$allocator@U?$pair@$$CBKUCOUNTVERTEXFACE@NSCHARSG@@@std@@@4@$0A@@std@@@2@PAU342@@Z 00434e10 f i EngineLib_A:NsSMeshSceneGraph.obj
 0001:00033e30       ?_Rrotate@?$_Tree@V?$_Tmap_traits@KUCOUNTVERTEXFACE@NSCHARSG@@U?$less@K@std@@V?$allocator@U?$pair@$$CBKUCOUNTVERTEXFACE@NSCHARSG@@@std@@@4@$0A@@std@@@std@@IAEXPAU_Node@?$_Tree_nod@V?$_Tmap_traits@KUCOUNTVERTEXFACE@NSCHARSG@@U?$less@K@std@@V?$allocator@U?$pair@$$CBKUCOUNTVERTEXFACE@NSCHARSG@@@std@@@4@$0A@@std@@@2@@Z 00434e30 f i EngineLib_A:NsSMeshSceneGraph.obj
 0001:00033e30       ?_Rrotate@?$_Tree@V?$_Tmap_traits@KUSMTH@GLPeriod@@U?$less@K@std@@V?$allocator@U?$pair@$$CBKUSMTH@GLPeriod@@@std@@@4@$0A@@std@@@std@@IAEXPAU_Node@?$_Tree_nod@V?$_Tmap_traits@KUSMTH@GLPeriod@@U?$less@K@std@@V?$allocator@U?$pair@$$CBKUSMTH@GLPeriod@@@std@@@4@$0A@@std@@@2@@Z 00434e30 f i EngineLib_A:GLPeriod.obj
 0001:00033e90       ?_Inc@const_iterator@?$_Tree@V?$_Tmap_traits@KUSMTH@GLPeriod@@U?$less@K@std@@V?$allocator@U?$pair@$$CBKUSMTH@GLPeriod@@@std@@@4@$0A@@std@@@std@@QAEXXZ 00434e90 f i EngineLib_A:GLPeriod.obj
 0001:00033e90       ?_Inc@const_iterator@?$_Tree@V?$_Tmap_traits@KUCOUNTVERTEXFACE@NSCHARSG@@U?$less@K@std@@V?$allocator@U?$pair@$$CBKUCOUNTVERTEXFACE@NSCHARSG@@@std@@@4@$0A@@std@@@std@@QAEXXZ 00434e90 f i EngineLib_A:NsSMeshSceneGraph.obj
 0001:00033ef0       ?_Max@?$_Tree@V?$_Tmap_traits@KUIDFACE@@U?$less@K@std@@V?$allocator@U?$pair@$$CBKUIDFACE@@@std@@@3@$00@std@@@std@@KAPAU_Node@?$_Tree_nod@V?$_Tmap_traits@KUIDFACE@@U?$less@K@std@@V?$allocator@U?$pair@$$CBKUIDFACE@@@std@@@3@$00@std@@@2@PAU342@@Z 00434ef0 f i EngineLib_A:NsSMeshSceneGraph.obj
 0001:00033f10       ?_Min@?$_Tree@V?$_Tmap_traits@KUIDFACE@@U?$less@K@std@@V?$allocator@U?$pair@$$CBKUIDFACE@@@std@@@3@$00@std@@@std@@KAPAU_Node@?$_Tree_nod@V?$_Tmap_traits@KUIDFACE@@U?$less@K@std@@V?$allocator@U?$pair@$$CBKUIDFACE@@@std@@@3@$00@std@@@2@PAU342@@Z 00434f10 f i EngineLib_A:NsSMeshSceneGraph.obj
 0001:00033f30       ?_Min@?$_Tree@V?$_Tmap_traits@KUOBJQUADTemp@@U?$less@K@std@@V?$allocator@U?$pair@$$CBKUOBJQUADTemp@@@std@@@3@$0A@@std@@@std@@KAPAU_Node@?$_Tree_nod@V?$_Tmap_traits@KUOBJQUADTemp@@U?$less@K@std@@V?$allocator@U?$pair@$$CBKUOBJQUADTemp@@@std@@@3@$0A@@std@@@2@PAU342@@Z 00434f30 f i EngineLib_A:DxMapEditManThread.obj
 0001:00033f30       ?_Min@?$_Tree@V?$_Tmap_traits@MPAVDXLIGHT@@U?$less@M@std@@V?$allocator@U?$pair@$$CBMPAVDXLIGHT@@@std@@@3@$00@std@@@std@@KAPAU_Node@?$_Tree_nod@V?$_Tmap_traits@MPAVDXLIGHT@@U?$less@M@std@@V?$allocator@U?$pair@$$CBMPAVDXLIGHT@@@std@@@3@$00@std@@@2@PAU342@@Z 00434f30 f i EngineLib_A:DxLightMan.obj
 0001:00033f30       ?_Min@?$_Tree@V?$_Tmap_traits@V?$CStringT@DV?$StrTraitMFC_DLL@DV?$ChTraitsCRT@D@ATL@@@@@ATL@@PAVDxSkinPieceRootData@@U?$less@V?$CStringT@DV?$StrTraitMFC_DLL@DV?$ChTraitsCRT@D@ATL@@@@@ATL@@@std@@V?$allocator@U?$pair@$$CBV?$CStringT@DV?$StrTraitMFC_DLL@DV?$ChTraitsCRT@D@ATL@@@@@ATL@@PAVDxSkinPieceRootData@@@std@@@5@$0A@@std@@@std@@KAPAU_Node@?$_Tree_nod@V?$_Tmap_traits@V?$CStringT@DV?$StrTraitMFC_DLL@DV?$ChTraitsCRT@D@ATL@@@@@ATL@@PAVDxSkinPieceRootData@@U?$less@V?$CStringT@DV?$StrTraitMFC_DLL@DV?$ChTraitsCRT@D@ATL@@@@@ATL@@@std@@V?$allocator@U?$pair@$$CBV?$CStringT@DV?$StrTraitMFC_DLL@DV?$ChTraitsCRT@D@ATL@@@@@ATL@@PAVDxSkinPieceRootData@@@std@@@5@$0A@@std@@@2@PAU342@@Z 00434f30 f i EngineLib_A:DxSkinPieceRootData.obj
 0001:00033f30       ?_Min@?$_Tree@V?$_Tmap_traits@KKU?$less@K@std@@V?$allocator@U?$pair@$$CBKK@std@@@2@$00@std@@@std@@KAPAU_Node@?$_Tree_nod@V?$_Tmap_traits@KKU?$less@K@std@@V?$allocator@U?$pair@$$CBKK@std@@@2@$00@std@@@2@PAU342@@Z 00434f30 f i EngineLib_A:NsSMeshSceneGraph.obj
 0001:00033f30       ?_Min@?$_Tree@V?$_Tmap_traits@HHU?$less@H@std@@V?$allocator@U?$pair@$$CBHH@std@@@2@$0A@@std@@@std@@KAPAU_Node@?$_Tree_nod@V?$_Tmap_traits@HHU?$less@H@std@@V?$allocator@U?$pair@$$CBHH@std@@@2@$0A@@std@@@2@PAU342@@Z 00434f30 f i NetServerLib_A:s_CClientManager.obj
 0001:00033f50       ?_Inc@const_iterator@?$_Tree@V?$_Tmap_traits@KUIDFACE@@U?$less@K@std@@V?$allocator@U?$pair@$$CBKUIDFACE@@@std@@@3@$00@std@@@std@@QAEXXZ 00434f50 f i EngineLib_A:NsSMeshSceneGraph.obj
 0001:00033fb0       ?_Lrotate@?$_Tree@V?$_Tmap_traits@KUIDFACE@@U?$less@K@std@@V?$allocator@U?$pair@$$CBKUIDFACE@@@std@@@3@$00@std@@@std@@IAEXPAU_Node@?$_Tree_nod@V?$_Tmap_traits@KUIDFACE@@U?$less@K@std@@V?$allocator@U?$pair@$$CBKUIDFACE@@@std@@@3@$00@std@@@2@@Z 00434fb0 f i EngineLib_A:NsSMeshSceneGraph.obj
 0001:00034010       ?_Rrotate@?$_Tree@V?$_Tmap_traits@KUIDFACE@@U?$less@K@std@@V?$allocator@U?$pair@$$CBKUIDFACE@@@std@@@3@$00@std@@@std@@IAEXPAU_Node@?$_Tree_nod@V?$_Tmap_traits@KUIDFACE@@U?$less@K@std@@V?$allocator@U?$pair@$$CBKUIDFACE@@@std@@@3@$00@std@@@2@@Z 00435010 f i EngineLib_A:NsSMeshSceneGraph.obj
 0001:00034070       ?_Rrotate@?$_Tree@V?$_Tmap_traits@HHU?$less@H@std@@V?$allocator@U?$pair@$$CBHH@std@@@2@$0A@@std@@@std@@IAEXPAU_Node@?$_Tree_nod@V?$_Tmap_traits@HHU?$less@H@std@@V?$allocator@U?$pair@$$CBHH@std@@@2@$0A@@std@@@2@@Z 00435070 f i NetServerLib_A:s_CClientManager.obj
 0001:00034070       ?_Rrotate@?$_Tree@V?$_Tmap_traits@KKU?$less@K@std@@V?$allocator@U?$pair@$$CBKK@std@@@2@$00@std@@@std@@IAEXPAU_Node@?$_Tree_nod@V?$_Tmap_traits@KKU?$less@K@std@@V?$allocator@U?$pair@$$CBKK@std@@@2@$00@std@@@2@@Z 00435070 f i EngineLib_A:NsSMeshSceneGraph.obj
 0001:00034070       ?_Rrotate@?$_Tree@V?$_Tmap_traits@MPAVDXLIGHT@@U?$less@M@std@@V?$allocator@U?$pair@$$CBMPAVDXLIGHT@@@std@@@3@$00@std@@@std@@IAEXPAU_Node@?$_Tree_nod@V?$_Tmap_traits@MPAVDXLIGHT@@U?$less@M@std@@V?$allocator@U?$pair@$$CBMPAVDXLIGHT@@@std@@@3@$00@std@@@2@@Z 00435070 f i EngineLib_A:DxLightMan.obj
 0001:00034070       ?_Rrotate@?$_Tree@V?$_Tmap_traits@U?$pair@GG@std@@PAUSINVENITEM@@U?$less@U?$pair@GG@std@@@2@V?$allocator@U?$pair@$$CBU?$pair@GG@std@@PAUSINVENITEM@@@std@@@2@$0A@@std@@@std@@IAEXPAU_Node@?$_Tree_nod@V?$_Tmap_traits@U?$pair@GG@std@@PAUSINVENITEM@@U?$less@U?$pair@GG@std@@@2@V?$allocator@U?$pair@$$CBU?$pair@GG@std@@PAUSINVENITEM@@@std@@@2@$0A@@std@@@2@@Z 00435070 f i RanClientLib_A:GLInventory.obj
 0001:00034070       ?_Rrotate@?$_Tree@V?$_Tmap_traits@V?$CStringT@DV?$StrTraitMFC_DLL@DV?$ChTraitsCRT@D@ATL@@@@@ATL@@PAVDxSkinPieceRootData@@U?$less@V?$CStringT@DV?$StrTraitMFC_DLL@DV?$ChTraitsCRT@D@ATL@@@@@ATL@@@std@@V?$allocator@U?$pair@$$CBV?$CStringT@DV?$StrTraitMFC_DLL@DV?$ChTraitsCRT@D@ATL@@@@@ATL@@PAVDxSkinPieceRootData@@@std@@@5@$0A@@std@@@std@@IAEXPAU_Node@?$_Tree_nod@V?$_Tmap_traits@V?$CStringT@DV?$StrTraitMFC_DLL@DV?$ChTraitsCRT@D@ATL@@@@@ATL@@PAVDxSkinPieceRootData@@U?$less@V?$CStringT@DV?$StrTraitMFC_DLL@DV?$ChTraitsCRT@D@ATL@@@@@ATL@@@std@@V?$allocator@U?$pair@$$CBV?$CStringT@DV?$StrTraitMFC_DLL@DV?$ChTraitsCRT@D@ATL@@@@@ATL@@PAVDxSkinPieceRootData@@@std@@@5@$0A@@std@@@2@@Z 00435070 f i EngineLib_A:DxSkinPieceRootData.obj
 0001:00034070       ?_Rrotate@?$_Tree@V?$_Tmap_traits@KUOBJQUADTemp@@U?$less@K@std@@V?$allocator@U?$pair@$$CBKUOBJQUADTemp@@@std@@@3@$0A@@std@@@std@@IAEXPAU_Node@?$_Tree_nod@V?$_Tmap_traits@KUOBJQUADTemp@@U?$less@K@std@@V?$allocator@U?$pair@$$CBKUOBJQUADTemp@@@std@@@3@$0A@@std@@@2@@Z 00435070 f i EngineLib_A:DxMapEditManThread.obj
 0001:000340d0       ?_Erase@?$_Tree@V?$_Tmap_traits@KUIDFACE@@U?$less@K@std@@V?$allocator@U?$pair@$$CBKUIDFACE@@@std@@@3@$00@std@@@std@@IAEXPAU_Node@?$_Tree_nod@V?$_Tmap_traits@KUIDFACE@@U?$less@K@std@@V?$allocator@U?$pair@$$CBKUIDFACE@@@std@@@3@$00@std@@@2@@Z 004350d0 f i EngineLib_A:NsSMeshSceneGraph.obj
 0001:00034110       ?_Erase@?$_Tree@V?$_Tmap_traits@KKU?$less@K@std@@V?$allocator@U?$pair@$$CBKK@std@@@2@$00@std@@@std@@IAEXPAU_Node@?$_Tree_nod@V?$_Tmap_traits@KKU?$less@K@std@@V?$allocator@U?$pair@$$CBKK@std@@@2@$00@std@@@2@@Z 00435110 f i EngineLib_A:NsSMeshSceneGraph.obj
 0001:00034150       ?_Erase@?$_Tree@V?$_Tmap_traits@KUCOUNTVERTEXFACE@NSCHARSG@@U?$less@K@std@@V?$allocator@U?$pair@$$CBKUCOUNTVERTEXFACE@NSCHARSG@@@std@@@4@$0A@@std@@@std@@IAEXPAU_Node@?$_Tree_nod@V?$_Tmap_traits@KUCOUNTVERTEXFACE@NSCHARSG@@U?$less@K@std@@V?$allocator@U?$pair@$$CBKUCOUNTVERTEXFACE@NSCHARSG@@@std@@@4@$0A@@std@@@2@@Z 00435150 f i EngineLib_A:NsSMeshSceneGraph.obj
 0001:00034190       ?_Buynode@?$_Tree@V?$_Tmap_traits@KUIDFACE@@U?$less@K@std@@V?$allocator@U?$pair@$$CBKUIDFACE@@@std@@@3@$00@std@@@std@@IAEPAU_Node@?$_Tree_nod@V?$_Tmap_traits@KUIDFACE@@U?$less@K@std@@V?$allocator@U?$pair@$$CBKUIDFACE@@@std@@@3@$00@std@@@2@XZ 00435190 f i EngineLib_A:NsSMeshSceneGraph.obj
 0001:000341d0       ?_Buynode@?$_Tree@V?$_Tmap_traits@KUCOUNTVERTEXFACE@NSCHARSG@@U?$less@K@std@@V?$allocator@U?$pair@$$CBKUCOUNTVERTEXFACE@NSCHARSG@@@std@@@4@$0A@@std@@@std@@IAEPAU_Node@?$_Tree_nod@V?$_Tmap_traits@KUCOUNTVERTEXFACE@NSCHARSG@@U?$less@K@std@@V?$allocator@U?$pair@$$CBKUCOUNTVERTEXFACE@NSCHARSG@@@std@@@4@$0A@@std@@@2@XZ 004351d0 f i EngineLib_A:NsSMeshSceneGraph.obj
 0001:000341d0       ?_Buynode@?$_Tree@V?$_Tmap_traits@KUSMTH@GLPeriod@@U?$less@K@std@@V?$allocator@U?$pair@$$CBKUSMTH@GLPeriod@@@std@@@4@$0A@@std@@@std@@IAEPAU_Node@?$_Tree_nod@V?$_Tmap_traits@KUSMTH@GLPeriod@@U?$less@K@std@@V?$allocator@U?$pair@$$CBKUSMTH@GLPeriod@@@std@@@4@$0A@@std@@@2@XZ 004351d0 f i EngineLib_A:GLPeriod.obj
 0001:00034210       ??$for_each@Viterator@?$vector@PAUAttributeIB@@V?$allocator@PAUAttributeIB@@@std@@@std@@UDeleteObject@std_afunc@@@std@@YA?AUDeleteObject@std_afunc@@Viterator@?$vector@PAUAttributeIB@@V?$allocator@PAUAttributeIB@@@std@@@0@0U12@@Z 00435210 f i EngineLib_A:NsSMeshSceneGraph.obj
 0001:00034250       ?erase@?$_Tree@V?$_Tmap_traits@KUCOUNTVERTEXFACE@NSCHARSG@@U?$less@K@std@@V?$allocator@U?$pair@$$CBKUCOUNTVERTEXFACE@NSCHARSG@@@std@@@4@$0A@@std@@@std@@QAE?AViterator@12@V312@@Z 00435250 f i EngineLib_A:NsSMeshSceneGraph.obj
 0001:00034520       ?find@?$_Tree@V?$_Tmap_traits@KUCOUNTVERTEXFACE@NSCHARSG@@U?$less@K@std@@V?$allocator@U?$pair@$$CBKUCOUNTVERTEXFACE@NSCHARSG@@@std@@@4@$0A@@std@@@std@@QAE?AViterator@12@ABK@Z 00435520 f i EngineLib_A:NsSMeshSceneGraph.obj
 0001:00034590       ?erase@?$_Tree@V?$_Tmap_traits@KUCOUNTVERTEXFACE@NSCHARSG@@U?$less@K@std@@V?$allocator@U?$pair@$$CBKUCOUNTVERTEXFACE@NSCHARSG@@@std@@@4@$0A@@std@@@std@@QAE?AViterator@12@V312@0@Z 00435590 f i EngineLib_A:NsSMeshSceneGraph.obj
 0001:00034650       ?erase@?$_Tree@V?$_Tmap_traits@KUIDFACE@@U?$less@K@std@@V?$allocator@U?$pair@$$CBKUIDFACE@@@std@@@3@$00@std@@@std@@QAE?AViterator@12@V312@@Z 00435650 f i EngineLib_A:NsSMeshSceneGraph.obj
 0001:00034920       ?erase@?$_Tree@V?$_Tmap_traits@KKU?$less@K@std@@V?$allocator@U?$pair@$$CBKK@std@@@2@$00@std@@@std@@QAE?AViterator@12@V312@@Z 00435920 f i EngineLib_A:NsSMeshSceneGraph.obj
 0001:00034bf0       ?ReleaseTexture@NSCHARSG@@YAXK@Z 00435bf0 f   EngineLib_A:NsSMeshSceneGraph.obj
 0001:00034c30       ?erase@?$_Tree@V?$_Tmap_traits@KUIDFACE@@U?$less@K@std@@V?$allocator@U?$pair@$$CBKUIDFACE@@@std@@@3@$00@std@@@std@@QAE?AViterator@12@V312@0@Z 00435c30 f i EngineLib_A:NsSMeshSceneGraph.obj
 0001:00034cf0       ?erase@?$_Tree@V?$_Tmap_traits@KKU?$less@K@std@@V?$allocator@U?$pair@$$CBKK@std@@@2@$00@std@@@std@@QAE?AViterator@12@V312@0@Z 00435cf0 f i EngineLib_A:NsSMeshSceneGraph.obj
 0001:00034db0       ?CleanUp@DxDynamicMesh@@AAEXXZ 00435db0 f   EngineLib_A:NsSMeshSceneGraph.obj
 0001:00034e00       ??1DxDynamicMesh@@QAE@XZ   00435e00 f   EngineLib_A:NsSMeshSceneGraph.obj
 0001:00034e60       ??1?$map@KUCOUNTVERTEXFACE@NSCHARSG@@U?$less@K@std@@V?$allocator@U?$pair@$$CBKUCOUNTVERTEXFACE@NSCHARSG@@@std@@@4@@std@@QAE@XZ 00435e60 f i EngineLib_A:NsSMeshSceneGraph.obj
 0001:00034e90       ??0?$map@KUCOUNTVERTEXFACE@NSCHARSG@@U?$less@K@std@@V?$allocator@U?$pair@$$CBKUCOUNTVERTEXFACE@NSCHARSG@@@std@@@4@@std@@QAE@XZ 00435e90 f i EngineLib_A:NsSMeshSceneGraph.obj
 0001:00034ec0       ??1?$multimap@KKU?$less@K@std@@V?$allocator@U?$pair@$$CBKK@std@@@2@@std@@QAE@XZ 00435ec0 f i EngineLib_A:NsSMeshSceneGraph.obj
 0001:00034ef0       ??1?$multimap@KUIDFACE@@U?$less@K@std@@V?$allocator@U?$pair@$$CBKUIDFACE@@@std@@@3@@std@@QAE@XZ 00435ef0 f i EngineLib_A:NsSMeshSceneGraph.obj
 0001:00034f20       ??0?$multimap@KUIDFACE@@U?$less@K@std@@V?$allocator@U?$pair@$$CBKUIDFACE@@@std@@@3@@std@@QAE@XZ 00435f20 f i EngineLib_A:NsSMeshSceneGraph.obj
 0001:00034f50       ??0SMeshDynamicRenderMan@@QAE@XZ 00435f50 f   EngineLib_A:NsSMeshSceneGraph.obj
 0001:00034fc0       ??$for_each@Viterator@?$vector@PAVDxDynamicMesh@@V?$allocator@PAVDxDynamicMesh@@@std@@@std@@UDeleteObject@std_afunc@@@std@@YA?AUDeleteObject@std_afunc@@Viterator@?$vector@PAVDxDynamicMesh@@V?$allocator@PAVDxDynamicMesh@@@std@@@0@0U12@@Z 00435fc0 f i EngineLib_A:NsSMeshSceneGraph.obj
 0001:00035000       ??1SMeshDynamicRenderMan@@QAE@XZ 00436000 f   EngineLib_A:NsSMeshSceneGraph.obj
 0001:000350c0       ?ConvertFileName@DxSimpleMeshMan@@IAEXPADHPBDK@Z 004360c0 f   EngineLib_A:DxSimpleMeshMan.obj
 0001:000351d0       ?erase@?$_Tree@V?$_Tmap_traits@V?$basic_string@DU?$char_traits@D@std@@V?$allocator@D@2@@std@@PAVDxSimMesh@@U?$less@V?$basic_string@DU?$char_traits@D@std@@V?$allocator@D@2@@std@@@2@V?$allocator@U?$pair@$$CBV?$basic_string@DU?$char_traits@D@std@@V?$allocator@D@2@@std@@PAVDxSimMesh@@@std@@@2@$0A@@std@@@std@@QAE?AViterator@12@V312@@Z 004361d0 f i EngineLib_A:DxSimpleMeshMan.obj
 0001:000354b0       ?_Erase@?$_Tree@V?$_Tmap_traits@V?$basic_string@DU?$char_traits@D@std@@V?$allocator@D@2@@std@@PAVDxSimMesh@@U?$less@V?$basic_string@DU?$char_traits@D@std@@V?$allocator@D@2@@std@@@2@V?$allocator@U?$pair@$$CBV?$basic_string@DU?$char_traits@D@std@@V?$allocator@D@2@@std@@PAVDxSimMesh@@@std@@@2@$0A@@std@@@std@@IAEXPAU_Node@?$_Tree_nod@V?$_Tmap_traits@V?$basic_string@DU?$char_traits@D@std@@V?$allocator@D@2@@std@@PAVDxSimMesh@@U?$less@V?$basic_string@DU?$char_traits@D@std@@V?$allocator@D@2@@std@@@2@V?$allocator@U?$pair@$$CBV?$basic_string@DU?$char_traits@D@std@@V?$allocator@D@2@@std@@PAVDxSimMesh@@@std@@@2@$0A@@std@@@2@@Z 004364b0 f i EngineLib_A:DxSimpleMeshMan.obj
 0001:000354f0       ?Release@DxSimpleMeshMan@@QAEJPBDKH@Z 004364f0 f   EngineLib_A:DxSimpleMeshMan.obj
 0001:00035660       ?erase@?$_Tree@V?$_Tmap_traits@V?$basic_string@DU?$char_traits@D@std@@V?$allocator@D@2@@std@@PAVDxSimMesh@@U?$less@V?$basic_string@DU?$char_traits@D@std@@V?$allocator@D@2@@std@@@2@V?$allocator@U?$pair@$$CBV?$basic_string@DU?$char_traits@D@std@@V?$allocator@D@2@@std@@PAVDxSimMesh@@@std@@@2@$0A@@std@@@std@@QAE?AViterator@12@V312@0@Z 00436660 f i EngineLib_A:DxSimpleMeshMan.obj
 0001:00035720       ??1?$map@V?$basic_string@DU?$char_traits@D@std@@V?$allocator@D@2@@std@@PAVDxSimMesh@@U?$less@V?$basic_string@DU?$char_traits@D@std@@V?$allocator@D@2@@std@@@2@V?$allocator@U?$pair@$$CBV?$basic_string@DU?$char_traits@D@std@@V?$allocator@D@2@@std@@PAVDxSimMesh@@@std@@@2@@std@@QAE@XZ 00436720 f i EngineLib_A:DxSimpleMeshMan.obj
 0001:00035750       ??1DxSimpleMeshMan@@QAE@XZ 00436750 f   EngineLib_A:DxSimpleMeshMan.obj
 0001:000357f0       ??0DxSimpleMeshMan@@IAE@XZ 004367f0 f   EngineLib_A:DxSimpleMeshMan.obj
 0001:00035890       ?GetInstance@DxSimpleMeshMan@@SAAAV1@XZ 00436890 f   EngineLib_A:DxSimpleMeshMan.obj
 0001:000358f0       ??1DxSkinPieceRootData@@QAE@XZ 004368f0 f   EngineLib_A:DxSkinPieceRootData.obj
 0001:00035960       ??1_Node@?$_Tree_nod@V?$_Tmap_traits@V?$CStringT@DV?$StrTraitMFC_DLL@DV?$ChTraitsCRT@D@ATL@@@@@ATL@@PAVDxSkinPieceRootData@@U?$less@V?$CStringT@DV?$StrTraitMFC_DLL@DV?$ChTraitsCRT@D@ATL@@@@@ATL@@@std@@V?$allocator@U?$pair@$$CBV?$CStringT@DV?$StrTraitMFC_DLL@DV?$ChTraitsCRT@D@ATL@@@@@ATL@@PAVDxSkinPieceRootData@@@std@@@5@$0A@@std@@@std@@QAE@XZ 00436960 f i EngineLib_A:DxSkinPieceRootData.obj
 0001:00035970       ?_Lbound@?$_Tree@V?$_Tmap_traits@V?$CStringT@DV?$StrTraitMFC_DLL@DV?$ChTraitsCRT@D@ATL@@@@@ATL@@PAVDxSkinPieceRootData@@U?$less@V?$CStringT@DV?$StrTraitMFC_DLL@DV?$ChTraitsCRT@D@ATL@@@@@ATL@@@std@@V?$allocator@U?$pair@$$CBV?$CStringT@DV?$StrTraitMFC_DLL@DV?$ChTraitsCRT@D@ATL@@@@@ATL@@PAVDxSkinPieceRootData@@@std@@@5@$0A@@std@@@std@@IBEPAU_Node@?$_Tree_nod@V?$_Tmap_traits@V?$CStringT@DV?$StrTraitMFC_DLL@DV?$ChTraitsCRT@D@ATL@@@@@ATL@@PAVDxSkinPieceRootData@@U?$less@V?$CStringT@DV?$StrTraitMFC_DLL@DV?$ChTraitsCRT@D@ATL@@@@@ATL@@@std@@V?$allocator@U?$pair@$$CBV?$CStringT@DV?$StrTraitMFC_DLL@DV?$ChTraitsCRT@D@ATL@@@@@ATL@@PAVDxSkinPieceRootData@@@std@@@5@$0A@@std@@@2@ABV?$CStringT@DV?$StrTraitMFC_DLL@DV?$ChTraitsCRT@D@ATL@@@@@ATL@@@Z 00436970 f i EngineLib_A:DxSkinPieceRootData.obj
 0001:000359b0       ?FindData@DxSkinPieceRootDataContainer@@QAEPAVDxSkinPieceRootData@@PBD@Z 004369b0 f   EngineLib_A:DxSkinPieceRootData.obj
 0001:00035a80       ?erase@?$_Tree@V?$_Tmap_traits@V?$CStringT@DV?$StrTraitMFC_DLL@DV?$ChTraitsCRT@D@ATL@@@@@ATL@@PAVDxSkinPieceRootData@@U?$less@V?$CStringT@DV?$StrTraitMFC_DLL@DV?$ChTraitsCRT@D@ATL@@@@@ATL@@@std@@V?$allocator@U?$pair@$$CBV?$CStringT@DV?$StrTraitMFC_DLL@DV?$ChTraitsCRT@D@ATL@@@@@ATL@@PAVDxSkinPieceRootData@@@std@@@5@$0A@@std@@@std@@QAE?AViterator@12@V312@@Z 00436a80 f i EngineLib_A:DxSkinPieceRootData.obj
 0001:00035d60       ?_Erase@?$_Tree@V?$_Tmap_traits@V?$CStringT@DV?$StrTraitMFC_DLL@DV?$ChTraitsCRT@D@ATL@@@@@ATL@@PAVDxSkinPieceRootData@@U?$less@V?$CStringT@DV?$StrTraitMFC_DLL@DV?$ChTraitsCRT@D@ATL@@@@@ATL@@@std@@V?$allocator@U?$pair@$$CBV?$CStringT@DV?$StrTraitMFC_DLL@DV?$ChTraitsCRT@D@ATL@@@@@ATL@@PAVDxSkinPieceRootData@@@std@@@5@$0A@@std@@@std@@IAEXPAU_Node@?$_Tree_nod@V?$_Tmap_traits@V?$CStringT@DV?$StrTraitMFC_DLL@DV?$ChTraitsCRT@D@ATL@@@@@ATL@@PAVDxSkinPieceRootData@@U?$less@V?$CStringT@DV?$StrTraitMFC_DLL@DV?$ChTraitsCRT@D@ATL@@@@@ATL@@@std@@V?$allocator@U?$pair@$$CBV?$CStringT@DV?$StrTraitMFC_DLL@DV?$ChTraitsCRT@D@ATL@@@@@ATL@@PAVDxSkinPieceRootData@@@std@@@5@$0A@@std@@@2@@Z 00436d60 f i EngineLib_A:DxSkinPieceRootData.obj
 0001:00035da0       ?DeleteData@DxSkinPieceRootDataContainer@@QAEHPBD@Z 00436da0 f   EngineLib_A:DxSkinPieceRootData.obj
 0001:00035ea0       ?ReleaseData@DxSkinPieceRootDataContainer@@QAEXPBD@Z 00436ea0 f   EngineLib_A:DxSkinPieceRootData.obj
 0001:00035ee0       ?erase@?$_Tree@V?$_Tmap_traits@V?$CStringT@DV?$StrTraitMFC_DLL@DV?$ChTraitsCRT@D@ATL@@@@@ATL@@PAVDxSkinPieceRootData@@U?$less@V?$CStringT@DV?$StrTraitMFC_DLL@DV?$ChTraitsCRT@D@ATL@@@@@ATL@@@std@@V?$allocator@U?$pair@$$CBV?$CStringT@DV?$StrTraitMFC_DLL@DV?$ChTraitsCRT@D@ATL@@@@@ATL@@PAVDxSkinPieceRootData@@@std@@@5@$0A@@std@@@std@@QAE?AViterator@12@V312@0@Z 00436ee0 f i EngineLib_A:DxSkinPieceRootData.obj
 0001:00035fa0       ??1DxSkinPieceRootDataContainer@@QAE@XZ 00436fa0 f   EngineLib_A:DxSkinPieceRootData.obj
 0001:00035fe0       ?GetInstance@DxSkinPieceRootDataContainer@@SAAAV1@XZ 00436fe0 f   EngineLib_A:DxSkinPieceRootData.obj
 0001:00036080       ?_Erase@?$_Tree@V?$_Tmap_traits@KUOBJQUADTemp@@U?$less@K@std@@V?$allocator@U?$pair@$$CBKUOBJQUADTemp@@@std@@@3@$0A@@std@@@std@@IAEXPAU_Node@?$_Tree_nod@V?$_Tmap_traits@KUOBJQUADTemp@@U?$less@K@std@@V?$allocator@U?$pair@$$CBKUOBJQUADTemp@@@std@@@3@$0A@@std@@@2@@Z 00437080 f i EngineLib_A:DxMapEditMan.obj
 0001:000360c0       ?_Lrotate@?$_Tree@V?$_Tmap_traits@MPAVDXLIGHT@@U?$less@M@std@@V?$allocator@U?$pair@$$CBMPAVDXLIGHT@@@std@@@3@$00@std@@@std@@IAEXPAU_Node@?$_Tree_nod@V?$_Tmap_traits@MPAVDXLIGHT@@U?$less@M@std@@V?$allocator@U?$pair@$$CBMPAVDXLIGHT@@@std@@@3@$00@std@@@2@@Z 004370c0 f i EngineLib_A:DxLightMan.obj
 0001:000360c0       ?_Lrotate@?$_Tree@V?$_Tmap_traits@KKU?$less@K@std@@V?$allocator@U?$pair@$$CBKK@std@@@2@$00@std@@@std@@IAEXPAU_Node@?$_Tree_nod@V?$_Tmap_traits@KKU?$less@K@std@@V?$allocator@U?$pair@$$CBKK@std@@@2@$00@std@@@2@@Z 004370c0 f i EngineLib_A:NsSMeshSceneGraph.obj
 0001:000360c0       ?_Lrotate@?$_Tree@V?$_Tmap_traits@KUOBJQUADTemp@@U?$less@K@std@@V?$allocator@U?$pair@$$CBKUOBJQUADTemp@@@std@@@3@$0A@@std@@@std@@IAEXPAU_Node@?$_Tree_nod@V?$_Tmap_traits@KUOBJQUADTemp@@U?$less@K@std@@V?$allocator@U?$pair@$$CBKUOBJQUADTemp@@@std@@@3@$0A@@std@@@2@@Z 004370c0 f i EngineLib_A:DxMapEditManThread.obj
 0001:000360c0       ?_Lrotate@?$_Tree@V?$_Tmap_traits@U?$pair@GG@std@@PAUSINVENITEM@@U?$less@U?$pair@GG@std@@@2@V?$allocator@U?$pair@$$CBU?$pair@GG@std@@PAUSINVENITEM@@@std@@@2@$0A@@std@@@std@@IAEXPAU_Node@?$_Tree_nod@V?$_Tmap_traits@U?$pair@GG@std@@PAUSINVENITEM@@U?$less@U?$pair@GG@std@@@2@V?$allocator@U?$pair@$$CBU?$pair@GG@std@@PAUSINVENITEM@@@std@@@2@$0A@@std@@@2@@Z 004370c0 f i RanClientLib_A:GLInventory.obj
 0001:000360c0       ?_Lrotate@?$_Tree@V?$_Tmap_traits@HHU?$less@H@std@@V?$allocator@U?$pair@$$CBHH@std@@@2@$0A@@std@@@std@@IAEXPAU_Node@?$_Tree_nod@V?$_Tmap_traits@HHU?$less@H@std@@V?$allocator@U?$pair@$$CBHH@std@@@2@$0A@@std@@@2@@Z 004370c0 f i NetServerLib_A:s_CClientManager.obj
 0001:000360c0       ?_Lrotate@?$_Tree@V?$_Tmap_traits@V?$CStringT@DV?$StrTraitMFC_DLL@DV?$ChTraitsCRT@D@ATL@@@@@ATL@@PAVDxSkinPieceRootData@@U?$less@V?$CStringT@DV?$StrTraitMFC_DLL@DV?$ChTraitsCRT@D@ATL@@@@@ATL@@@std@@V?$allocator@U?$pair@$$CBV?$CStringT@DV?$StrTraitMFC_DLL@DV?$ChTraitsCRT@D@ATL@@@@@ATL@@PAVDxSkinPieceRootData@@@std@@@5@$0A@@std@@@std@@IAEXPAU_Node@?$_Tree_nod@V?$_Tmap_traits@V?$CStringT@DV?$StrTraitMFC_DLL@DV?$ChTraitsCRT@D@ATL@@@@@ATL@@PAVDxSkinPieceRootData@@U?$less@V?$CStringT@DV?$StrTraitMFC_DLL@DV?$ChTraitsCRT@D@ATL@@@@@ATL@@@std@@V?$allocator@U?$pair@$$CBV?$CStringT@DV?$StrTraitMFC_DLL@DV?$ChTraitsCRT@D@ATL@@@@@ATL@@PAVDxSkinPieceRootData@@@std@@@5@$0A@@std@@@2@@Z 004370c0 f i EngineLib_A:DxSkinPieceRootData.obj
 0001:00036120       ?erase@?$_Tree@V?$_Tmap_traits@KUOBJQUADTemp@@U?$less@K@std@@V?$allocator@U?$pair@$$CBKUOBJQUADTemp@@@std@@@3@$0A@@std@@@std@@QAE?AViterator@12@V312@@Z 00437120 f i EngineLib_A:DxMapEditManThread.obj
 0001:000363f0       ?erase@?$_Tree@V?$_Tmap_traits@KUOBJQUADTemp@@U?$less@K@std@@V?$allocator@U?$pair@$$CBKUOBJQUADTemp@@@std@@@3@$0A@@std@@@std@@QAE?AViterator@12@V312@0@Z 004373f0 f i EngineLib_A:DxQUADTree.obj
 0001:000364b0       ??1?$map@KUOBJQUADTemp@@U?$less@K@std@@V?$allocator@U?$pair@$$CBKUOBJQUADTemp@@@std@@@3@@std@@QAE@XZ 004374b0 f i EngineLib_A:DxQUADTree.obj
 0001:000364e0       ??0?$map@KUOBJQUADTemp@@U?$less@K@std@@V?$allocator@U?$pair@$$CBKUOBJQUADTemp@@@std@@@3@@std@@QAE@XZ 004374e0 f i EngineLib_A:DxQUADTree.obj
 0001:00036510       ?BugTrapInstall@BUG_TRAP@@YAXAAV?$basic_string@DU?$char_traits@D@std@@V?$allocator@D@2@@std@@_N1@Z 00437510 f   RanClientLib_A:MinBugTrap.obj
 0001:000365d0       ?SETSTORAGE_BYBUF@SCHARDATA2@@QAEHAAVCByteStream@@@Z 004375d0 f   RanClientLib_A:GLCharData.obj
 0001:00036660       ?GETEXPSKILLS_BYBUF@SCHARDATA2@@QBEHAAVCByteStream@@@Z 00437660 f   RanClientLib_A:GLCharData.obj
 0001:000366f0       ?GETPUTONITEMS_BYBUF@SCHARDATA2@@QBEHAAVCByteStream@@@Z 004376f0 f   RanClientLib_A:GLCharData.obj
 0001:00036770       ?GETSKILL_QUICKSLOT@SCHARDATA2@@QBEHAAVCByteStream@@@Z 00437770 f   RanClientLib_A:GLCharData.obj
 0001:00036800       ?GETACTION_QUICKSLOT@SCHARDATA2@@QBEHAAVCByteStream@@@Z 00437800 f   RanClientLib_A:GLCharData.obj
 0001:00036870       ?GETINVENTORYE_BYBUF@SCHARDATA2@@QBEHAAVCByteStream@@@Z 00437870 f   RanClientLib_A:GLCharData.obj
 0001:000368c0       ?GETSTORAGE_BYBUF@SCHARDATA2@@QBEHAAVCByteStream@@@Z 004378c0 f   RanClientLib_A:GLCharData.obj
 0001:00036930       ?GETITEMCOOLTIME_BYBUF@SCHARDATA2@@QBEHAAVCByteStream@@@Z 00437930 f   RanClientLib_A:GLCharData.obj
 0001:00036a30       ?GETQUESTPLAY@SCHARDATA2@@QBEHAAVCByteStream@@@Z 00437a30 f   RanClientLib_A:GLCharData.obj
 0001:00036a80       ??9GLPADATA@@QBEHABU0@@Z   00437a80 f i RanClientLib_A:GLItem.obj
 0001:00036aa0       ??0SITEMCUSTOM@@QAE@XZ     00437aa0 f   RanClientLib_A:GLItem.obj
 0001:00036b20       ?Assign@SITEMCUSTOM@@QAEXABUSITEMCUSTOM_100@@@Z 00437b20 f   RanClientLib_A:GLItem.obj
 0001:00036cc0       ?Assign@SITEMCUSTOM@@QAEXABUSITEMCUSTOM_101@@@Z 00437cc0 f   RanClientLib_A:GLItem.obj
 0001:00036e90       ?Assign@SITEMCUSTOM@@QAEXABUSITEMCUSTOM_102@@@Z 00437e90 f   RanClientLib_A:GLItem.obj
 0001:00037080       ?Assign@SITEMCUSTOM@@QAEXABUSITEMCUSTOM_103@@@Z 00438080 f   RanClientLib_A:GLItem.obj
 0001:00037260       ?Assign@SITEMCUSTOM@@QAEXABUSITEMCUSTOM_104@@@Z 00438260 f   RanClientLib_A:GLItem.obj
 0001:00037460       ?Assign@SITEMCUSTOM@@QAEXABUSITEMCUSTOM_105@@@Z 00438460 f   RanClientLib_A:GLItem.obj
 0001:00037670       ?Assign@SITEMCUSTOM@@QAEXABUSITEMCUSTOM_106@@@Z 00438670 f   RanClientLib_A:GLItem.obj
 0001:00037760       ?Assign@SITEMCUSTOM@@QAEXABUSITEMCUSTOM_107@@@Z 00438760 f   RanClientLib_A:GLItem.obj
 0001:00037860       ?Assign@SITEMCUSTOM@@QAEXABUSITEMCUSTOM_108@@@Z 00438860 f   RanClientLib_A:GLItem.obj
 0001:000378e0       ?Assign@SITEMCUSTOM@@QAEXABUSITEMCUSTOM_109@@@Z 004388e0 f   RanClientLib_A:GLItem.obj
 0001:000379a0       ?Assign@SITEMCUSTOM@@QAEXABUSITEMCUSTOM_110@@@Z 004389a0 f   RanClientLib_A:GLItem.obj
 0001:00037a60       ?Assign@SITEMCUSTOM@@QAEXABUSITEMCUSTOM_111@@@Z 00438a60 f   RanClientLib_A:GLItem.obj
 0001:00037b20       ?Assign@SITEMCUSTOM@@QAEXABUSITEMCUSTOM_112@@@Z 00438b20 f   RanClientLib_A:GLItem.obj
 0001:00037bf0       ?Assign@SITEMCUSTOM@@QAEXABUSITEMCUSTOM_113@@@Z 00438bf0 f   RanClientLib_A:GLItem.obj
 0001:00037cc0       ??0SITEMCUSTOM_104@@QAE@XZ 00438cc0 f i RanClientLib_A:GLItem.obj
 0001:00037cf0       ?SETPUTONITEMS_BYBUF@@YAHPAUSITEMCUSTOM@@AAVCByteStream@@@Z 00438cf0 f   RanClientLib_A:GLItem.obj
 0001:00038230       ??4GLCLUBMEMBER@@QAEAAU0@ABU0@@Z 00439230 f   RanClientLib_A:GLClubMan.obj
 0001:000382b0       ??4GLCLUBINFO@@QAEAAU0@ABU0@@Z 004392b0 f   RanClientLib_A:GLClubMan.obj
 0001:00038480       ??4GLCLUBBATTLE@@QAEAAU0@ABU0@@Z 00439480 f   RanClientLib_A:GLClubMan.obj
 0001:00038530       ?AddJob@GLEmulatorDBMan@@UAEXPAVCDbAction@@@Z 00439530 f i RanClientLib_A:GLAgentServer.obj
 0001:00038530       ?AddLogJob@GLEmulatorDBMan@@UAEXPAVCDbAction@@@Z 00439530 f i RanClientLib_A:GLAgentServer.obj
 0001:00038530       ?AddUserJob@GLEmulatorDBMan@@UAEXPAVCDbAction@@@Z 00439530 f i RanClientLib_A:GLAgentServer.obj
 0001:00038550       ??0PETSTYLE@@QAE@XZ        00439550 f i RanClientLib_A:GLogicData.obj
 0001:00038590       ??1PETSTYLE@@QAE@XZ        00439590 f i RanClientLib_A:GLogicData.obj
 0001:000385b0       ??0SPLAYERKILL@@QAE@ABU0@@Z 004395b0 f i RanClientLib_A:GLogicData.obj
 0001:00038640       ??0?$vector@USANIATTACK@@V?$allocator@USANIATTACK@@@std@@@std@@QAE@XZ 00439640 f i RanClientLib_A:GLogicData.obj
 0001:00038650       ??0GLCONST_CHARCLASS@@QAE@MMMMMMMMMMMMUSCHARSTATS@@UFCHARSTATS@@GGGGMMMM@Z 00439650 f i RanClientLib_A:GLogicData.obj
 0001:00038820       ??1GLCONST_CHARCLASS@@QAE@XZ 00439820 f i RanClientLib_A:GLogicData.obj
 0001:000388c0       ?SET_BYBUFFER@GLQuestPlay@@QBE_NAAVCByteStream@@@Z 004398c0 f   RanClientLib_A:GLQuestPlay.obj
 0001:00038980       ?Assign@SINVENITEM_SAVE@@QAEXABUSINVENITEM_SAVE_104@@@Z 00439980 f i RanClientLib_A:GLInventory.obj
 0001:000389b0       ?Assign@SINVENITEM_SAVE@@QAEXABUSINVENITEM_SAVE_105@@@Z 004399b0 f i RanClientLib_A:GLInventory.obj
 0001:000389e0       ?Assign@SINVENITEM_SAVE@@QAEXABUSINVENITEM_SAVE_106@@@Z 004399e0 f i RanClientLib_A:GLInventory.obj
 0001:00038a10       ?Assign@SINVENITEM_SAVE@@QAEXABUSINVENITEM_SAVE_107@@@Z 00439a10 f i RanClientLib_A:GLInventory.obj
 0001:00038a40       ?Assign@SINVENITEM_SAVE@@QAEXABUSINVENITEM_SAVE_108@@@Z 00439a40 f i RanClientLib_A:GLInventory.obj
 0001:00038a70       ?Assign@SINVENITEM_SAVE@@QAEXABUSINVENITEM_SAVE_109@@@Z 00439a70 f i RanClientLib_A:GLInventory.obj
 0001:00038aa0       ?Assign@SINVENITEM_SAVE@@QAEXABUSINVENITEM_SAVE_110@@@Z 00439aa0 f i RanClientLib_A:GLInventory.obj
 0001:00038ad0       ?Assign@SINVENITEM_SAVE@@QAEXABUSINVENITEM_SAVE_111@@@Z 00439ad0 f i RanClientLib_A:GLInventory.obj
 0001:00038b00       ?Assign@SINVENITEM_SAVE@@QAEXABUSINVENITEM_SAVE_112@@@Z 00439b00 f i RanClientLib_A:GLInventory.obj
 0001:00038b30       ?Assign@SINVENITEM_SAVE@@QAEXABUSINVENITEM_SAVE_113@@@Z 00439b30 f i RanClientLib_A:GLInventory.obj
 0001:00038b60       ??0SINVENITEM@@QAE@XZ      00439b60 f i RanClientLib_A:GLInventory.obj
 0001:00038ba0       ?GetValidCellY@GLInventory@@QBEGXZ 00439ba0 f   RanClientLib_A:GLInventory.obj
 0001:00038bc0       ?IsInsertable@GLInventory@@QAEHGGGG_N@Z 00439bc0 f   RanClientLib_A:GLInventory.obj
 0001:00038c80       ?SetMark@GLInventory@@IAEXGGGG@Z 00439c80 f   RanClientLib_A:GLInventory.obj
 0001:00038cf0       ?ReSetMark@GLInventory@@IAEXGGGG@Z 00439cf0 f   RanClientLib_A:GLInventory.obj
 0001:00038d60       ?_Dec@const_iterator@?$_Tree@V?$_Tmap_traits@HHU?$less@H@std@@V?$allocator@U?$pair@$$CBHH@std@@@2@$0A@@std@@@std@@QAEXXZ 00439d60 f i NetServerLib_A:s_CClientManager.obj
 0001:00038d60       ?_Dec@const_iterator@?$_Tree@V?$_Tmap_traits@U?$pair@GG@std@@PAUSINVENITEM@@U?$less@U?$pair@GG@std@@@2@V?$allocator@U?$pair@$$CBU?$pair@GG@std@@PAUSINVENITEM@@@std@@@2@$0A@@std@@@std@@QAEXXZ 00439d60 f i RanClientLib_A:GLInventory.obj
 0001:00038dc0       ??0SINVENITEM_SAVE_104@@QAE@XZ 00439dc0 f i RanClientLib_A:GLInventory.obj
 0001:00038df0       ?GETITEM_BYBUFFER_FORSTORAGE@GLInventory@@QBEHAAVCByteStream@@@Z 00439df0 f   RanClientLib_A:GLInventory.obj
 0001:00038df0       ?GETITEM_BYBUFFER@GLInventory@@QBEHAAVCByteStream@@@Z 00439df0 f   RanClientLib_A:GLInventory.obj
 0001:00038e50       ?_Erase@?$_Tree@V?$_Tmap_traits@U?$pair@GG@std@@PAUSINVENITEM@@U?$less@U?$pair@GG@std@@@2@V?$allocator@U?$pair@$$CBU?$pair@GG@std@@PAUSINVENITEM@@@std@@@2@$0A@@std@@@std@@IAEXPAU_Node@?$_Tree_nod@V?$_Tmap_traits@U?$pair@GG@std@@PAUSINVENITEM@@U?$less@U?$pair@GG@std@@@2@V?$allocator@U?$pair@$$CBU?$pair@GG@std@@PAUSINVENITEM@@@std@@@2@$0A@@std@@@2@@Z 00439e50 f i RanClientLib_A:GLInventory.obj
 0001:00038e90       ?_Insert@?$_Tree@V?$_Tmap_traits@U?$pair@GG@std@@PAUSINVENITEM@@U?$less@U?$pair@GG@std@@@2@V?$allocator@U?$pair@$$CBU?$pair@GG@std@@PAUSINVENITEM@@@std@@@2@$0A@@std@@@std@@IAE?AViterator@12@_NPAU_Node@?$_Tree_nod@V?$_Tmap_traits@U?$pair@GG@std@@PAUSINVENITEM@@U?$less@U?$pair@GG@std@@@2@V?$allocator@U?$pair@$$CBU?$pair@GG@std@@PAUSINVENITEM@@@std@@@2@$0A@@std@@@2@ABU?$pair@$$CBU?$pair@GG@std@@PAUSINVENITEM@@@2@@Z 00439e90 f i RanClientLib_A:GLInventory.obj
 0001:00039050       ?DeleteItemAll@GLInventory@@QAEXXZ 0043a050 f   RanClientLib_A:GLInventory.obj
 0001:00039120       ?insert@?$_Tree@V?$_Tmap_traits@U?$pair@GG@std@@PAUSINVENITEM@@U?$less@U?$pair@GG@std@@@2@V?$allocator@U?$pair@$$CBU?$pair@GG@std@@PAUSINVENITEM@@@std@@@2@$0A@@std@@@std@@QAE?AU?$pair@Viterator@?$_Tree@V?$_Tmap_traits@U?$pair@GG@std@@PAUSINVENITEM@@U?$less@U?$pair@GG@std@@@2@V?$allocator@U?$pair@$$CBU?$pair@GG@std@@PAUSINVENITEM@@@std@@@2@$0A@@std@@@std@@_N@2@ABU?$pair@$$CBU?$pair@GG@std@@PAUSINVENITEM@@@2@@Z 0043a120 f i RanClientLib_A:GLInventory.obj
 0001:000391f0       ?InsertItem@GLInventory@@QAEHABUSITEMCUSTOM@@GG_N@Z 0043a1f0 f   RanClientLib_A:GLInventory.obj
 0001:00039320       ?SETITEM_BYBUFFER@GLInventory@@QAEHAAVCByteStream@@@Z 0043a320 f   RanClientLib_A:GLInventory.obj
 0001:000399f0       ??0SERVER_SET@RANPARAM@@QAE@XZ 0043a9f0 f i RanClientLib_A:RANPARAM.obj
 0001:00039a50       ??1SERVER_SET@RANPARAM@@QAE@XZ 0043aa50 f i RanClientLib_A:RANPARAM.obj
 0001:00039ab0       ??1SRANDOM_OPT_SET@@QAE@XZ 0043aab0 f i RanClientLib_A:GLItemMan.obj
 0001:00039ad0       ??1SBASIC@ITEM@@QAE@XZ     0043aad0 f i RanClientLib_A:GLItemMan.obj
 0001:00039bf0       ?GetItem@GLItemMan@@QAEPAUSITEM@@GG@Z 0043abf0 f   RanClientLib_A:GLItemMan.obj
 0001:00039c40       ?DeleteDeviceObjects@GLItemMan@@QAEJXZ 0043ac40 f   RanClientLib_A:GLItemMan.obj
 0001:00039f10       ??1SRANDOM_GEN@@QAE@XZ     0043af10 f i RanClientLib_A:GLItemMan.obj
 0001:00039f80       ??1SITEM@@QAE@XZ           0043af80 f i RanClientLib_A:GLItemMan.obj
 0001:00039fe0       ??0SGENITEMS@GLItemMan@@QAE@XZ 0043afe0 f i RanClientLib_A:GLItemMan.obj
 0001:0003a020       ??1SGENITEMS@GLItemMan@@QAE@XZ 0043b020 f i RanClientLib_A:GLItemMan.obj
 0001:0003a060       ??1CItemNode@@QAE@XZ       0043b060 f i RanClientLib_A:GLItemMan.obj
 0001:0003a070       ??0GLItemMan@@QAE@XZ       0043b070 f   RanClientLib_A:GLItemMan.obj
 0001:0003a270       ?FinalCleanup@GLItemMan@@QAEJXZ 0043b270 f   RanClientLib_A:GLItemMan.obj
 0001:0003a3e0       ??1GLItemMan@@QAE@XZ       0043b3e0 f   RanClientLib_A:GLItemMan.obj
 0001:0003a4a0       ?GetInstance@GLItemMan@@SAAAV1@XZ 0043b4a0 f   RanClientLib_A:GLItemMan.obj
 0001:0003a500       ?SET_BYBUFFER@GLQUESTPROG_STEP@@QBEHAAVCByteStream@@@Z 0043b500 f   RanClientLib_A:GLQuest.obj
 0001:0003a5a0       ?SET_BYBUFFER@GLQUESTPROG@@QBEHAAVCByteStream@@@Z 0043b5a0 f   RanClientLib_A:GLQuest.obj
 0001:0003a630       ?_Tidy@?$deque@PAVCDbAction@@V?$allocator@PAVCDbAction@@@std@@@std@@IAEXXZ 0043b630 f i NetServerLib_A:s_CDbAction.obj
 0001:0003a630       ?_Tidy@?$deque@HV?$allocator@H@std@@@std@@IAEXXZ 0043b630 f i NetServerLib_A:s_CClientManager.obj
 0001:0003a630       ?_Tidy@?$deque@PAUCEMULMSG@?A0x6e293656@@V?$allocator@PAUCEMULMSG@?A0x6e293656@@@std@@@std@@IAEXXZ 0043b630 f i RanClientLib_A:DxGlobalStage.obj
 0001:0003a6a0       ?MAKE_UIMSG@@YAKEEEE@Z     0043b6a0 f   EngineUILib_A:UIControlMessage.obj
 0001:0003a6c0       ??1TiXmlBase@@UAE@XZ       0043b6c0 f i EngineUILib_A:tinyxml.obj
 0001:0003a6d0       ??_GTiXmlBase@@UAEPAXI@Z   0043b6d0 f i EngineUILib_A:tinyxml.obj
 0001:0003a6d0       ??_ETiXmlBase@@UAEPAXI@Z   0043b6d0 f i EngineUILib_A:tinyxml.obj
 0001:0003a6f0       ??1TiXmlAttribute@@UAE@XZ  0043b6f0 f i EngineUILib_A:tinyxml.obj
 0001:0003a750       ?PutString@TiXmlBase@@KAXABV?$basic_string@DU?$char_traits@D@std@@V?$allocator@D@2@@std@@PAV23@@Z 0043b750 f   EngineUILib_A:tinyxml.obj
 0001:0003a8f0       ??1TiXmlNode@@UAE@XZ       0043b8f0 f   EngineUILib_A:tinyxml.obj
 0001:0003a960       ?Clear@TiXmlNode@@QAEXXZ   0043b960 f   EngineUILib_A:tinyxml.obj
 0001:0003a990       ?GetDocument@TiXmlNode@@QBEPBVTiXmlDocument@@XZ 0043b990 f   EngineUILib_A:tinyxml.obj
 0001:0003a9c0       ?Accept@TiXmlElement@@UBE_NPAVTiXmlVisitor@@@Z 0043b9c0 f   EngineUILib_A:tinyxml.obj
 0001:0003aa20       ?Print@TiXmlDocument@@UBEXPAU_iobuf@@H@Z 0043ba20 f   EngineUILib_A:tinyxml.obj
 0001:0003aa70       ?PrintData@TiXmlDocument@@UAEXAAV?$basic_string@DU?$char_traits@D@std@@V?$allocator@D@2@@std@@H@Z 0043ba70 f   EngineUILib_A:tinyxml.obj
 0001:0003aab0       ?Accept@TiXmlDocument@@UBE_NPAVTiXmlVisitor@@@Z 0043bab0 f   EngineUILib_A:tinyxml.obj
 0001:0003ab00       ?Print@TiXmlAttribute@@QBEXPAU_iobuf@@HPAV?$basic_string@DU?$char_traits@D@std@@V?$allocator@D@2@@std@@@Z 0043bb00 f   EngineUILib_A:tinyxml.obj
 0001:0003aca0       ?PrintData@TiXmlAttribute@@UAEXAAV?$basic_string@DU?$char_traits@D@std@@V?$allocator@D@2@@std@@H@Z 0043bca0 f   EngineUILib_A:tinyxml.obj
 0001:0003adc0       ?Print@TiXmlComment@@UBEXPAU_iobuf@@H@Z 0043bdc0 f   EngineUILib_A:tinyxml.obj
 0001:0003ae20       ?PrintData@TiXmlComment@@UAEXAAV?$basic_string@DU?$char_traits@D@std@@V?$allocator@D@2@@std@@H@Z 0043be20 f   EngineUILib_A:tinyxml.obj
 0001:0003ae70       ?Accept@TiXmlComment@@UBE_NPAVTiXmlVisitor@@@Z 0043be70 f   EngineUILib_A:tinyxml.obj
 0001:0003ae80       ?Print@TiXmlText@@UBEXPAU_iobuf@@H@Z 0043be80 f   EngineUILib_A:tinyxml.obj
 0001:0003af90       ?PrintData@TiXmlText@@UAEXAAV?$basic_string@DU?$char_traits@D@std@@V?$allocator@D@2@@std@@H@Z 0043bf90 f   EngineUILib_A:tinyxml.obj
 0001:0003b070       ?Accept@TiXmlText@@UBE_NPAVTiXmlVisitor@@@Z 0043c070 f   EngineUILib_A:tinyxml.obj
 0001:0003b080       ?Print@TiXmlDeclaration@@UBEXPAU_iobuf@@HPAV?$basic_string@DU?$char_traits@D@std@@V?$allocator@D@2@@std@@@Z 0043c080 f   EngineUILib_A:tinyxml.obj
 0001:0003b1e0       ?PrintData@TiXmlDeclaration@@UAEXAAV?$basic_string@DU?$char_traits@D@std@@V?$allocator@D@2@@std@@H@Z 0043c1e0 f   EngineUILib_A:tinyxml.obj
 0001:0003b2a0       ?CopyTo@TiXmlDeclaration@@IBEXPAV1@@Z 0043c2a0 f   EngineUILib_A:tinyxml.obj
 0001:0003b300       ?Accept@TiXmlDeclaration@@UBE_NPAVTiXmlVisitor@@@Z 0043c300 f   EngineUILib_A:tinyxml.obj
 0001:0003b310       ?Print@TiXmlUnknown@@UBEXPAU_iobuf@@H@Z 0043c310 f   EngineUILib_A:tinyxml.obj
 0001:0003b370       ?PrintData@TiXmlUnknown@@UAEXAAV?$basic_string@DU?$char_traits@D@std@@V?$allocator@D@2@@std@@H@Z 0043c370 f   EngineUILib_A:tinyxml.obj
 0001:0003b3c0       ?Accept@TiXmlUnknown@@UBE_NPAVTiXmlVisitor@@@Z 0043c3c0 f   EngineUILib_A:tinyxml.obj
 0001:0003b3d0       ??1TiXmlAttributeSet@@QAE@XZ 0043c3d0 f   EngineUILib_A:tinyxml.obj
 0001:0003b3e0       ?Add@TiXmlAttributeSet@@QAEXPAVTiXmlAttribute@@@Z 0043c3e0 f   EngineUILib_A:tinyxml.obj
 0001:0003b400       ?Find@TiXmlAttributeSet@@QBEPBVTiXmlAttribute@@ABV?$basic_string@DU?$char_traits@D@std@@V?$allocator@D@2@@std@@@Z 0043c400 f   EngineUILib_A:tinyxml.obj
 0001:0003b440       ??0TiXmlAttribute@@QAE@XZ  0043c440 f i EngineUILib_A:tinyxml.obj
 0001:0003b4b0       ??0TiXmlAttribute@@QAE@PBD0@Z 0043c4b0 f i EngineUILib_A:tinyxml.obj
 0001:0003b550       ?Print@TiXmlAttribute@@UBEXPAU_iobuf@@H@Z 0043c550 f i EngineUILib_A:tinyxml.obj
 0001:0003b570       ??_ETiXmlAttribute@@UAEPAXI@Z 0043c570 f i EngineUILib_A:tinyxml.obj
 0001:0003b570       ??_GTiXmlAttribute@@UAEPAXI@Z 0043c570 f i EngineUILib_A:tinyxml.obj
 0001:0003b590       ??0TiXmlNode@@IAE@W4NodeType@0@@Z 0043c590 f   EngineUILib_A:tinyxml.obj
 0001:0003b600       ??_GTiXmlNode@@UAEPAXI@Z   0043c600 f i EngineUILib_A:tinyxml.obj
 0001:0003b600       ??_ETiXmlNode@@UAEPAXI@Z   0043c600 f i EngineUILib_A:tinyxml.obj
 0001:0003b620       ?LinkEndChild@TiXmlNode@@QAEPAV1@PAV1@@Z 0043c620 f   EngineUILib_A:tinyxml.obj
 0001:0003b6c0       ?ClearThis@TiXmlElement@@IAEXXZ 0043c6c0 f   EngineUILib_A:tinyxml.obj
 0001:0003b740       ?SetAttribute@TiXmlElement@@QAEXPBD0@Z 0043c740 f   EngineUILib_A:tinyxml.obj
 0001:0003b860       ?Print@TiXmlElement@@UBEXPAU_iobuf@@H@Z 0043c860 f   EngineUILib_A:tinyxml.obj
 0001:0003b9e0       ?PrintData@TiXmlElement@@UAEXAAV?$basic_string@DU?$char_traits@D@std@@V?$allocator@D@2@@std@@H@Z 0043c9e0 f   EngineUILib_A:tinyxml.obj
 0001:0003bb50       ?CopyTo@TiXmlElement@@IBEXPAV1@@Z 0043cb50 f   EngineUILib_A:tinyxml.obj
 0001:0003bbf0       ??0TiXmlDocument@@QAE@XZ   0043cbf0 f   EngineUILib_A:tinyxml.obj
 0001:0003bc80       ?CopyTo@TiXmlDocument@@ABEXPAV1@@Z 0043cc80 f   EngineUILib_A:tinyxml.obj
 0001:0003bcf0       ?Clone@TiXmlDocument@@MBEPAVTiXmlNode@@XZ 0043ccf0 f   EngineUILib_A:tinyxml.obj
 0001:0003bd70       ??_ETiXmlComment@@UAEPAXI@Z 0043cd70 f i EngineUILib_A:tinyxml.obj
 0001:0003bd70       ??_GTiXmlComment@@UAEPAXI@Z 0043cd70 f i EngineUILib_A:tinyxml.obj
 0001:0003bd90       ??1TiXmlComment@@UAE@XZ    0043cd90 f i EngineUILib_A:tinyxml.obj
 0001:0003bda0       ?Print@TiXmlDeclaration@@UBEXPAU_iobuf@@H@Z 0043cda0 f i EngineUILib_A:tinyxml.obj
 0001:0003bdc0       ??_GTiXmlDeclaration@@UAEPAXI@Z 0043cdc0 f i EngineUILib_A:tinyxml.obj
 0001:0003bdc0       ??_ETiXmlDeclaration@@UAEPAXI@Z 0043cdc0 f i EngineUILib_A:tinyxml.obj
 0001:0003bde0       ??1TiXmlDeclaration@@UAE@XZ 0043cde0 f i EngineUILib_A:tinyxml.obj
 0001:0003be50       ??0TiXmlComment@@QAE@XZ    0043ce50 f i EngineUILib_A:tinyxml.obj
 0001:0003be70       ??0TiXmlText@@QAE@PBD@Z    0043ce70 f i EngineUILib_A:tinyxml.obj
 0001:0003bed0       ??_ETiXmlText@@UAEPAXI@Z   0043ced0 f i EngineUILib_A:tinyxml.obj
 0001:0003bed0       ??_GTiXmlText@@UAEPAXI@Z   0043ced0 f i EngineUILib_A:tinyxml.obj
 0001:0003bef0       ??1TiXmlText@@UAE@XZ       0043cef0 f i EngineUILib_A:tinyxml.obj
 0001:0003bf00       ??0TiXmlDeclaration@@QAE@XZ 0043cf00 f i EngineUILib_A:tinyxml.obj
 0001:0003bf70       ??0TiXmlUnknown@@QAE@XZ    0043cf70 f i EngineUILib_A:tinyxml.obj
 0001:0003bf90       ??_ETiXmlUnknown@@UAEPAXI@Z 0043cf90 f i EngineUILib_A:tinyxml.obj
 0001:0003bf90       ??_GTiXmlUnknown@@UAEPAXI@Z 0043cf90 f i EngineUILib_A:tinyxml.obj
 0001:0003bfb0       ??1TiXmlUnknown@@UAE@XZ    0043cfb0 f i EngineUILib_A:tinyxml.obj
 0001:0003bfc0       ??0TiXmlElement@@QAE@PBD@Z 0043cfc0 f   EngineUILib_A:tinyxml.obj
 0001:0003c040       ??1TiXmlElement@@UAE@XZ    0043d040 f   EngineUILib_A:tinyxml.obj
 0001:0003c0a0       ?Clone@TiXmlElement@@UBEPAVTiXmlNode@@XZ 0043d0a0 f   EngineUILib_A:tinyxml.obj
 0001:0003c140       ?Clone@TiXmlComment@@UBEPAVTiXmlNode@@XZ 0043d140 f   EngineUILib_A:tinyxml.obj
 0001:0003c1e0       ?Clone@TiXmlText@@MBEPAVTiXmlNode@@XZ 0043d1e0 f   EngineUILib_A:tinyxml.obj
 0001:0003c280       ?Clone@TiXmlDeclaration@@UBEPAVTiXmlNode@@XZ 0043d280 f   EngineUILib_A:tinyxml.obj
 0001:0003c300       ?Clone@TiXmlUnknown@@UBEPAVTiXmlNode@@XZ 0043d300 f   EngineUILib_A:tinyxml.obj
 0001:0003c3a0       ??_ETiXmlElement@@UAEPAXI@Z 0043d3a0 f i EngineUILib_A:tinyxml.obj
 0001:0003c3a0       ??_GTiXmlElement@@UAEPAXI@Z 0043d3a0 f i EngineUILib_A:tinyxml.obj
 0001:0003c3c0       ?IsWhiteSpace@TiXmlBase@@KA_ND@Z 0043d3c0 f i EngineUILib_A:tinyxmlparser.obj
 0001:0003c3f0       ?ConvertUTF32ToUTF8@TiXmlBase@@KAXKPADPAH@Z 0043d3f0 f   EngineUILib_A:tinyxmlparser.obj
 0001:0003c4f0       ?IsAlpha@TiXmlBase@@KAHEW4TiXmlEncoding@@@Z 0043d4f0 f   EngineUILib_A:tinyxmlparser.obj
 0001:0003c510       ?Stamp@TiXmlParsingData@@QAEXPBDW4TiXmlEncoding@@@Z 0043d510 f   EngineUILib_A:tinyxmlparser.obj
 0001:0003c710       ?SkipWhiteSpace@TiXmlBase@@KAPBDPBDW4TiXmlEncoding@@@Z 0043d710 f   EngineUILib_A:tinyxmlparser.obj
 0001:0003c7d0       ?StreamWhiteSpace@TiXmlBase@@KA_NPAV?$basic_istream@DU?$char_traits@D@std@@@std@@PAV?$basic_string@DU?$char_traits@D@std@@V?$allocator@D@2@@3@@Z 0043d7d0 f   EngineUILib_A:tinyxmlparser.obj
 0001:0003c850       ?StreamTo@TiXmlBase@@KA_NPAV?$basic_istream@DU?$char_traits@D@std@@@std@@HPAV?$basic_string@DU?$char_traits@D@std@@V?$allocator@D@2@@3@@Z 0043d850 f   EngineUILib_A:tinyxmlparser.obj
 0001:0003c8b0       ?ReadName@TiXmlBase@@KAPBDPBDPAV?$basic_string@DU?$char_traits@D@std@@V?$allocator@D@2@@std@@W4TiXmlEncoding@@@Z 0043d8b0 f   EngineUILib_A:tinyxmlparser.obj
 0001:0003c940       ?GetEntity@TiXmlBase@@KAPBDPBDPADPAHW4TiXmlEncoding@@@Z 0043d940 f   EngineUILib_A:tinyxmlparser.obj
 0001:0003cba0       ?StringEqual@TiXmlBase@@KA_NPBD0_NW4TiXmlEncoding@@@Z 0043dba0 f   EngineUILib_A:tinyxmlparser.obj
 0001:0003cc50       ?SetError@TiXmlDocument@@QAEXHPBDPAVTiXmlParsingData@@W4TiXmlEncoding@@@Z 0043dc50 f   EngineUILib_A:tinyxmlparser.obj
 0001:0003ccb0       ?Identify@TiXmlNode@@IAEPAV1@PBDW4TiXmlEncoding@@@Z 0043dcb0 f   EngineUILib_A:tinyxmlparser.obj
 0001:0003cf60       ?StreamIn@TiXmlDeclaration@@MAEXPAV?$basic_istream@DU?$char_traits@D@std@@@std@@PAV?$basic_string@DU?$char_traits@D@std@@V?$allocator@D@2@@3@@Z 0043df60 f   EngineUILib_A:tinyxmlparser.obj
 0001:0003cf60       ?StreamIn@TiXmlUnknown@@MAEXPAV?$basic_istream@DU?$char_traits@D@std@@@std@@PAV?$basic_string@DU?$char_traits@D@std@@V?$allocator@D@2@@3@@Z 0043df60 f   EngineUILib_A:tinyxmlparser.obj
 0001:0003cff0       ?Parse@TiXmlUnknown@@UAEPBDPBDPAVTiXmlParsingData@@W4TiXmlEncoding@@@Z 0043dff0 f   EngineUILib_A:tinyxmlparser.obj
 0001:0003d0d0       ?StreamIn@TiXmlComment@@MAEXPAV?$basic_istream@DU?$char_traits@D@std@@@std@@PAV?$basic_string@DU?$char_traits@D@std@@V?$allocator@D@2@@3@@Z 0043e0d0 f   EngineUILib_A:tinyxmlparser.obj
 0001:0003d1b0       ?StreamIn@TiXmlText@@MAEXPAV?$basic_istream@DU?$char_traits@D@std@@@std@@PAV?$basic_string@DU?$char_traits@D@std@@V?$allocator@D@2@@3@@Z 0043e1b0 f   EngineUILib_A:tinyxmlparser.obj
 0001:0003d290       ?Blank@TiXmlText@@IBE_NXZ  0043e290 f   EngineUILib_A:tinyxmlparser.obj
 0001:0003d2f0       ?GetChar@TiXmlBase@@KAPBDPBDPADPAHW4TiXmlEncoding@@@Z 0043e2f0 f i EngineUILib_A:tinyxmlparser.obj
 0001:0003d380       ?ReadText@TiXmlBase@@KAPBDPBDPAV?$basic_string@DU?$char_traits@D@std@@V?$allocator@D@2@@std@@_N02W4TiXmlEncoding@@@Z 0043e380 f   EngineUILib_A:tinyxmlparser.obj
 0001:0003d530       ?StreamIn@TiXmlDocument@@MAEXPAV?$basic_istream@DU?$char_traits@D@std@@@std@@PAV?$basic_string@DU?$char_traits@D@std@@V?$allocator@D@2@@3@@Z 0043e530 f   EngineUILib_A:tinyxmlparser.obj
 0001:0003d6b0       ?Parse@TiXmlDocument@@UAEPBDPBDPAVTiXmlParsingData@@W4TiXmlEncoding@@@Z 0043e6b0 f   EngineUILib_A:tinyxmlparser.obj
 0001:0003d940       ?StreamIn@TiXmlElement@@MAEXPAV?$basic_istream@DU?$char_traits@D@std@@@std@@PAV?$basic_string@DU?$char_traits@D@std@@V?$allocator@D@2@@3@@Z 0043e940 f   EngineUILib_A:tinyxmlparser.obj
 0001:0003dc70       ?ReadValue@TiXmlElement@@IAEPBDPBDPAVTiXmlParsingData@@W4TiXmlEncoding@@@Z 0043ec70 f   EngineUILib_A:tinyxmlparser.obj
 0001:0003de70       ?Parse@TiXmlComment@@UAEPBDPBDPAVTiXmlParsingData@@W4TiXmlEncoding@@@Z 0043ee70 f   EngineUILib_A:tinyxmlparser.obj
 0001:0003df40       ?Parse@TiXmlAttribute@@UAEPBDPBDPAVTiXmlParsingData@@W4TiXmlEncoding@@@Z 0043ef40 f   EngineUILib_A:tinyxmlparser.obj
 0001:0003e0d0       ?Parse@TiXmlText@@UAEPBDPBDPAVTiXmlParsingData@@W4TiXmlEncoding@@@Z 0043f0d0 f   EngineUILib_A:tinyxmlparser.obj
 0001:0003e2b0       ?Parse@TiXmlDeclaration@@UAEPBDPBDPAVTiXmlParsingData@@W4TiXmlEncoding@@@Z 0043f2b0 f   EngineUILib_A:tinyxmlparser.obj
 0001:0003e580       ?Parse@TiXmlElement@@UAEPBDPBDPAVTiXmlParsingData@@W4TiXmlEncoding@@@Z 0043f580 f   EngineUILib_A:tinyxmlparser.obj
 0001:0003e8f0       ?SetShowCursor@CCursor@@QAEXH@Z 0043f8f0 f   EngineUILib_A:Cursor.obj
 0001:0003e940       ??0CCursor@@IAE@XZ         0043f940 f   EngineUILib_A:Cursor.obj
 0001:0003ea50       ??1CCursor@@QAE@XZ         0043fa50 f   EngineUILib_A:Cursor.obj
 0001:0003eb10       ?GetInstance@CCursor@@SAAAV1@XZ 0043fb10 f   EngineUILib_A:Cursor.obj
 0001:0003eb70       ?_Tidy@?$vector@USSTRING@NS_UITEXTUTIL@@V?$allocator@USSTRING@NS_UITEXTUTIL@@@std@@@std@@IAEXXZ 0043fb70 f i EngineUILib_A:UITextUtil.obj
 0001:0003fc70       _DXGetErrorString9A@4      00440c70 f   DxErr9:dxerr9.obj
 0001:0005191e       _D3DXVec3Normalize@8       0045291e f   d3dx9:d3dx9_26.dll
 0001:00051924       _D3DXVec3Project@24        00452924 f   d3dx9:d3dx9_26.dll
 0001:0005192a       _D3DXGetFVFVertexSize@4    0045292a f   d3dx9:d3dx9_26.dll
 0001:00051930       _D3DXMatrixMultiply@12     00452930 f   d3dx9:d3dx9_26.dll
 0001:00051936       _D3DXMatrixTranslation@16  00452936 f   d3dx9:d3dx9_26.dll
 0001:0005193c       _D3DXMatrixScaling@16      0045293c f   d3dx9:d3dx9_26.dll
 0001:00051942       _D3DXMatrixLookAtLH@16     00452942 f   d3dx9:d3dx9_26.dll
 0001:00051948       _D3DXCreateTextureFromFileExA@56 00452948 f   d3dx9:d3dx9_26.dll
 0001:0005194e       _D3DXCreateTextureFromFileInMemoryEx@60 0045294e f   d3dx9:d3dx9_26.dll
 0001:00051954       _D3DXCreateCubeTextureFromFileExA@52 00452954 f   d3dx9:d3dx9_26.dll
 0001:0005195a       _D3DXCreateCubeTextureFromFileInMemoryEx@56 0045295a f   d3dx9:d3dx9_26.dll
 0001:00051960       ??0CCSAuth2@@QAE@XZ        00452960 f   ggsrvlib:ggsrv.obj
 0001:00051970       ??1CCSAuth2@@QAE@XZ        00452970 f   ggsrvlib:ggsrv.obj
 0001:00051980       ?Init@CCSAuth2@@QAEXXZ     00452980 f   ggsrvlib:ggsrv.obj
 0001:000519e0       ?Close@CCSAuth2@@QAEXXZ    004529e0 f   ggsrvlib:ggsrv.obj
 0001:00051a70       ?AfxThrowOleException@@YGXJ@Z 00452a70 f   mfc71:MFC71.DLL
 0001:00051a76       ?AfxThrowMemoryException@@YGXXZ 00452a76 f   mfc71:MFC71.DLL
 0001:00051a7c       ?AfxGetModuleState@@YGPAVAFX_MODULE_STATE@@XZ 00452a7c f   mfc71:MFC71.DLL
 0001:00051a82       ??3@YAXPAX@Z               00452a82 f   mfc71:MFC71.DLL
 0001:00051a88       ??2@YAPAXI@Z               00452a88 f   mfc71:MFC71.DLL
 0001:00051a8e       ?RemoveKey@CMapStringToPtr@@QAEHPBD@Z 00452a8e f   mfc71:MFC71.DLL
 0001:00051a94       ??0CMapStringToPtr@@QAE@H@Z 00452a94 f   mfc71:MFC71.DLL
 0001:00051a9a       ?GetNextAssoc@CMapStringToPtr@@QBEXAAPAU__POSITION@@AAV?$CStringT@DV?$StrTraitMFC_DLL@DV?$ChTraitsCRT@D@ATL@@@@@ATL@@AAPAX@Z 00452a9a f   mfc71:MFC71.DLL
 0001:00051aa0       ??_V@YAXPAX@Z              00452aa0 f   mfc71:MFC71.DLL
 0001:00051aa6       ??_U@YAPAXI@Z              00452aa6 f   mfc71:MFC71.DLL
 0001:00051aac       ??1CMapStringToPtr@@UAE@XZ 00452aac f   mfc71:MFC71.DLL
 0001:00051ac0       ??0CComCriticalSection@ATL@@QAE@XZ 00452ac0 f i mfcs71:stdafx.obj
 0001:00051ad4       ?Init@CComCriticalSection@ATL@@QAEJXZ 00452ad4 f i mfcs71:stdafx.obj
 0001:00051b24       _malloc                    00452b24 f   msvcrt:MSVCR71.dll
 0001:00051b2a       _free                      00452b2a f   msvcrt:MSVCR71.dll
 0001:00051b30       __except_handler3          00452b30 f   msvcrt:MSVCR71.dll
 0001:00051b40       __alloca_probe             00452b40     msvcrt:chkstk.obj
 0001:00051b40       __chkstk                   00452b40 f   msvcrt:chkstk.obj
 0001:00051b7e       ___CxxFrameHandler         00452b7e f   msvcrt:MSVCR71.dll
 0001:00051b84       ??0exception@@QAE@ABV0@@Z  00452b84 f   msvcrt:MSVCR71.dll
 0001:00051b8a       ??_Etype_info@@UAEPAXI@Z   00452b8a f i msvcrt:ti_inst.obj
 0001:00051bd6       __CxxThrowException@8      00452bd6 f   msvcrt:MSVCR71.dll
 0001:00051bdc       _WinMainCRTStartup         00452bdc f   msvcrt:crtexew.obj
 0001:00051ddb       ?__ArrayUnwind@@YGXPAXIHP6EX0@Z@Z 00452ddb f   msvcrt:ehvecdtr.obj
 0001:00051e39       ??_M@YGXPAXIHP6EX0@Z@Z     00452e39 f   msvcrt:ehvecdtr.obj
 0001:00051e99       ??_L@YGXPAXIHP6EX0@Z1@Z    00452e99 f   msvcrt:ehvecctr.obj
 0001:00051efc       __ftol2                    00452efc f   msvcrt:ftol2.obj
 0001:00051f72       __purecall                 00452f72 f   msvcrt:MSVCR71.dll
 0001:00051f78       __onexit                   00452f78 f   msvcrt:atonexit.obj
 0001:00051f9e       _atexit                    00452f9e f   msvcrt:atonexit.obj
 0001:00051fb0       __alldiv                   00452fb0 f   msvcrt:lldiv.obj
 0001:0005205a       _sprintf                   0045305a f   msvcrt:MSVCR71.dll
 0001:00052060       __allshr                   00453060 f   msvcrt:llshr.obj
 0001:00052090       __allmul                   00453090 f   msvcrt:llmul.obj
 0001:000520c4       _floor                     004530c4 f   msvcrt:MSVCR71.dll
 0001:000520d0       __allrem                   004530d0 f   msvcrt:llrem.obj
 0001:00052190       __alldvrm                  00453190 f   msvcrt:lldvrm.obj
 0001:00052270       __CIacos                   00453270 f   msvcrt:MSVCR71.dll
 0001:00052276       __CIasin                   00453276 f   msvcrt:MSVCR71.dll
 0001:0005227c       __CIpow                    0045327c f   msvcrt:MSVCR71.dll
 0001:00052282       _realloc                   00453282 f   msvcrt:MSVCR71.dll
 0001:00052288       _qsort                     00453288 f   msvcrt:MSVCR71.dll
 0001:0005228e       __controlfp                0045328e f   msvcrt:MSVCR71.dll
 0001:000522c5       @__security_check_cookie@4 004532c5 f   msvcrt:secchk.obj
 0001:000522d4       __ftol                     004532d4 f   msvcrt:MSVCR71.dll
 0001:000522dc       __SEH_prolog               004532dc f   msvcrt:sehprolg.obj
 0001:00052317       __SEH_epilog               00453317 f   msvcrt:sehprolg.obj
 0001:00052328       _memset                    00453328 f   msvcrt:MSVCR71.dll
 0001:00052330       __EH_prolog                00453330 f   msvcrt:ehprolog.obj
 0001:00052350       ??1type_info@@UAE@XZ       00453350 f   msvcrt:MSVCR71.dll
 0001:00052356       __XcptFilter               00453356 f   msvcrt:MSVCR71.dll
 0001:0005235c       _exit                      0045335c f   msvcrt:MSVCR71.dll
 0001:00052362       __amsg_exit                00453362 f   msvcrt:MSVCR71.dll
 0001:00052368       __RTC_Initialize           00453368 f   msvcrt:initsect.obj
 0001:000523ac       __RTC_Terminate            004533ac f   msvcrt:initsect.obj
 0001:000523f0       __initterm                 004533f0 f   msvcrt:MSVCR71.dll
 0001:000523f6       __setdefaultprecision      004533f6 f   msvcrt:fp8.obj
 0001:00052408       __setargv                  00453408 f   msvcrt:dllargv.obj
 0001:00052408       __matherr                  00453408 f   msvcrt:merr.obj
 0001:0005240c       ?terminate@@YAXXZ          0045340c f   msvcrt:MSVCR71.dll
 0001:00052412       ___dllonexit               00453412 f   msvcrt:MSVCR71.dll
 0001:00052418       ___security_init_cookie    00453418 f   msvcrt:seccinit.obj
 0001:0005247e       ___security_error_handler  0045347e f   msvcrt:MSVCR71.dll
 0001:00052484       ?imbue@?$basic_streambuf@DU?$char_traits@D@std@@@std@@MAEXABVlocale@2@@Z 00453484 f   msvcprt:MSVCP71.dll
 0001:0005248a       ?sync@?$basic_streambuf@DU?$char_traits@D@std@@@std@@MAEHXZ 0045348a f   msvcprt:MSVCP71.dll
 0001:00052490       ?setbuf@?$basic_streambuf@DU?$char_traits@D@std@@@std@@MAEPAV12@PADH@Z 00453490 f   msvcprt:MSVCP71.dll
 0001:00052496       ?seekpos@strstreambuf@std@@MAE?AV?$fpos@H@2@V32@H@Z 00453496 f   msvcprt:MSVCP71.dll
 0001:0005249c       ?seekoff@strstreambuf@std@@MAE?AV?$fpos@H@2@JHH@Z 0045349c f   msvcprt:MSVCP71.dll
 0001:000524a2       ?xsputn@?$basic_streambuf@DU?$char_traits@D@std@@@std@@MAEHPBDH@Z 004534a2 f   msvcprt:MSVCP71.dll
 0001:000524a8       ?xsgetn@?$basic_streambuf@DU?$char_traits@D@std@@@std@@MAEHPADH@Z 004534a8 f   msvcprt:MSVCP71.dll
 0001:000524ae       ?uflow@?$basic_streambuf@DU?$char_traits@D@std@@@std@@MAEHXZ 004534ae f   msvcprt:MSVCP71.dll
 0001:000524b4       ?underflow@strstreambuf@std@@MAEHXZ 004534b4 f   msvcprt:MSVCP71.dll
 0001:000524ba       ?showmanyc@?$basic_streambuf@DU?$char_traits@D@std@@@std@@MAEHXZ 004534ba f   msvcprt:MSVCP71.dll
 0001:000524c0       ?pbackfail@strstreambuf@std@@MAEHH@Z 004534c0 f   msvcprt:MSVCP71.dll
 0001:000524c6       ?overflow@strstreambuf@std@@MAEHH@Z 004534c6 f   msvcprt:MSVCP71.dll
 0001:000524cc       _SQLGetDiagRec@32          004534cc f   odbc32:ODBC32.dll
 0001:000524d2       _SQLGetDiagField@28        004534d2 f   odbc32:ODBC32.dll
 0001:000524d8       _SQLGetData@24             004534d8 f   odbc32:ODBC32.dll
 0001:000524de       _SQLFetch@4                004534de f   odbc32:ODBC32.dll
 0001:000524e4       _SQLExecDirect@12          004534e4 f   odbc32:ODBC32.dll
 0001:000524ea       _SQLConnect@28             004534ea f   odbc32:ODBC32.dll
 0001:000524f0       _SQLFreeHandle@8           004534f0 f   odbc32:ODBC32.dll
 0001:000524f6       _SQLSetConnectAttr@16      004534f6 f   odbc32:ODBC32.dll
 0001:000524fc       _SQLAllocHandle@12         004534fc f   odbc32:ODBC32.dll
 0001:00052502       _SQLDisconnect@4           00453502 f   odbc32:ODBC32.dll
 0001:00052508       _SQLCloseCursor@4          00453508 f   odbc32:ODBC32.dll
 0001:0005250e       _SQLExecute@4              0045350e f   odbc32:ODBC32.dll
 0001:00052514       _SQLPrepare@12             00453514 f   odbc32:ODBC32.dll
 0001:0005251a       _SQLBindParameter@40       0045351a f   odbc32:ODBC32.dll
 0001:00052520       _SQLPutData@12             00453520 f   odbc32:ODBC32.dll
 0001:00052526       _SQLParamData@8            00453526 f   odbc32:ODBC32.dll
 0001:0005252c       _SQLSetEnvAttr@16          0045352c f   odbc32:ODBC32.dll
 0001:00052540       ?_com_issue_error@@YGXJ@Z  00453540 f   comsupp:comsupp.obj
 0001:00052550       ?_com_raise_error@@YGXJPAUIErrorInfo@@@Z 00453550 f   comsupp:comraise.obj
 0001:00052590       ??0_com_error@@QAE@ABV0@@Z 00453590 f i comsupp:comraise.obj
 0001:000530b0       _adler32@12                004540b0 f   Zlibstat:adler32.obj
 0001:00053260       __tr_stored_block          00454260 f   Zlibstat:trees.obj
 0001:00053300       __tr_flush_block           00454300 f   Zlibstat:trees.obj
 0001:00054a10       _longest_match             00455a10 f   Zlibstat:gvmat32c.obj
 0001:00054a80       _longest_match_c           00455a80 f   Zlibstat:gvmat32c.obj
 0001:00054bd0       _longest_match_7fff        00455bd0 f   Zlibstat:gvmat32.obj
 0001:000550b1       _cpudetect32               004560b1 f   Zlibstat:gvmat32.obj
 0001:000550ef       _longest_match_686         004560ef f   Zlibstat:gvmat32.obj
 0001:000552d9       ?RemoveAll@?$CSimpleArray@PAUHINSTANCE__@@V?$CSimpleArrayEqualHelper@PAUHINSTANCE__@@@ATL@@@ATL@@QAEXXZ 004562d9 f i atls:atlbase.obj
 0001:000552f6       ??0_ATL_BASE_MODULE70@ATL@@QAE@XZ 004562f6 f i atls:atlbase.obj
 0001:00055310       ??1CAtlBaseModule@ATL@@QAE@XZ 00456310 f   atls:atlbase.obj
 0001:00055326       ??0CAtlBaseModule@ATL@@QAE@XZ 00456326 f   atls:atlbase.obj
 0001:000553e0       ??1CMinLzo@@AAE@XZ         004563e0 f   NetClientLib_A:MinLzo.obj
 0001:00055410       ?init@CMinLzo@@QAEHXZ      00456410 f   NetClientLib_A:MinLzo.obj
 0001:000554a0       ?lzoDeCompress@CMinLzo@@QAEHPAEH0AAH@Z 004564a0 f   NetClientLib_A:MinLzo.obj
 0001:00055540       ?GetInstance@CMinLzo@@SAAAV1@XZ 00456540 f   NetClientLib_A:MinLzo.obj
 0001:000555b0       ??0CHttpPatch@@QAE@XZ      004565b0 f   NetClientLib_A:s_CHttpPatch.obj
 0001:00055600       ??1CHttpPatch@@QAE@XZ      00456600 f   NetClientLib_A:s_CHttpPatch.obj
 0001:00055620       ??0CRcvMsgBuffer@@QAE@XZ   00456620 f   NetClientLib_A:RcvMsgBuffer.obj
 0001:00055670       ??1CRcvMsgBuffer@@QAE@XZ   00456670 f   NetClientLib_A:RcvMsgBuffer.obj
 0001:000556d0       ?addRcvMsg@CRcvMsgBuffer@@QAEHPAXH@Z 004566d0 f   NetClientLib_A:RcvMsgBuffer.obj
 0001:00055730       ?SetGarbageNum@CRcvMsgBuffer@@IAEHXZ 00456730 f   NetClientLib_A:RcvMsgBuffer.obj
 0001:00055820       ?getRcvSize@CRcvMsgBuffer@@QAEHXZ 00456820 f   NetClientLib_A:RcvMsgBuffer.obj
 0001:00055830       ?reset@CRcvMsgBuffer@@QAEXXZ 00456830 f   NetClientLib_A:RcvMsgBuffer.obj
 0001:00055870       ?getOneMsg@CRcvMsgBuffer@@IAEPAX_N@Z 00456870 f   NetClientLib_A:RcvMsgBuffer.obj
 0001:00055990       ?getMsg@CRcvMsgBuffer@@QAEPAX_N@Z 00456990 f   NetClientLib_A:RcvMsgBuffer.obj
 0001:00055b60       _NpLog                     00456b60 f   NetServerLib_A:ggsrv.obj
 0001:00055b80       ??1?$pair@$$CBV?$basic_string@DU?$char_traits@D@std@@V?$allocator@D@2@@std@@K@std@@QAE@XZ 00456b80 f i EngineLib_A:TextureManager.obj
 0001:00055b80       ??1SMATERIAL_PIECE@@QAE@XZ 00456b80 f i EngineLib_A:DxCharPart.obj
 0001:00055b80       ??1?$pair@V?$basic_string@DU?$char_traits@D@std@@V?$allocator@D@2@@std@@PAUSSoundEx@@@std@@QAE@XZ 00456b80 f i EngineSoundLib_A:DxSoundLib.obj
 0001:00055b80       ??1?$pair@$$CBV?$basic_string@DU?$char_traits@D@std@@V?$allocator@D@2@@std@@PAUSSoundEx@@@std@@QAE@XZ 00456b80 f i EngineSoundLib_A:DxSoundLib.obj
 0001:00055b80       ??1?$pair@USWavFileKey@@PAUSWavFileData@@@std@@QAE@XZ 00456b80 f i EngineSoundLib_A:DxSoundMan.obj
 0001:00055b80       ??1SWavFileKey@@QAE@XZ     00456b80 f i EngineSoundLib_A:DxSoundMan.obj
 0001:00055b80       ??1?$pair@$$CBUSWavFileKey@@PAUSWavFileData@@@std@@QAE@XZ 00456b80 f i EngineSoundLib_A:DxSoundMan.obj
 0001:00055b80       ??1?$pair@$$CBV?$basic_string@DU?$char_traits@D@std@@V?$allocator@D@2@@std@@PAVTextureContainer@TextureManager@@@std@@QAE@XZ 00456b80 f i EngineLib_A:TextureManager.obj
 0001:00055b80       ??1STracingData@@QAE@XZ    00456b80 f i NetServerLib_A:s_CSessionServer.obj
 0001:00055b90       ??1SPOSTEXT@CDebugSet@@QAE@XZ 00456b90 f i EngineLib_A:DebugSet.obj
 0001:00055b90       ??1_Node@?$_List_nod@U?$pair@$$CBV?$basic_string@DU?$char_traits@D@std@@V?$allocator@D@2@@std@@PAUSSoundEx@@@std@@V?$allocator@U?$pair@$$CBV?$basic_string@DU?$char_traits@D@std@@V?$allocator@D@2@@std@@PAUSSoundEx@@@std@@@2@@std@@QAE@XZ 00456b90 f i EngineSoundLib_A:DxSoundLib.obj
 0001:00055ba0       ??_GSSoundEx@@UAEPAXI@Z    00456ba0 f i EngineSoundLib_A:DxSoundLib.obj
 0001:00055ba0       ??_ESSoundEx@@UAEPAXI@Z    00456ba0 f i EngineSoundLib_A:DxSoundLib.obj
 0001:00055bc0       ??1SSoundEx@@UAE@XZ        00456bc0 f i EngineSoundLib_A:DxSoundLib.obj
 0001:00055bd0       ?_Xlen@?$vector@Viterator@?$list@U?$pair@$$CBV?$basic_string@DU?$char_traits@D@std@@V?$allocator@D@2@@std@@PAUSSoundEx@@@std@@V?$allocator@U?$pair@$$CBV?$basic_string@DU?$char_traits@D@std@@V?$allocator@D@2@@std@@PAUSSoundEx@@@std@@@2@@std@@V?$allocator@Viterator@?$list@U?$pair@$$CBV?$basic_string@DU?$char_traits@D@std@@V?$allocator@D@2@@std@@PAUSSoundEx@@@std@@V?$allocator@U?$pair@$$CBV?$basic_string@DU?$char_traits@D@std@@V?$allocator@D@2@@std@@PAUSSoundEx@@@std@@@2@@std@@@3@@std@@IBEXXZ 00456bd0 f i EngineSoundLib_A:DxSoundLib.obj
 0001:00055c50       ??$make_pair@V?$basic_string@DU?$char_traits@D@std@@V?$allocator@D@2@@std@@PAUSSoundEx@@@std@@YA?AU?$pair@V?$basic_string@DU?$char_traits@D@std@@V?$allocator@D@2@@std@@PAUSSoundEx@@@0@V?$basic_string@DU?$char_traits@D@std@@V?$allocator@D@2@@0@PAUSSoundEx@@@Z 00456c50 f i EngineSoundLib_A:DxSoundLib.obj
 0001:00055cc0       ?_Incsize@?$list@U?$pair@$$CBV?$basic_string@DU?$char_traits@D@std@@V?$allocator@D@2@@std@@PAUSSoundEx@@@std@@V?$allocator@U?$pair@$$CBV?$basic_string@DU?$char_traits@D@std@@V?$allocator@D@2@@std@@PAUSSoundEx@@@std@@@2@@std@@IAEXI@Z 00456cc0 f i EngineSoundLib_A:DxSoundLib.obj
 0001:00055d60       ?_Buynode@?$list@U?$pair@$$CBV?$basic_string@DU?$char_traits@D@std@@V?$allocator@D@2@@std@@PAUSSoundEx@@@std@@V?$allocator@U?$pair@$$CBV?$basic_string@DU?$char_traits@D@std@@V?$allocator@D@2@@std@@PAUSSoundEx@@@std@@@2@@std@@IAEPAU_Node@?$_List_nod@U?$pair@$$CBV?$basic_string@DU?$char_traits@D@std@@V?$allocator@D@2@@std@@PAUSSoundEx@@@std@@V?$allocator@U?$pair@$$CBV?$basic_string@DU?$char_traits@D@std@@V?$allocator@D@2@@std@@PAUSSoundEx@@@std@@@2@@2@XZ 00456d60 f i EngineSoundLib_A:DxSoundLib.obj
 0001:00055d80       ?_Buynode@?$list@U?$pair@$$CBV?$basic_string@DU?$char_traits@D@std@@V?$allocator@D@2@@std@@PAUSSoundEx@@@std@@V?$allocator@U?$pair@$$CBV?$basic_string@DU?$char_traits@D@std@@V?$allocator@D@2@@std@@PAUSSoundEx@@@std@@@2@@std@@IAEPAU_Node@?$_List_nod@U?$pair@$$CBV?$basic_string@DU?$char_traits@D@std@@V?$allocator@D@2@@std@@PAUSSoundEx@@@std@@V?$allocator@U?$pair@$$CBV?$basic_string@DU?$char_traits@D@std@@V?$allocator@D@2@@std@@PAUSSoundEx@@@std@@@2@@2@PAU342@0ABU?$pair@$$CBV?$basic_string@DU?$char_traits@D@std@@V?$allocator@D@2@@std@@PAUSSoundEx@@@2@@Z 00456d80 f i EngineSoundLib_A:DxSoundLib.obj
 0001:00055e10       ??$_Uninit_fill_n@PAViterator@?$list@U?$pair@$$CBKUPETSKILL@@@std@@V?$allocator@U?$pair@$$CBKUPETSKILL@@@std@@@2@@std@@IV123@V?$allocator@Viterator@?$list@U?$pair@$$CBKUPETSKILL@@@std@@V?$allocator@U?$pair@$$CBKUPETSKILL@@@std@@@2@@std@@@3@@std@@YAXPAViterator@?$list@U?$pair@$$CBKUPETSKILL@@@std@@V?$allocator@U?$pair@$$CBKUPETSKILL@@@std@@@2@@0@IABV120@AAV?$allocator@Viterator@?$list@U?$pair@$$CBKUPETSKILL@@@std@@V?$allocator@U?$pair@$$CBKUPETSKILL@@@std@@@2@@std@@@0@U_Nonscalar_ptr_iterator_tag@0@@Z 00456e10 f i NetServerLib_A:s_COdbcGamePet.obj
 0001:00055e10       ??$_Uninit_fill_n@PAViterator@?$list@U?$pair@$$CBV?$basic_string@DU?$char_traits@D@std@@V?$allocator@D@2@@std@@PAUSSoundEx@@@std@@V?$allocator@U?$pair@$$CBV?$basic_string@DU?$char_traits@D@std@@V?$allocator@D@2@@std@@PAUSSoundEx@@@std@@@2@@std@@IV123@V?$allocator@Viterator@?$list@U?$pair@$$CBV?$basic_string@DU?$char_traits@D@std@@V?$allocator@D@2@@std@@PAUSSoundEx@@@std@@V?$allocator@U?$pair@$$CBV?$basic_string@DU?$char_traits@D@std@@V?$allocator@D@2@@std@@PAUSSoundEx@@@std@@@2@@std@@@3@@std@@YAXPAViterator@?$list@U?$pair@$$CBV?$basic_string@DU?$char_traits@D@std@@V?$allocator@D@2@@std@@PAUSSoundEx@@@std@@V?$allocator@U?$pair@$$CBV?$basic_string@DU?$char_traits@D@std@@V?$allocator@D@2@@std@@PAUSSoundEx@@@std@@@2@@0@IABV120@AAV?$allocator@Viterator@?$list@U?$pair@$$CBV?$basic_string@DU?$char_traits@D@std@@V?$allocator@D@2@@std@@PAUSSoundEx@@@std@@V?$allocator@U?$pair@$$CBV?$basic_string@DU?$char_traits@D@std@@V?$allocator@D@2@@std@@PAUSSoundEx@@@std@@@2@@std@@@0@U_Nonscalar_ptr_iterator_tag@0@@Z 00456e10 f i EngineSoundLib_A:DxSoundLib.obj
 0001:00055e40       ?lower_bound@?$_Hash@V?$_Hmap_traits@V?$basic_string@DU?$char_traits@D@std@@V?$allocator@D@2@@std@@PAUSSoundEx@@V?$hash_compare@V?$basic_string@DU?$char_traits@D@std@@V?$allocator@D@2@@std@@U?$less@V?$basic_string@DU?$char_traits@D@std@@V?$allocator@D@2@@std@@@2@@stdext@@V?$allocator@U?$pair@$$CBV?$basic_string@DU?$char_traits@D@std@@V?$allocator@D@2@@std@@PAUSSoundEx@@@std@@@2@$0A@@stdext@@@stdext@@QAE?AViterator@?$list@U?$pair@$$CBV?$basic_string@DU?$char_traits@D@std@@V?$allocator@D@2@@std@@PAUSSoundEx@@@std@@V?$allocator@U?$pair@$$CBV?$basic_string@DU?$char_traits@D@std@@V?$allocator@D@2@@std@@PAUSSoundEx@@@std@@@2@@std@@ABV?$basic_string@DU?$char_traits@D@std@@V?$allocator@D@2@@5@@Z 00456e40 f i EngineSoundLib_A:DxSoundLib.obj
 0001:00055f00       ?clear@?$list@U?$pair@$$CBV?$basic_string@DU?$char_traits@D@std@@V?$allocator@D@2@@std@@PAUSSoundEx@@@std@@V?$allocator@U?$pair@$$CBV?$basic_string@DU?$char_traits@D@std@@V?$allocator@D@2@@std@@PAUSSoundEx@@@std@@@2@@std@@QAEXXZ 00456f00 f i EngineSoundLib_A:DxSoundLib.obj
 0001:00055f40       ?erase@?$_Hash@V?$_Hmap_traits@V?$basic_string@DU?$char_traits@D@std@@V?$allocator@D@2@@std@@PAUSSoundEx@@V?$hash_compare@V?$basic_string@DU?$char_traits@D@std@@V?$allocator@D@2@@std@@U?$less@V?$basic_string@DU?$char_traits@D@std@@V?$allocator@D@2@@std@@@2@@stdext@@V?$allocator@U?$pair@$$CBV?$basic_string@DU?$char_traits@D@std@@V?$allocator@D@2@@std@@PAUSSoundEx@@@std@@@2@$0A@@stdext@@@stdext@@QAE?AViterator@?$list@U?$pair@$$CBV?$basic_string@DU?$char_traits@D@std@@V?$allocator@D@2@@std@@PAUSSoundEx@@@std@@V?$allocator@U?$pair@$$CBV?$basic_string@DU?$char_traits@D@std@@V?$allocator@D@2@@std@@PAUSSoundEx@@@std@@@2@@std@@V345@@Z 00456f40 f i EngineSoundLib_A:DxSoundLib.obj
 0001:00055fd0       ??1?$list@U?$pair@$$CBV?$basic_string@DU?$char_traits@D@std@@V?$allocator@D@2@@std@@PAUSSoundEx@@@std@@V?$allocator@U?$pair@$$CBV?$basic_string@DU?$char_traits@D@std@@V?$allocator@D@2@@std@@PAUSSoundEx@@@std@@@2@@std@@QAE@XZ 00456fd0 f i EngineSoundLib_A:DxSoundLib.obj
 0001:00055ff0       ?_Insert_n@?$vector@Viterator@?$list@U?$pair@$$CBV?$basic_string@DU?$char_traits@D@std@@V?$allocator@D@2@@std@@PAUSSoundEx@@@std@@V?$allocator@U?$pair@$$CBV?$basic_string@DU?$char_traits@D@std@@V?$allocator@D@2@@std@@PAUSSoundEx@@@std@@@2@@std@@V?$allocator@Viterator@?$list@U?$pair@$$CBV?$basic_string@DU?$char_traits@D@std@@V?$allocator@D@2@@std@@PAUSSoundEx@@@std@@V?$allocator@U?$pair@$$CBV?$basic_string@DU?$char_traits@D@std@@V?$allocator@D@2@@std@@PAUSSoundEx@@@std@@@2@@std@@@3@@std@@IAEXViterator@12@IABV3?$list@U?$pair@$$CBV?$basic_string@DU?$char_traits@D@std@@V?$allocator@D@2@@std@@PAUSSoundEx@@@std@@V?$allocator@U?$pair@$$CBV?$basic_string@DU?$char_traits@D@std@@V?$allocator@D@2@@std@@PAUSSoundEx@@@std@@@2@@2@@Z 00456ff0 f i EngineSoundLib_A:DxSoundLib.obj
 0001:00056230       ?_Construct_n@?$vector@Viterator@?$list@U?$pair@$$CBV?$basic_string@DU?$char_traits@D@std@@V?$allocator@D@2@@std@@PAUSSoundEx@@@std@@V?$allocator@U?$pair@$$CBV?$basic_string@DU?$char_traits@D@std@@V?$allocator@D@2@@std@@PAUSSoundEx@@@std@@@2@@std@@V?$allocator@Viterator@?$list@U?$pair@$$CBV?$basic_string@DU?$char_traits@D@std@@V?$allocator@D@2@@std@@PAUSSoundEx@@@std@@V?$allocator@U?$pair@$$CBV?$basic_string@DU?$char_traits@D@std@@V?$allocator@D@2@@std@@PAUSSoundEx@@@std@@@2@@std@@@3@@std@@QAEXIABViterator@?$list@U?$pair@$$CBV?$basic_string@DU?$char_traits@D@std@@V?$allocator@D@2@@std@@PAUSSoundEx@@@std@@V?$allocator@U?$pair@$$CBV?$basic_string@DU?$char_traits@D@std@@V?$allocator@D@2@@std@@PAUSSoundEx@@@std@@@2@@2@@Z 00457230 f i EngineSoundLib_A:DxSoundLib.obj
 0001:000562e0       ?ReleaseSound@DxSoundLib@@QAE_NV?$basic_string@DU?$char_traits@D@std@@V?$allocator@D@2@@std@@@Z 004572e0 f   EngineSoundLib_A:DxSoundLib.obj
 0001:00056390       ?PlaySoundA@DxSoundLib@@QAE_NV?$basic_string@DU?$char_traits@D@std@@V?$allocator@D@2@@std@@@Z 00457390 f   EngineSoundLib_A:DxSoundLib.obj
 0001:000564c0       ?StopSound@DxSoundLib@@QAE_NV?$basic_string@DU?$char_traits@D@std@@V?$allocator@D@2@@std@@@Z 004574c0 f   EngineSoundLib_A:DxSoundLib.obj
 0001:00056560       ?resize@?$vector@Viterator@?$list@U?$pair@$$CBV?$basic_string@DU?$char_traits@D@std@@V?$allocator@D@2@@std@@PAUSSoundEx@@@std@@V?$allocator@U?$pair@$$CBV?$basic_string@DU?$char_traits@D@std@@V?$allocator@D@2@@std@@PAUSSoundEx@@@std@@@2@@std@@V?$allocator@Viterator@?$list@U?$pair@$$CBV?$basic_string@DU?$char_traits@D@std@@V?$allocator@D@2@@std@@PAUSSoundEx@@@std@@V?$allocator@U?$pair@$$CBV?$basic_string@DU?$char_traits@D@std@@V?$allocator@D@2@@std@@PAUSSoundEx@@@std@@@2@@std@@@3@@std@@QAEXIViterator@?$list@U?$pair@$$CBV?$basic_string@DU?$char_traits@D@std@@V?$allocator@D@2@@std@@PAUSSoundEx@@@std@@V?$allocator@U?$pair@$$CBV?$basic_string@DU?$char_traits@D@std@@V?$allocator@D@2@@std@@PAUSSoundEx@@@std@@@2@@2@@Z 00457560 f i EngineSoundLib_A:DxSoundLib.obj
 0001:000565d0       ?insert@?$_Hash@V?$_Hmap_traits@V?$basic_string@DU?$char_traits@D@std@@V?$allocator@D@2@@std@@PAUSSoundEx@@V?$hash_compare@V?$basic_string@DU?$char_traits@D@std@@V?$allocator@D@2@@std@@U?$less@V?$basic_string@DU?$char_traits@D@std@@V?$allocator@D@2@@std@@@2@@stdext@@V?$allocator@U?$pair@$$CBV?$basic_string@DU?$char_traits@D@std@@V?$allocator@D@2@@std@@PAUSSoundEx@@@std@@@2@$0A@@stdext@@@stdext@@QAE?AU?$pair@Viterator@?$list@U?$pair@$$CBV?$basic_string@DU?$char_traits@D@std@@V?$allocator@D@2@@std@@PAUSSoundEx@@@std@@V?$allocator@U?$pair@$$CBV?$basic_string@DU?$char_traits@D@std@@V?$allocator@D@2@@std@@PAUSSoundEx@@@std@@@2@@std@@_N@std@@ABU?$pair@$$CBV?$basic_string@DU?$char_traits@D@std@@V?$allocator@D@2@@std@@PAUSSoundEx@@@4@@Z 004575d0 f i EngineSoundLib_A:DxSoundLib.obj
 0001:00056890       ??0?$_Hash@V?$_Hmap_traits@V?$basic_string@DU?$char_traits@D@std@@V?$allocator@D@2@@std@@PAUSSoundEx@@V?$hash_compare@V?$basic_string@DU?$char_traits@D@std@@V?$allocator@D@2@@std@@U?$less@V?$basic_string@DU?$char_traits@D@std@@V?$allocator@D@2@@std@@@2@@stdext@@V?$allocator@U?$pair@$$CBV?$basic_string@DU?$char_traits@D@std@@V?$allocator@D@2@@std@@PAUSSoundEx@@@std@@@2@$0A@@stdext@@@stdext@@QAE@ABV?$hash_compare@V?$basic_string@DU?$char_traits@D@std@@V?$allocator@D@2@@std@@U?$less@V?$basic_string@DU?$char_traits@D@std@@V?$allocator@D@2@@std@@@2@@1@ABV?$allocator@U?$pair@$$CBV?$basic_string@DU?$char_traits@D@std@@V?$allocator@D@2@@std@@PAUSSoundEx@@@std@@@std@@@Z 00457890 f i EngineSoundLib_A:DxSoundLib.obj
 0001:00056910       ??1?$hash_map@V?$basic_string@DU?$char_traits@D@std@@V?$allocator@D@2@@std@@PAUSSoundEx@@V?$hash_compare@V?$basic_string@DU?$char_traits@D@std@@V?$allocator@D@2@@std@@U?$less@V?$basic_string@DU?$char_traits@D@std@@V?$allocator@D@2@@std@@@2@@stdext@@V?$allocator@U?$pair@$$CBV?$basic_string@DU?$char_traits@D@std@@V?$allocator@D@2@@std@@PAUSSoundEx@@@std@@@2@@stdext@@QAE@XZ 00457910 f i EngineSoundLib_A:DxSoundLib.obj
 0001:00056950       ?CreateSound@DxSoundLib@@QAE_NV?$basic_string@DU?$char_traits@D@std@@V?$allocator@D@2@@std@@0H_N@Z 00457950 f   EngineSoundLib_A:DxSoundLib.obj
 0001:00056b30       ?ReleaseAllSound@DxSoundLib@@QAE_NXZ 00457b30 f   EngineSoundLib_A:DxSoundLib.obj
 0001:00056be0       ??1DxSoundLib@@EAE@XZ      00457be0 f   EngineSoundLib_A:DxSoundLib.obj
 0001:00056c60       ??_GDxSoundLib@@EAEPAXI@Z  00457c60 f i EngineSoundLib_A:DxSoundLib.obj
 0001:00056c60       ??_EDxSoundLib@@EAEPAXI@Z  00457c60 f i EngineSoundLib_A:DxSoundLib.obj
 0001:00056c80       ?GetInstance@DxSoundLib@@SAPAV1@XZ 00457c80 f   EngineSoundLib_A:DxSoundLib.obj
 0001:00056d00       ??0SSound@@QAE@XZ          00457d00 f   EngineSoundLib_A:SuperSound.obj
 0001:00056d30       ?Stop@SSound@@QAE_NXZ      00457d30 f   EngineSoundLib_A:SuperSound.obj
 0001:00056d70       ?SetVolume@SSound@@QAE_NJ@Z 00457d70 f   EngineSoundLib_A:SuperSound.obj
 0001:00056dd0       ?UnLoad@SSound@@QAE_NXZ    00457dd0 f   EngineSoundLib_A:SuperSound.obj
 0001:00056e90       ?Play@SSound@@UAE_NXZ      00457e90 f   EngineSoundLib_A:SuperSound.obj
 0001:00056ef0       ??1SSound@@UAE@XZ          00457ef0 f   EngineSoundLib_A:SuperSound.obj
 0001:00056f50       ?Load@SSound@@QAE_NV?$basic_string@DU?$char_traits@D@std@@V?$allocator@D@2@@std@@_N1@Z 00457f50 f   EngineSoundLib_A:SuperSound.obj
 0001:00057040       ??_ESSound@@UAEPAXI@Z      00458040 f i EngineSoundLib_A:SuperSound.obj
 0001:00057040       ??_GSSound@@UAEPAXI@Z      00458040 f i EngineSoundLib_A:SuperSound.obj
 0001:00057060       ??1SChaSound@@QAE@XZ       00458060 f   EngineSoundLib_A:CharacterSound.obj
 0001:00057080       ?Getguid3DAlgorithm@DxSoundMan@@QAE?AU_GUID@@XZ 00458080 f i EngineSoundLib_A:DxSoundMan.obj
 0001:000570b0       ??_GSWavFileData@@QAEPAXI@Z 004580b0 f i EngineSoundLib_A:DxSoundMan.obj
 0001:000570f0       ?GetMapVolume@DxSoundMan@@QAEJXZ 004580f0 f   EngineSoundLib_A:DxSoundMan.obj
 0001:00057100       ?IsMapMute@DxSoundMan@@QAEHXZ 00458100 f   EngineSoundLib_A:DxSoundMan.obj
 0001:00057120       ?IsSfxMute@DxSoundMan@@QAEHXZ 00458120 f   EngineSoundLib_A:DxSoundMan.obj
 0001:00057140       ?GetSfxVolume@DxSoundMan@@QAEJXZ 00458140 f   EngineSoundLib_A:DxSoundMan.obj
 0001:00057150       ?_Min@?$_Tree@V?$_Tmap_traits@V?$basic_string@DU?$char_traits@D@std@@V?$allocator@D@2@@std@@Uunz_file_pos_s@@U?$less@V?$basic_string@DU?$char_traits@D@std@@V?$allocator@D@2@@std@@@2@V?$allocator@U?$pair@$$CBV?$basic_string@DU?$char_traits@D@std@@V?$allocator@D@2@@std@@Uunz_file_pos_s@@@std@@@2@$0A@@std@@@std@@KAPAU_Node@?$_Tree_nod@V?$_Tmap_traits@V?$basic_string@DU?$char_traits@D@std@@V?$allocator@D@2@@std@@Uunz_file_pos_s@@U?$less@V?$basic_string@DU?$char_traits@D@std@@V?$allocator@D@2@@std@@@2@V?$allocator@U?$pair@$$CBV?$basic_string@DU?$char_traits@D@std@@V?$allocator@D@2@@std@@Uunz_file_pos_s@@@std@@@2@$0A@@std@@@2@PAU342@@Z 00458150 f i EngineLib_A:Unzipper.obj
 0001:00057150       ?_Min@?$_Tree@V?$_Tmap_traits@USWavFileKey@@PAUSWavFileData@@U?$less@USWavFileKey@@@std@@V?$allocator@U?$pair@$$CBUSWavFileKey@@PAUSWavFileData@@@std@@@4@$0A@@std@@@std@@KAPAU_Node@?$_Tree_nod@V?$_Tmap_traits@USWavFileKey@@PAUSWavFileData@@U?$less@USWavFileKey@@@std@@V?$allocator@U?$pair@$$CBUSWavFileKey@@PAUSWavFileData@@@std@@@4@$0A@@std@@@2@PAU342@@Z 00458150 f i EngineSoundLib_A:DxSoundMan.obj
 0001:00057170       ?_Rrotate@?$_Tree@V?$_Tmap_traits@USWavFileKey@@PAUSWavFileData@@U?$less@USWavFileKey@@@std@@V?$allocator@U?$pair@$$CBUSWavFileKey@@PAUSWavFileData@@@std@@@4@$0A@@std@@@std@@IAEXPAU_Node@?$_Tree_nod@V?$_Tmap_traits@USWavFileKey@@PAUSWavFileData@@U?$less@USWavFileKey@@@std@@V?$allocator@U?$pair@$$CBUSWavFileKey@@PAUSWavFileData@@@std@@@4@$0A@@std@@@2@@Z 00458170 f i EngineSoundLib_A:DxSoundMan.obj
 0001:00057170       ?_Rrotate@?$_Tree@V?$_Tmap_traits@V?$basic_string@DU?$char_traits@D@std@@V?$allocator@D@2@@std@@Uunz_file_pos_s@@U?$less@V?$basic_string@DU?$char_traits@D@std@@V?$allocator@D@2@@std@@@2@V?$allocator@U?$pair@$$CBV?$basic_string@DU?$char_traits@D@std@@V?$allocator@D@2@@std@@Uunz_file_pos_s@@@std@@@2@$0A@@std@@@std@@IAEXPAU_Node@?$_Tree_nod@V?$_Tmap_traits@V?$basic_string@DU?$char_traits@D@std@@V?$allocator@D@2@@std@@Uunz_file_pos_s@@U?$less@V?$basic_string@DU?$char_traits@D@std@@V?$allocator@D@2@@std@@@2@V?$allocator@U?$pair@$$CBV?$basic_string@DU?$char_traits@D@std@@V?$allocator@D@2@@std@@Uunz_file_pos_s@@@std@@@2@$0A@@std@@@2@@Z 00458170 f i EngineLib_A:Unzipper.obj
 0001:000571d0       ?_Dec@const_iterator@?$_Tree@V?$_Tmap_traits@USWavFileKey@@PAUSWavFileData@@U?$less@USWavFileKey@@@std@@V?$allocator@U?$pair@$$CBUSWavFileKey@@PAUSWavFileData@@@std@@@4@$0A@@std@@@std@@QAEXXZ 004581d0 f i EngineSoundLib_A:DxSoundMan.obj
 0001:00057230       ??$?0USWavFileKey@@PAUSWavFileData@@@?$pair@$$CBUSWavFileKey@@PAUSWavFileData@@@std@@QAE@ABU?$pair@USWavFileKey@@PAUSWavFileData@@@1@@Z 00458230 f i EngineSoundLib_A:DxSoundMan.obj
 0001:00057260       ??1_Node@?$_Tree_nod@V?$_Tmap_traits@V?$basic_string@DU?$char_traits@D@std@@V?$allocator@D@2@@std@@PAUDxSkinPiece@@U?$less@V?$basic_string@DU?$char_traits@D@std@@V?$allocator@D@2@@std@@@2@V?$allocator@U?$pair@$$CBV?$basic_string@DU?$char_traits@D@std@@V?$allocator@D@2@@std@@PAUDxSkinPiece@@@std@@@2@$0A@@std@@@std@@QAE@XZ 00458260 f i EngineLib_A:DxSkinPieceContainer.obj
 0001:00057260       ??1_Node@?$_Tree_nod@V?$_Tmap_traits@USWavFileKey@@PAUSWavFileData@@U?$less@USWavFileKey@@@std@@V?$allocator@U?$pair@$$CBUSWavFileKey@@PAUSWavFileData@@@std@@@4@$0A@@std@@@std@@QAE@XZ 00458260 f i EngineSoundLib_A:DxSoundMan.obj
 0001:00057260       ??1_Node@?$_Tree_nod@V?$_Tmap_traits@V?$basic_string@DU?$char_traits@D@std@@V?$allocator@D@2@@std@@KU?$less@V?$basic_string@DU?$char_traits@D@std@@V?$allocator@D@2@@std@@@2@V?$allocator@U?$pair@$$CBV?$basic_string@DU?$char_traits@D@std@@V?$allocator@D@2@@std@@K@std@@@2@$0A@@std@@@std@@QAE@XZ 00458260 f i EngineLib_A:TextureManager.obj
 0001:00057260       ??1_Node@?$_Tree_nod@V?$_Tmap_traits@V?$basic_string@DU?$char_traits@D@std@@V?$allocator@D@2@@std@@Uunz_file_pos_s@@U?$less@V?$basic_string@DU?$char_traits@D@std@@V?$allocator@D@2@@std@@@2@V?$allocator@U?$pair@$$CBV?$basic_string@DU?$char_traits@D@std@@V?$allocator@D@2@@std@@Uunz_file_pos_s@@@std@@@2@$0A@@std@@@std@@QAE@XZ 00458260 f i EngineLib_A:Unzipper.obj
 0001:00057260       ??1_Node@?$_Tree_nod@V?$_Tmap_traits@V?$basic_string@DU?$char_traits@D@std@@V?$allocator@D@2@@std@@PAVDxSimMesh@@U?$less@V?$basic_string@DU?$char_traits@D@std@@V?$allocator@D@2@@std@@@2@V?$allocator@U?$pair@$$CBV?$basic_string@DU?$char_traits@D@std@@V?$allocator@D@2@@std@@PAVDxSimMesh@@@std@@@2@$0A@@std@@@std@@QAE@XZ 00458260 f i EngineLib_A:DxSimpleMeshMan.obj
 0001:00057260       ??1_Node@?$_Tree_nod@V?$_Tmap_traits@V?$basic_string@DU?$char_traits@D@std@@V?$allocator@D@2@@std@@PAUSTATICDATA@NSSTATICMESH@@U?$less@V?$basic_string@DU?$char_traits@D@std@@V?$allocator@D@2@@std@@@2@V?$allocator@U?$pair@$$CBV?$basic_string@DU?$char_traits@D@std@@V?$allocator@D@2@@std@@PAUSTATICDATA@NSSTATICMESH@@@std@@@2@$0A@@std@@@std@@QAE@XZ 00458260 f i EngineLib_A:DxStaticMesh.obj
 0001:00057260       ??1SPLAYERKILL@@QAE@XZ     00458260 f i RanClientLib_A:GLogicData.obj
 0001:00057260       ??1_Node@?$_Tree_nod@V?$_Tmap_traits@V?$basic_string@DU?$char_traits@D@std@@V?$allocator@D@2@@std@@PAVTextureContainer@TextureManager@@U?$less@V?$basic_string@DU?$char_traits@D@std@@V?$allocator@D@2@@std@@@2@V?$allocator@U?$pair@$$CBV?$basic_string@DU?$char_traits@D@std@@V?$allocator@D@2@@std@@PAVTextureContainer@TextureManager@@@std@@@2@$0A@@std@@@std@@QAE@XZ 00458260 f i EngineLib_A:TextureManager.obj
 0001:00057270       ?_Lrotate@?$_Tree@V?$_Tmap_traits@V?$basic_string@DU?$char_traits@D@std@@V?$allocator@D@2@@std@@Uunz_file_pos_s@@U?$less@V?$basic_string@DU?$char_traits@D@std@@V?$allocator@D@2@@std@@@2@V?$allocator@U?$pair@$$CBV?$basic_string@DU?$char_traits@D@std@@V?$allocator@D@2@@std@@Uunz_file_pos_s@@@std@@@2@$0A@@std@@@std@@IAEXPAU_Node@?$_Tree_nod@V?$_Tmap_traits@V?$basic_string@DU?$char_traits@D@std@@V?$allocator@D@2@@std@@Uunz_file_pos_s@@U?$less@V?$basic_string@DU?$char_traits@D@std@@V?$allocator@D@2@@std@@@2@V?$allocator@U?$pair@$$CBV?$basic_string@DU?$char_traits@D@std@@V?$allocator@D@2@@std@@Uunz_file_pos_s@@@std@@@2@$0A@@std@@@2@@Z 00458270 f i EngineLib_A:Unzipper.obj
 0001:00057270       ?_Lrotate@?$_Tree@V?$_Tmap_traits@USWavFileKey@@PAUSWavFileData@@U?$less@USWavFileKey@@@std@@V?$allocator@U?$pair@$$CBUSWavFileKey@@PAUSWavFileData@@@std@@@4@$0A@@std@@@std@@IAEXPAU_Node@?$_Tree_nod@V?$_Tmap_traits@USWavFileKey@@PAUSWavFileData@@U?$less@USWavFileKey@@@std@@V?$allocator@U?$pair@$$CBUSWavFileKey@@PAUSWavFileData@@@std@@@4@$0A@@std@@@2@@Z 00458270 f i EngineSoundLib_A:DxSoundMan.obj
 0001:000572d0       ?_Lbound@?$_Tree@V?$_Tmap_traits@USWavFileKey@@PAUSWavFileData@@U?$less@USWavFileKey@@@std@@V?$allocator@U?$pair@$$CBUSWavFileKey@@PAUSWavFileData@@@std@@@4@$0A@@std@@@std@@IBEPAU_Node@?$_Tree_nod@V?$_Tmap_traits@USWavFileKey@@PAUSWavFileData@@U?$less@USWavFileKey@@@std@@V?$allocator@U?$pair@$$CBUSWavFileKey@@PAUSWavFileData@@@std@@@4@$0A@@std@@@2@ABUSWavFileKey@@@Z 004582d0 f i EngineSoundLib_A:DxSoundMan.obj
 0001:00057320       ??$make_pair@USWavFileKey@@PAUSWavFileData@@@std@@YA?AU?$pair@USWavFileKey@@PAUSWavFileData@@@0@USWavFileKey@@PAUSWavFileData@@@Z 00458320 f i EngineSoundLib_A:DxSoundMan.obj
 0001:00057390       ?_Buynode@?$_Tree@V?$_Tmap_traits@USWavFileKey@@PAUSWavFileData@@U?$less@USWavFileKey@@@std@@V?$allocator@U?$pair@$$CBUSWavFileKey@@PAUSWavFileData@@@std@@@4@$0A@@std@@@std@@IAEPAU_Node@?$_Tree_nod@V?$_Tmap_traits@USWavFileKey@@PAUSWavFileData@@U?$less@USWavFileKey@@@std@@V?$allocator@U?$pair@$$CBUSWavFileKey@@PAUSWavFileData@@@std@@@4@$0A@@std@@@2@PAU342@00ABU?$pair@$$CBUSWavFileKey@@PAUSWavFileData@@@2@D@Z 00458390 f i EngineSoundLib_A:DxSoundMan.obj
 0001:00057440       ?_Buynode@?$_Tree@V?$_Tmap_traits@V?$basic_string@DU?$char_traits@D@std@@V?$allocator@D@2@@std@@Uunz_file_pos_s@@U?$less@V?$basic_string@DU?$char_traits@D@std@@V?$allocator@D@2@@std@@@2@V?$allocator@U?$pair@$$CBV?$basic_string@DU?$char_traits@D@std@@V?$allocator@D@2@@std@@Uunz_file_pos_s@@@std@@@2@$0A@@std@@@std@@IAEPAU_Node@?$_Tree_nod@V?$_Tmap_traits@V?$basic_string@DU?$char_traits@D@std@@V?$allocator@D@2@@std@@Uunz_file_pos_s@@U?$less@V?$basic_string@DU?$char_traits@D@std@@V?$allocator@D@2@@std@@@2@V?$allocator@U?$pair@$$CBV?$basic_string@DU?$char_traits@D@std@@V?$allocator@D@2@@std@@Uunz_file_pos_s@@@std@@@2@$0A@@std@@@2@XZ 00458440 f i EngineLib_A:Unzipper.obj
 0001:00057440       ?_Buynode@?$_Tree@V?$_Tmap_traits@USWavFileKey@@PAUSWavFileData@@U?$less@USWavFileKey@@@std@@V?$allocator@U?$pair@$$CBUSWavFileKey@@PAUSWavFileData@@@std@@@4@$0A@@std@@@std@@IAEPAU_Node@?$_Tree_nod@V?$_Tmap_traits@USWavFileKey@@PAUSWavFileData@@U?$less@USWavFileKey@@@std@@V?$allocator@U?$pair@$$CBUSWavFileKey@@PAUSWavFileData@@@std@@@4@$0A@@std@@@2@XZ 00458440 f i EngineSoundLib_A:DxSoundMan.obj
 0001:00057480       ?find@?$_Tree@V?$_Tmap_traits@USWavFileKey@@PAUSWavFileData@@U?$less@USWavFileKey@@@std@@V?$allocator@U?$pair@$$CBUSWavFileKey@@PAUSWavFileData@@@std@@@4@$0A@@std@@@std@@QAE?AViterator@12@ABUSWavFileKey@@@Z 00458480 f i EngineSoundLib_A:DxSoundMan.obj
 0001:000574e0       ?_Insert@?$_Tree@V?$_Tmap_traits@USWavFileKey@@PAUSWavFileData@@U?$less@USWavFileKey@@@std@@V?$allocator@U?$pair@$$CBUSWavFileKey@@PAUSWavFileData@@@std@@@4@$0A@@std@@@std@@IAE?AViterator@12@_NPAU_Node@?$_Tree_nod@V?$_Tmap_traits@USWavFileKey@@PAUSWavFileData@@U?$less@USWavFileKey@@@std@@V?$allocator@U?$pair@$$CBUSWavFileKey@@PAUSWavFileData@@@std@@@4@$0A@@std@@@2@ABU?$pair@$$CBUSWavFileKey@@PAUSWavFileData@@@2@@Z 004584e0 f i EngineSoundLib_A:DxSoundMan.obj
 0001:000576a0       ?IsLoadedWav@DxSoundMan@@QAE_NV?$basic_string@DU?$char_traits@D@std@@V?$allocator@D@2@@std@@_N@Z 004586a0 f   EngineSoundLib_A:DxSoundMan.obj
 0001:00057780       ?insert@?$_Tree@V?$_Tmap_traits@USWavFileKey@@PAUSWavFileData@@U?$less@USWavFileKey@@@std@@V?$allocator@U?$pair@$$CBUSWavFileKey@@PAUSWavFileData@@@std@@@4@$0A@@std@@@std@@QAE?AU?$pair@Viterator@?$_Tree@V?$_Tmap_traits@USWavFileKey@@PAUSWavFileData@@U?$less@USWavFileKey@@@std@@V?$allocator@U?$pair@$$CBUSWavFileKey@@PAUSWavFileData@@@std@@@4@$0A@@std@@@std@@_N@2@ABU?$pair@$$CBUSWavFileKey@@PAUSWavFileData@@@2@@Z 00458780 f i EngineSoundLib_A:DxSoundMan.obj
 0001:00057860       ?erase@?$_Tree@V?$_Tmap_traits@USWavFileKey@@PAUSWavFileData@@U?$less@USWavFileKey@@@std@@V?$allocator@U?$pair@$$CBUSWavFileKey@@PAUSWavFileData@@@std@@@4@$0A@@std@@@std@@QAE?AViterator@12@V312@@Z 00458860 f i EngineSoundLib_A:DxSoundMan.obj
 0001:00057b40       ?_Erase@?$_Tree@V?$_Tmap_traits@USWavFileKey@@PAUSWavFileData@@U?$less@USWavFileKey@@@std@@V?$allocator@U?$pair@$$CBUSWavFileKey@@PAUSWavFileData@@@std@@@4@$0A@@std@@@std@@IAEXPAU_Node@?$_Tree_nod@V?$_Tmap_traits@USWavFileKey@@PAUSWavFileData@@U?$less@USWavFileKey@@@std@@V?$allocator@U?$pair@$$CBUSWavFileKey@@PAUSWavFileData@@@std@@@4@$0A@@std@@@2@@Z 00458b40 f i EngineSoundLib_A:DxSoundMan.obj
 0001:00057b80       ?LoadWav@DxSoundMan@@QAEPAVCSound@@V?$basic_string@DU?$char_traits@D@std@@V?$allocator@D@2@@std@@_N@Z 00458b80 f   EngineSoundLib_A:DxSoundMan.obj
 0001:00057e00       ?ReleaseWav@DxSoundMan@@QAEJV?$basic_string@DU?$char_traits@D@std@@V?$allocator@D@2@@std@@_N@Z 00458e00 f   EngineSoundLib_A:DxSoundMan.obj
 0001:00057f30       ?erase@?$_Tree@V?$_Tmap_traits@USWavFileKey@@PAUSWavFileData@@U?$less@USWavFileKey@@@std@@V?$allocator@U?$pair@$$CBUSWavFileKey@@PAUSWavFileData@@@std@@@4@$0A@@std@@@std@@QAE?AViterator@12@V312@0@Z 00458f30 f i EngineSoundLib_A:DxSoundMan.obj
 0001:00057ff0       ?DeleteAllWav@DxSoundMan@@QAEXXZ 00458ff0 f   EngineSoundLib_A:DxSoundMan.obj
 0001:00058090       ??1?$map@USWavFileKey@@PAUSWavFileData@@U?$less@USWavFileKey@@@std@@V?$allocator@U?$pair@$$CBUSWavFileKey@@PAUSWavFileData@@@std@@@4@@std@@QAE@XZ 00459090 f i EngineSoundLib_A:DxSoundMan.obj
 0001:000580c0       ??1DxSoundMan@@EAE@XZ      004590c0 f   EngineSoundLib_A:DxSoundMan.obj
 0001:00058150       ??0DxSoundMan@@AAE@XZ      00459150 f   EngineSoundLib_A:DxSoundMan.obj
 0001:00058230       ??_GDxSoundMan@@EAEPAXI@Z  00459230 f i EngineSoundLib_A:DxSoundMan.obj
 0001:00058230       ??_EDxSoundMan@@EAEPAXI@Z  00459230 f i EngineSoundLib_A:DxSoundMan.obj
 0001:00058250       ?GetInstance@DxSoundMan@@SAAAV1@XZ 00459250 f   EngineSoundLib_A:DxSoundMan.obj
 0001:000582b0       ?RestoreBuffer@CSound@@IAEJPAUIDirectSoundBuffer@@PAH@Z 004592b0 f   EngineLib_A:dsutil.obj
 0001:00058330       ?GetFreeBuffer@CSound@@QAEPAUIDirectSoundBuffer@@AAK@Z 00459330 f   EngineLib_A:dsutil.obj
 0001:00058380       ?GetBuffer@CSound@@QAEPAUIDirectSoundBuffer@@K@Z 00459380 f   EngineLib_A:dsutil.obj
 0001:000583a0       ?Stop@CSound@@QAEJXZ       004593a0 f   EngineLib_A:dsutil.obj
 0001:000583e0       ?StopBuffer@CSound@@QAEJK@Z 004593e0 f   EngineLib_A:dsutil.obj
 0001:00058430       ?Reset@CSound@@QAEJXZ      00459430 f   EngineLib_A:dsutil.obj
 0001:00058470       ?ResetBuffer@CSound@@QAEJK@Z 00459470 f   EngineLib_A:dsutil.obj
 0001:000584b0       ?IsSoundPlayingBuffer@CSound@@QAEHK@Z 004594b0 f   EngineLib_A:dsutil.obj
 0001:00058500       ?ReadMMIO@CWaveFile@@IAEJXZ 00459500 f   EngineLib_A:dsutil.obj
 0001:00058680       ?ResetFile@CWaveFile@@QAEJXZ 00459680 f   EngineLib_A:dsutil.obj
 0001:00058730       ?Read@CWaveFile@@QAEJPAEKPAK@Z 00459730 f   EngineLib_A:dsutil.obj
 0001:00058890       ?Close@CWaveFile@@QAEJXZ   00459890 f   EngineLib_A:dsutil.obj
 0001:000589b0       ?WriteMMIO@CWaveFile@@IAEJPAUtWAVEFORMATEX@@@Z 004599b0 f   EngineLib_A:dsutil.obj
 0001:00058ae0       ?FillBufferWithSound@CSound@@QAEJPAUIDirectSoundBuffer@@H@Z 00459ae0 f   EngineLib_A:dsutil.obj
 0001:00058c90       ?PlayBuffer@CSound@@QAEJAAKKK@Z 00459c90 f   EngineLib_A:dsutil.obj
 0001:00058d20       ?Open@CWaveFile@@QAEJPADPAUtWAVEFORMATEX@@K@Z 00459d20 f   EngineLib_A:dsutil.obj
 0001:00058f10       ??_GCWaveFile@@QAEPAXI@Z   00459f10 f i EngineLib_A:dsutil.obj
 0001:00058f50       ??0CSound@@QAE@PAPAUIDirectSoundBuffer@@KKPAVCWaveFile@@@Z 00459f50 f   EngineLib_A:dsutil.obj
 0001:00058fe0       ??1CSound@@UAE@XZ          00459fe0 f   EngineLib_A:dsutil.obj
 0001:00059090       ?Create@CSoundManager@@QAEJPAPAVCSound@@PADKU_GUID@@K@Z 0045a090 f   EngineLib_A:dsutil.obj
 0001:000592b0       ??_ECSound@@UAEPAXI@Z      0045a2b0 f i EngineLib_A:dsutil.obj
 0001:000592b0       ??_GCSound@@UAEPAXI@Z      0045a2b0 f i EngineLib_A:dsutil.obj
 0001:000592d0       __lzo_config_check         0045a2d0 f   lzo2:lzo_init.obj
 0001:00059320       ___lzo_init_v2             0045a320 f   lzo2:lzo_init.obj
 0001:000593c0       _lzo1x_decompress_safe     0045a3c0 f   lzo2:lzo1x_d2.obj
 0001:000597b0       __vorbis_block_alloc       0045a7b0 f   vorbisfile_static:block.obj
 0001:00059820       __vp_remove_floor          0045a820 f   vorbisfile_static:psy.obj
 0001:00059880       __vp_noisemask             0045a880 f   vorbisfile_static:psy.obj
 0001:00059f40       __vp_tonemask              0045af40 f   vorbisfile_static:psy.obj
 0001:0005a430       __vp_offset_and_mix        0045b430 f   vorbisfile_static:psy.obj
 0001:0005a4c0       __vp_quantize_couple_memo  0045b4c0 f   vorbisfile_static:psy.obj
 0001:0005a770       __vp_quantize_couple_sort  0045b770 f   vorbisfile_static:psy.obj
 0001:0005a920       __vp_noise_normalize_sort  0045b920 f   vorbisfile_static:psy.obj
 0001:0005a9f0       __vp_noise_normalize       0045b9f0 f   vorbisfile_static:psy.obj
 0001:0005ac60       __vp_couple                0045bc60 f   vorbisfile_static:psy.obj
 0001:0005b190       _vorbis_book_encode        0045c190 f   vorbisfile_static:codebook.obj
 0001:0005b1d0       _vorbis_book_decode        0045c1d0 f   vorbisfile_static:codebook.obj
 0001:0005b360       _vorbis_book_decodevs_add  0045c360 f   vorbisfile_static:codebook.obj
 0001:0005b560       _vorbis_book_decodev_add   0045c560 f   vorbisfile_static:codebook.obj
 0001:0005b8f0       _vorbis_book_decodev_set   0045c8f0 f   vorbisfile_static:codebook.obj
 0001:0005ba70       _vorbis_book_decodevv_add  0045ca70 f   vorbisfile_static:codebook.obj
 0001:0005bc30       _vorbis_bitrate_managed    0045cc30 f   vorbisfile_static:bitrate.obj
 0001:0005bc50       _drft_forward              0045cc50 f   vorbisfile_static:smallft.obj
 0001:0005d010       _mdct_backward             0045e010 f   vorbisfile_static:mdct.obj
 0001:0005dbd0       _mdct_forward              0045ebd0 f   vorbisfile_static:mdct.obj
 0001:0005e050       __vorbis_apply_window      0045f050 f   vorbisfile_static:window.obj
 0001:0005f1e0       _res0_free_info            004601e0 f   vorbisfile_static:res0.obj
 0001:0005f200       _res0_free_look            00460200 f   vorbisfile_static:res0.obj
 0001:0005f280       _res0_pack                 00460280 f   vorbisfile_static:res0.obj
 0001:0005f390       _res0_unpack               00460390 f   vorbisfile_static:res0.obj
 0001:0005f4d0       _res0_look                 004604d0 f   vorbisfile_static:res0.obj
 0001:0005f6b0       _res0_inverse              004606b0 f   vorbisfile_static:res0.obj
 0001:0005f930       _res1_forward              00460930 f   vorbisfile_static:res0.obj
 0001:0005fee0       _res1_class                00460ee0 f   vorbisfile_static:res0.obj
 0001:00060170       _res1_inverse              00461170 f   vorbisfile_static:res0.obj
 0001:000601d0       _res2_class                004611d0 f   vorbisfile_static:res0.obj
 0001:000603b0       _res2_forward              004613b0 f   vorbisfile_static:res0.obj
 0001:00060510       _res2_inverse              00461510 f   vorbisfile_static:res0.obj
 0001:00060d40       _floor1_fit                00461d40 f   vorbisfile_static:floor1.obj
 0001:000618e0       _floor1_interpolate_fit    004628e0 f   vorbisfile_static:floor1.obj
 0001:00061990       _floor1_encode             00462990 f   vorbisfile_static:floor1.obj
 0001:00061f80       __ilog                     00462f80 f   vorbisfile_static:sharedbook.obj
 0001:00062970       _vorbis_lsp_to_curve       00463970 f   vorbisfile_static:lsp.obj
 0001:00062af0       _vorbis_coslook            00463af0 f   vorbisfile_static:lsp.obj
 0001:00062b40       _vorbis_invsqlook          00463b40 f   vorbisfile_static:lsp.obj
 0001:00062b90       _vorbis_invsq2explook      00463b90 f   vorbisfile_static:lsp.obj
 0001:00062ba0       _vorbis_fromdBlook         00463ba0 f   vorbisfile_static:lsp.obj
 0001:00062c00       _oggpack_write             00463c00 f   ogg_static:bitwise.obj
 0001:00062d00       _oggpack_writealign        00463d00 f   ogg_static:bitwise.obj
 0001:00062d20       _oggpack_look              00463d20 f   ogg_static:bitwise.obj
 0001:00062dd0       _oggpack_adv               00463dd0 f   ogg_static:bitwise.obj
 0001:00062e00       _oggpack_read              00463e00 f   ogg_static:bitwise.obj
 0001:00062ed0       _oggpack_bytes             00463ed0 f   ogg_static:bitwise.obj
 0001:00062ef0       _calloc                    00463ef0 f   msvcrt:MSVCR71.dll
 0001:00062ef6       _frexp                     00463ef6 f   msvcrt:MSVCR71.dll
 0001:00062f00       __allshl                   00463f00 f   msvcrt:llshl.obj
 0002:00000000       __imp__BT_InstallSehFilter@0 004fc000     BugTrap:BugTrap.dll
 0002:00000004       __imp__BT_SetAppName@4     004fc004     BugTrap:BugTrap.dll
 0002:00000008       __imp__BT_SetSupportEMail@4 004fc008     BugTrap:BugTrap.dll
 0002:0000000c       __imp__BT_SetFlags@4       004fc00c     BugTrap:BugTrap.dll
 0002:00000010       __imp__BT_SetSupportURL@4  004fc010     BugTrap:BugTrap.dll
 0002:00000014       __imp__BT_SetSupportServer@8 004fc014     BugTrap:BugTrap.dll
 0002:00000018       \177BugTrap_NULL_THUNK_DATA 004fc018     BugTrap:BugTrap.dll
 0002:0000001c       __imp__SizeofResource@8    004fc01c     kernel32:KERNEL32.dll
 0002:00000020       __imp__LockResource@4      004fc020     kernel32:KERNEL32.dll
 0002:00000024       __imp__LoadResource@8      004fc024     kernel32:KERNEL32.dll
 0002:00000028       __imp__FindResourceA@12    004fc028     kernel32:KERNEL32.dll
 0002:0000002c       __imp__ExitProcess@4       004fc02c     kernel32:KERNEL32.dll
 0002:00000030       __imp__GetStartupInfoA@4   004fc030     kernel32:KERNEL32.dll
 0002:00000034       __imp__GetSystemTimeAsFileTime@4 004fc034     kernel32:KERNEL32.dll
 0002:00000038       __imp__GetCurrentThreadId@0 004fc038     kernel32:KERNEL32.dll
 0002:0000003c       __imp__GetCurrentProcessId@0 004fc03c     kernel32:KERNEL32.dll
 0002:00000040       __imp__GetModuleHandleA@4  004fc040     kernel32:KERNEL32.dll
 0002:00000044       __imp__OutputDebugStringA@4 004fc044     kernel32:KERNEL32.dll
 0002:00000048       __imp__QueryPerformanceFrequency@4 004fc048     kernel32:KERNEL32.dll
 0002:0000004c       __imp__QueryPerformanceCounter@4 004fc04c     kernel32:KERNEL32.dll
 0002:00000050       __imp__LocalFree@4         004fc050     kernel32:KERNEL32.dll
 0002:00000054       __imp__DeleteCriticalSection@4 004fc054     kernel32:KERNEL32.dll
 0002:00000058       __imp__InitializeCriticalSection@4 004fc058     kernel32:KERNEL32.dll
 0002:0000005c       __imp__GetCurrentProcess@0 004fc05c     kernel32:KERNEL32.dll
 0002:00000060       __imp__GetPriorityClass@4  004fc060     kernel32:KERNEL32.dll
 0002:00000064       __imp__SetPriorityClass@8  004fc064     kernel32:KERNEL32.dll
 0002:00000068       __imp__GetSystemInfo@4     004fc068     kernel32:KERNEL32.dll
 0002:0000006c       __imp__HeapFree@12         004fc06c     kernel32:KERNEL32.dll
 0002:00000070       __imp__GetProcessHeap@0    004fc070     kernel32:KERNEL32.dll
 0002:00000074       __imp__HeapAlloc@12        004fc074     kernel32:KERNEL32.dll
 0002:00000078       __imp__PostQueuedCompletionStatus@16 004fc078     kernel32:KERNEL32.dll
 0002:0000007c       __imp__CreateEventA@16     004fc07c     kernel32:KERNEL32.dll
 0002:00000080       __imp__SetThreadPriority@8 004fc080     kernel32:KERNEL32.dll
 0002:00000084       __imp__ResumeThread@4      004fc084     kernel32:KERNEL32.dll
 0002:00000088       __imp__SetThreadIdealProcessor@8 004fc088     kernel32:KERNEL32.dll
 0002:0000008c       __imp__GetQueuedCompletionStatus@20 004fc08c     kernel32:KERNEL32.dll
 0002:00000090       __imp__GetTickCount@0      004fc090     kernel32:KERNEL32.dll
 0002:00000094       __imp__CreateIoCompletionPort@16 004fc094     kernel32:KERNEL32.dll
 0002:00000098       __imp__EnterCriticalSection@4 004fc098     kernel32:KERNEL32.dll
 0002:0000009c       __imp__LeaveCriticalSection@4 004fc09c     kernel32:KERNEL32.dll
 0002:000000a0       __imp__SetEvent@4          004fc0a0     kernel32:KERNEL32.dll
 0002:000000a4       __imp__WaitForSingleObject@8 004fc0a4     kernel32:KERNEL32.dll
 0002:000000a8       __imp__CloseHandle@4       004fc0a8     kernel32:KERNEL32.dll
 0002:000000ac       __imp__Sleep@4             004fc0ac     kernel32:KERNEL32.dll
 0002:000000b0       __imp__lstrcpyA@8          004fc0b0     kernel32:KERNEL32.dll
 0002:000000b4       __imp__GetModuleFileNameA@12 004fc0b4     kernel32:KERNEL32.dll
 0002:000000b8       __imp__GetCurrentDirectoryA@8 004fc0b8     kernel32:KERNEL32.dll
 0002:000000bc       __imp__GetLastError@0      004fc0bc     kernel32:KERNEL32.dll
 0002:000000c0       __imp__GetVersionExA@4     004fc0c0     kernel32:KERNEL32.dll
 0002:000000c4       \177KERNEL32_NULL_THUNK_DATA 004fc0c4     kernel32:KERNEL32.dll
 0002:000000c8       __imp_?AfxThrowOleException@@YGXJ@Z 004fc0c8     mfc71:MFC71.DLL
 0002:000000cc       __imp_?AfxThrowMemoryException@@YGXXZ 004fc0cc     mfc71:MFC71.DLL
 0002:000000d0       __imp_?AfxGetModuleState@@YGPAVAFX_MODULE_STATE@@XZ 004fc0d0     mfc71:MFC71.DLL
 0002:000000d4       __imp_??0?$CStringT@DV?$StrTraitMFC_DLL@DV?$ChTraitsCRT@D@ATL@@@@@ATL@@QAE@ABV01@@Z 004fc0d4     mfc71:MFC71.DLL
 0002:000000d8       __imp_??0?$CStringT@DV?$StrTraitMFC_DLL@DV?$ChTraitsCRT@D@ATL@@@@@ATL@@QAE@PBD@Z 004fc0d8     mfc71:MFC71.DLL
 0002:000000dc       __imp_?Right@?$CStringT@DV?$StrTraitMFC_DLL@DV?$ChTraitsCRT@D@ATL@@@@@ATL@@QBE?AV12@H@Z 004fc0dc     mfc71:MFC71.DLL
 0002:000000e0       __imp_?GetAt@?$CSimpleStringT@D$00@ATL@@QBEDH@Z 004fc0e0     mfc71:MFC71.DLL
 0002:000000e4       __imp_??1?$CStringT@DV?$StrTraitMFC_DLL@DV?$ChTraitsCRT@D@ATL@@@@@ATL@@QAE@XZ 004fc0e4     mfc71:MFC71.DLL
 0002:000000e8       __imp_??4?$CStringT@DV?$StrTraitMFC_DLL@DV?$ChTraitsCRT@D@ATL@@@@@ATL@@QAEAAV01@ABV01@@Z 004fc0e8     mfc71:MFC71.DLL
 0002:000000ec       __imp_?Left@?$CStringT@DV?$StrTraitMFC_DLL@DV?$ChTraitsCRT@D@ATL@@@@@ATL@@QBE?AV12@H@Z 004fc0ec     mfc71:MFC71.DLL
 0002:000000f0       __imp_?ReverseFind@?$CStringT@DV?$StrTraitMFC_DLL@DV?$ChTraitsCRT@D@ATL@@@@@ATL@@QBEHD@Z 004fc0f0     mfc71:MFC71.DLL
 0002:000000f4       __imp_??4?$CStringT@DV?$StrTraitMFC_DLL@DV?$ChTraitsCRT@D@ATL@@@@@ATL@@QAEAAV01@PBD@Z 004fc0f4     mfc71:MFC71.DLL
 0002:000000f8       __imp_??0?$CStringT@DV?$StrTraitMFC_DLL@DV?$ChTraitsCRT@D@ATL@@@@@ATL@@QAE@XZ 004fc0f8     mfc71:MFC71.DLL
 0002:000000fc       __imp_??3@YAXPAX@Z         004fc0fc     mfc71:MFC71.DLL
 0002:00000100       __imp_??2@YAPAXI@Z         004fc100     mfc71:MFC71.DLL
 0002:00000104       __imp_?RemoveKey@CMapStringToPtr@@QAEHPBD@Z 004fc104     mfc71:MFC71.DLL
 0002:00000108       __imp_??0CMapStringToPtr@@QAE@H@Z 004fc108     mfc71:MFC71.DLL
 0002:0000010c       __imp_?GetNextAssoc@CMapStringToPtr@@QBEXAAPAU__POSITION@@AAV?$CStringT@DV?$StrTraitMFC_DLL@DV?$ChTraitsCRT@D@ATL@@@@@ATL@@AAPAX@Z 004fc10c     mfc71:MFC71.DLL
 0002:00000110       __imp_?Format@?$CStringT@DV?$StrTraitMFC_DLL@DV?$ChTraitsCRT@D@ATL@@@@@ATL@@QAAXPBDZZ 004fc110     mfc71:MFC71.DLL
 0002:00000114       __imp_??Y?$CStringT@DV?$StrTraitMFC_DLL@DV?$ChTraitsCRT@D@ATL@@@@@ATL@@QAEAAV01@PBD@Z 004fc114     mfc71:MFC71.DLL
 0002:00000118       __imp_??_V@YAXPAX@Z        004fc118     mfc71:MFC71.DLL
 0002:0000011c       __imp_?Compare@?$CStringT@DV?$StrTraitMFC_DLL@DV?$ChTraitsCRT@D@ATL@@@@@ATL@@QBEHPBD@Z 004fc11c     mfc71:MFC71.DLL
 0002:00000120       __imp_??_U@YAPAXI@Z        004fc120     mfc71:MFC71.DLL
 0002:00000124       __imp_?Trim@?$CStringT@DV?$StrTraitMFC_DLL@DV?$ChTraitsCRT@D@ATL@@@@@ATL@@QAEAAV12@PBD@Z 004fc124     mfc71:MFC71.DLL
 0002:00000128       __imp_??1CMapStringToPtr@@UAE@XZ 004fc128     mfc71:MFC71.DLL
 0002:0000012c       __imp_?Replace@?$CStringT@DV?$StrTraitMFC_DLL@DV?$ChTraitsCRT@D@ATL@@@@@ATL@@QAEHPBD0@Z 004fc12c     mfc71:MFC71.DLL
 0002:00000130       __imp_??0?$CStringT@DV?$StrTraitMFC_DLL@DV?$ChTraitsCRT@D@ATL@@@@@ATL@@QAE@PBE@Z 004fc130     mfc71:MFC71.DLL
 0002:00000134       __imp_??4?$CStringT@DV?$StrTraitMFC_DLL@DV?$ChTraitsCRT@D@ATL@@@@@ATL@@QAEAAV01@PBE@Z 004fc134     mfc71:MFC71.DLL
 0002:00000138       __imp_?Concatenate@?$CSimpleStringT@D$00@ATL@@KAXAAV12@PBDH1H@Z 004fc138     mfc71:MFC71.DLL
 0002:0000013c       __imp_??0?$CStringT@DV?$StrTraitMFC_DLL@DV?$ChTraitsCRT@D@ATL@@@@@ATL@@QAE@PAUIAtlStringMgr@1@@Z 004fc13c     mfc71:MFC71.DLL
 0002:00000140       __imp_?GetManager@?$CSimpleStringT@D$00@ATL@@QBEPAUIAtlStringMgr@2@XZ 004fc140     mfc71:MFC71.DLL
 0002:00000144       __imp_?GetBuffer@?$CSimpleStringT@D$00@ATL@@QAEPADXZ 004fc144     mfc71:MFC71.DLL
 0002:00000148       \177MFC71_NULL_THUNK_DATA  004fc148     mfc71:MFC71.DLL
 0002:0000014c       __imp_??0?$basic_ifstream@DU?$char_traits@D@std@@@std@@QAE@PBDHH@Z 004fc14c     msvcprt:MSVCP71.dll
 0002:00000150       __imp_?npos@?$basic_string@DU?$char_traits@D@std@@V?$allocator@D@2@@std@@2IB 004fc150     msvcprt:MSVCP71.dll
 0002:00000154       __imp_??0?$basic_string@GU?$char_traits@G@std@@V?$allocator@G@2@@std@@QAE@PBG@Z 004fc154     msvcprt:MSVCP71.dll
 0002:00000158       __imp_??1?$basic_string@GU?$char_traits@G@std@@V?$allocator@G@2@@std@@QAE@XZ 004fc158     msvcprt:MSVCP71.dll
 0002:0000015c       __imp_??Y?$basic_string@DU?$char_traits@D@std@@V?$allocator@D@2@@std@@QAEAAV01@D@Z 004fc15c     msvcprt:MSVCP71.dll
 0002:00000160       __imp_??Y?$basic_string@DU?$char_traits@D@std@@V?$allocator@D@2@@std@@QAEAAV01@PBD@Z 004fc160     msvcprt:MSVCP71.dll
 0002:00000164       __imp_??0?$basic_string@DU?$char_traits@D@std@@V?$allocator@D@2@@std@@QAE@PBD@Z 004fc164     msvcprt:MSVCP71.dll
 0002:00000168       __imp_??0?$basic_string@DU?$char_traits@D@std@@V?$allocator@D@2@@std@@QAE@ABV01@@Z 004fc168     msvcprt:MSVCP71.dll
 0002:0000016c       __imp_??Y?$basic_string@DU?$char_traits@D@std@@V?$allocator@D@2@@std@@QAEAAV01@ABV01@@Z 004fc16c     msvcprt:MSVCP71.dll
 0002:00000170       __imp_??1?$basic_string@DU?$char_traits@D@std@@V?$allocator@D@2@@std@@QAE@XZ 004fc170     msvcprt:MSVCP71.dll
 0002:00000174       __imp_??4?$basic_string@DU?$char_traits@D@std@@V?$allocator@D@2@@std@@QAEAAV01@PBD@Z 004fc174     msvcprt:MSVCP71.dll
 0002:00000178       __imp_??0?$basic_string@DU?$char_traits@D@std@@V?$allocator@D@2@@std@@QAE@XZ 004fc178     msvcprt:MSVCP71.dll
 0002:0000017c       __imp_??4?$basic_string@DU?$char_traits@D@std@@V?$allocator@D@2@@std@@QAEAAV01@ABV01@@Z 004fc17c     msvcprt:MSVCP71.dll
 0002:00000180       __imp_?imbue@?$basic_streambuf@DU?$char_traits@D@std@@@std@@MAEXABVlocale@2@@Z 004fc180     msvcprt:MSVCP71.dll
 0002:00000184       __imp_?sync@?$basic_streambuf@DU?$char_traits@D@std@@@std@@MAEHXZ 004fc184     msvcprt:MSVCP71.dll
 0002:00000188       __imp_?setbuf@?$basic_streambuf@DU?$char_traits@D@std@@@std@@MAEPAV12@PADH@Z 004fc188     msvcprt:MSVCP71.dll
 0002:0000018c       __imp_?seekpos@strstreambuf@std@@MAE?AV?$fpos@H@2@V32@H@Z 004fc18c     msvcprt:MSVCP71.dll
 0002:00000190       __imp_?seekoff@strstreambuf@std@@MAE?AV?$fpos@H@2@JHH@Z 004fc190     msvcprt:MSVCP71.dll
 0002:00000194       __imp_?xsputn@?$basic_streambuf@DU?$char_traits@D@std@@@std@@MAEHPBDH@Z 004fc194     msvcprt:MSVCP71.dll
 0002:00000198       __imp_?xsgetn@?$basic_streambuf@DU?$char_traits@D@std@@@std@@MAEHPADH@Z 004fc198     msvcprt:MSVCP71.dll
 0002:0000019c       __imp_?uflow@?$basic_streambuf@DU?$char_traits@D@std@@@std@@MAEHXZ 004fc19c     msvcprt:MSVCP71.dll
 0002:000001a0       __imp_?underflow@strstreambuf@std@@MAEHXZ 004fc1a0     msvcprt:MSVCP71.dll
 0002:000001a4       __imp_?showmanyc@?$basic_streambuf@DU?$char_traits@D@std@@@std@@MAEHXZ 004fc1a4     msvcprt:MSVCP71.dll
 0002:000001a8       __imp_?pbackfail@strstreambuf@std@@MAEHH@Z 004fc1a8     msvcprt:MSVCP71.dll
 0002:000001ac       __imp_?overflow@strstreambuf@std@@MAEHH@Z 004fc1ac     msvcprt:MSVCP71.dll
 0002:000001b0       __imp_??1?$basic_streambuf@DU?$char_traits@D@std@@@std@@UAE@XZ 004fc1b0     msvcprt:MSVCP71.dll
 0002:000001b4       __imp_?_Init@strstreambuf@std@@IAEXHPAD0H@Z 004fc1b4     msvcprt:MSVCP71.dll
 0002:000001b8       __imp_??0?$basic_streambuf@DU?$char_traits@D@std@@@std@@IAE@XZ 004fc1b8     msvcprt:MSVCP71.dll
 0002:000001bc       __imp_??1strstreambuf@std@@UAE@XZ 004fc1bc     msvcprt:MSVCP71.dll
 0002:000001c0       __imp_??1?$basic_iostream@DU?$char_traits@D@std@@@std@@UAE@XZ 004fc1c0     msvcprt:MSVCP71.dll
 0002:000001c4       __imp_?_Xran@_String_base@std@@QBEXXZ 004fc1c4     msvcprt:MSVCP71.dll
 0002:000001c8       __imp_?assign@?$basic_string@DU?$char_traits@D@std@@V?$allocator@D@2@@std@@QAEAAV12@PBDI@Z 004fc1c8     msvcprt:MSVCP71.dll
 0002:000001cc       __imp_?peek@?$basic_istream@DU?$char_traits@D@std@@@std@@QAEHXZ 004fc1cc     msvcprt:MSVCP71.dll
 0002:000001d0       __imp_?get@?$basic_istream@DU?$char_traits@D@std@@@std@@QAEHXZ 004fc1d0     msvcprt:MSVCP71.dll
 0002:000001d4       __imp_??1?$basic_ios@DU?$char_traits@D@std@@@std@@UAE@XZ 004fc1d4     msvcprt:MSVCP71.dll
 0002:000001d8       __imp_?append@?$basic_string@DU?$char_traits@D@std@@V?$allocator@D@2@@std@@QAEAAV12@PBDI@Z 004fc1d8     msvcprt:MSVCP71.dll
 0002:000001dc       __imp_?find@?$basic_string@DU?$char_traits@D@std@@V?$allocator@D@2@@std@@QBEIPBDII@Z 004fc1dc     msvcprt:MSVCP71.dll
 0002:000001e0       __imp_?read@?$basic_istream@DU?$char_traits@D@std@@@std@@QAEAAV12@PADH@Z 004fc1e0     msvcprt:MSVCP71.dll
 0002:000001e4       __imp_??$?8DU?$char_traits@D@std@@V?$allocator@D@1@@std@@YA_NABV?$basic_string@DU?$char_traits@D@std@@V?$allocator@D@2@@0@0@Z 004fc1e4     msvcprt:MSVCP71.dll
 0002:000001e8       __imp_??0?$basic_ofstream@DU?$char_traits@D@std@@@std@@QAE@PBDHH@Z 004fc1e8     msvcprt:MSVCP71.dll
 0002:000001ec       __imp_?write@?$basic_ostream@DU?$char_traits@D@std@@@std@@QAEAAV12@PBDH@Z 004fc1ec     msvcprt:MSVCP71.dll
 0002:000001f0       __imp_?close@?$basic_ifstream@DU?$char_traits@D@std@@@std@@QAEXXZ 004fc1f0     msvcprt:MSVCP71.dll
 0002:000001f4       __imp_?close@?$basic_ofstream@DU?$char_traits@D@std@@@std@@QAEXXZ 004fc1f4     msvcprt:MSVCP71.dll
 0002:000001f8       __imp_??_D?$basic_ofstream@DU?$char_traits@D@std@@@std@@QAEXXZ 004fc1f8     msvcprt:MSVCP71.dll
 0002:000001fc       __imp_??_D?$basic_ifstream@DU?$char_traits@D@std@@@std@@QAEXXZ 004fc1fc     msvcprt:MSVCP71.dll
 0002:00000200       __imp_??$?MDU?$char_traits@D@std@@V?$allocator@D@1@@std@@YA_NABV?$basic_string@DU?$char_traits@D@std@@V?$allocator@D@2@@0@0@Z 004fc200     msvcprt:MSVCP71.dll
 0002:00000204       __imp_?clear@?$basic_string@DU?$char_traits@D@std@@V?$allocator@D@2@@std@@QAEXXZ 004fc204     msvcprt:MSVCP71.dll
 0002:00000208       __imp_??$?6U?$char_traits@D@std@@@std@@YAAAV?$basic_ostream@DU?$char_traits@D@std@@@0@AAV10@PBD@Z 004fc208     msvcprt:MSVCP71.dll
 0002:0000020c       __imp_??6?$basic_ostream@DU?$char_traits@D@std@@@std@@QAEAAV01@H@Z 004fc20c     msvcprt:MSVCP71.dll
 0002:00000210       __imp_?ends@std@@YAAAV?$basic_ostream@DU?$char_traits@D@std@@@1@AAV21@@Z 004fc210     msvcprt:MSVCP71.dll
 0002:00000214       __imp_??6?$basic_ostream@DU?$char_traits@D@std@@@std@@QAEAAV01@P6AAAV01@AAV01@@Z@Z 004fc214     msvcprt:MSVCP71.dll
 0002:00000218       __imp_?freeze@strstreambuf@std@@QAEX_N@Z 004fc218     msvcprt:MSVCP71.dll
 0002:0000021c       __imp_??1ios_base@std@@UAE@XZ 004fc21c     msvcprt:MSVCP71.dll
 0002:00000220       __imp_??1strstream@std@@UAE@XZ 004fc220     msvcprt:MSVCP71.dll
 0002:00000224       __imp_??_7ios_base@std@@6B@ 004fc224     msvcprt:MSVCP71.dll
 0002:00000228       __imp_??_7?$basic_ios@DU?$char_traits@D@std@@@std@@6B@ 004fc228     msvcprt:MSVCP71.dll
 0002:0000022c       __imp_??0?$basic_iostream@DU?$char_traits@D@std@@@std@@QAE@PAV?$basic_streambuf@DU?$char_traits@D@std@@@1@@Z 004fc22c     msvcprt:MSVCP71.dll
 0002:00000230       \177MSVCP71_NULL_THUNK_DATA 004fc230     msvcprt:MSVCP71.dll
 0002:00000234       __imp____security_error_handler 004fc234     msvcrt:MSVCR71.dll
 0002:00000238       __imp___onexit             004fc238     msvcrt:MSVCR71.dll
 0002:0000023c       __imp____dllonexit         004fc23c     msvcrt:MSVCR71.dll
 0002:00000240       __imp_?terminate@@YAXXZ    004fc240     msvcrt:MSVCR71.dll
 0002:00000244       __imp____set_app_type      004fc244     msvcrt:MSVCR71.dll
 0002:00000248       __imp____p__fmode          004fc248     msvcrt:MSVCR71.dll
 0002:0000024c       __imp____p__commode        004fc24c     msvcrt:MSVCR71.dll
 0002:00000250       __imp___adjust_fdiv        004fc250     msvcrt:MSVCR71.dll
 0002:00000254       __imp____setusermatherr    004fc254     msvcrt:MSVCR71.dll
 0002:00000258       __imp___initterm           004fc258     msvcrt:MSVCR71.dll
 0002:0000025c       __imp___beginthreadex      004fc25c     msvcrt:MSVCR71.dll
 0002:00000260       __imp___purecall           004fc260     msvcrt:MSVCR71.dll
 0002:00000264       __imp__atoi                004fc264     msvcrt:MSVCR71.dll
 0002:00000268       __imp__fclose              004fc268     msvcrt:MSVCR71.dll
 0002:0000026c       __imp__fgets               004fc26c     msvcrt:MSVCR71.dll
 0002:00000270       __imp__fopen               004fc270     msvcrt:MSVCR71.dll
 0002:00000274       __imp__memmove             004fc274     msvcrt:MSVCR71.dll
 0002:00000278       __imp___time64             004fc278     msvcrt:MSVCR71.dll
 0002:0000027c       __imp__srand               004fc27c     msvcrt:MSVCR71.dll
 0002:00000280       __imp__time                004fc280     msvcrt:MSVCR71.dll
 0002:00000284       __imp___mktime64           004fc284     msvcrt:MSVCR71.dll
 0002:00000288       __imp__strftime            004fc288     msvcrt:MSVCR71.dll
 0002:0000028c       __imp___localtime64        004fc28c     msvcrt:MSVCR71.dll
 0002:00000290       __imp___snprintf           004fc290     msvcrt:MSVCR71.dll
 0002:00000294       __imp__localtime           004fc294     msvcrt:MSVCR71.dll
 0002:00000298       __imp__fprintf             004fc298     msvcrt:MSVCR71.dll
 0002:0000029c       __imp____getmainargs       004fc29c     msvcrt:MSVCR71.dll
 0002:000002a0       __imp___amsg_exit          004fc2a0     msvcrt:MSVCR71.dll
 0002:000002a4       __imp___acmdln             004fc2a4     msvcrt:MSVCR71.dll
 0002:000002a8       __imp__exit                004fc2a8     msvcrt:MSVCR71.dll
 0002:000002ac       __imp___cexit              004fc2ac     msvcrt:MSVCR71.dll
 0002:000002b0       __imp___ismbblead          004fc2b0     msvcrt:MSVCR71.dll
 0002:000002b4       __imp___XcptFilter         004fc2b4     msvcrt:MSVCR71.dll
 0002:000002b8       __imp__difftime            004fc2b8     msvcrt:MSVCR71.dll
 0002:000002bc       __imp__sprintf             004fc2bc     msvcrt:MSVCR71.dll
 0002:000002c0       __imp__system              004fc2c0     msvcrt:MSVCR71.dll
 0002:000002c4       __imp___strtime            004fc2c4     msvcrt:MSVCR71.dll
 0002:000002c8       __imp___strdate            004fc2c8     msvcrt:MSVCR71.dll
 0002:000002cc       __imp__floor               004fc2cc     msvcrt:MSVCR71.dll
 0002:000002d0       __imp__rand                004fc2d0     msvcrt:MSVCR71.dll
 0002:000002d4       __imp_??0exception@@QAE@XZ 004fc2d4     msvcrt:MSVCR71.dll
 0002:000002d8       __imp_??1exception@@UAE@XZ 004fc2d8     msvcrt:MSVCR71.dll
 0002:000002dc       __imp___vsnprintf          004fc2dc     msvcrt:MSVCR71.dll
 0002:000002e0       __imp__strtok              004fc2e0     msvcrt:MSVCR71.dll
 0002:000002e4       __imp__strstr              004fc2e4     msvcrt:MSVCR71.dll
 0002:000002e8       __imp___CxxThrowException@8 004fc2e8     msvcrt:MSVCR71.dll
 0002:000002ec       __imp_??0exception@@QAE@ABV0@@Z 004fc2ec     msvcrt:MSVCR71.dll
 0002:000002f0       __imp____CxxFrameHandler   004fc2f0     msvcrt:MSVCR71.dll
 0002:000002f4       __imp___except_handler3    004fc2f4     msvcrt:MSVCR71.dll
 0002:000002f8       __imp__free                004fc2f8     msvcrt:MSVCR71.dll
 0002:000002fc       __imp__malloc              004fc2fc     msvcrt:MSVCR71.dll
 0002:00000300       __imp___mbscmp             004fc300     msvcrt:MSVCR71.dll
 0002:00000304       __imp___mbstok             004fc304     msvcrt:MSVCR71.dll
 0002:00000308       __imp__calloc              004fc308     msvcrt:MSVCR71.dll
 0002:0000030c       __imp__frexp               004fc30c     msvcrt:MSVCR71.dll
 0002:00000310       __imp___strlwr             004fc310     msvcrt:MSVCR71.dll
 0002:00000314       __imp__strncpy             004fc314     msvcrt:MSVCR71.dll
 0002:00000318       __imp__fseek               004fc318     msvcrt:MSVCR71.dll
 0002:0000031c       __imp__fread               004fc31c     msvcrt:MSVCR71.dll
 0002:00000320       __imp__ftell               004fc320     msvcrt:MSVCR71.dll
 0002:00000324       __imp__tolower             004fc324     msvcrt:MSVCR71.dll
 0002:00000328       __imp___CIacos             004fc328     msvcrt:MSVCR71.dll
 0002:0000032c       __imp___CIasin             004fc32c     msvcrt:MSVCR71.dll
 0002:00000330       __imp___CIpow              004fc330     msvcrt:MSVCR71.dll
 0002:00000334       __imp__realloc             004fc334     msvcrt:MSVCR71.dll
 0002:00000338       __imp__qsort               004fc338     msvcrt:MSVCR71.dll
 0002:0000033c       __imp___controlfp          004fc33c     msvcrt:MSVCR71.dll
 0002:00000340       __imp__isspace             004fc340     msvcrt:MSVCR71.dll
 0002:00000344       __imp__isalpha             004fc344     msvcrt:MSVCR71.dll
 0002:00000348       __imp__isalnum             004fc348     msvcrt:MSVCR71.dll
 0002:0000034c       __imp__strncmp             004fc34c     msvcrt:MSVCR71.dll
 0002:00000350       __imp__strchr              004fc350     msvcrt:MSVCR71.dll
 0002:00000354       __imp___ftol               004fc354     msvcrt:MSVCR71.dll
 0002:00000358       __imp__memset              004fc358     msvcrt:MSVCR71.dll
 0002:0000035c       __imp_??1type_info@@UAE@XZ 004fc35c     msvcrt:MSVCR71.dll
 0002:00000360       __imp___c_exit             004fc360     msvcrt:MSVCR71.dll
 0002:00000364       __imp___exit               004fc364     msvcrt:MSVCR71.dll
 0002:00000368       \177MSVCR71_NULL_THUNK_DATA 004fc368     msvcrt:MSVCR71.dll
 0002:0000036c       __imp__SQLSetEnvAttr@16    004fc36c     odbc32:ODBC32.dll
 0002:00000370       __imp__SQLParamData@8      004fc370     odbc32:ODBC32.dll
 0002:00000374       __imp__SQLPutData@12       004fc374     odbc32:ODBC32.dll
 0002:00000378       __imp__SQLBindParameter@40 004fc378     odbc32:ODBC32.dll
 0002:0000037c       __imp__SQLPrepare@12       004fc37c     odbc32:ODBC32.dll
 0002:00000380       __imp__SQLExecute@4        004fc380     odbc32:ODBC32.dll
 0002:00000384       __imp__SQLGetDiagField@28  004fc384     odbc32:ODBC32.dll
 0002:00000388       __imp__SQLGetData@24       004fc388     odbc32:ODBC32.dll
 0002:0000038c       __imp__SQLFetch@4          004fc38c     odbc32:ODBC32.dll
 0002:00000390       __imp__SQLExecDirect@12    004fc390     odbc32:ODBC32.dll
 0002:00000394       __imp__SQLConnect@28       004fc394     odbc32:ODBC32.dll
 0002:00000398       __imp__SQLFreeHandle@8     004fc398     odbc32:ODBC32.dll
 0002:0000039c       __imp__SQLSetConnectAttr@16 004fc39c     odbc32:ODBC32.dll
 0002:000003a0       __imp__SQLAllocHandle@12   004fc3a0     odbc32:ODBC32.dll
 0002:000003a4       __imp__SQLDisconnect@4     004fc3a4     odbc32:ODBC32.dll
 0002:000003a8       __imp__SQLCloseCursor@4    004fc3a8     odbc32:ODBC32.dll
 0002:000003ac       __imp__SQLGetDiagRec@32    004fc3ac     odbc32:ODBC32.dll
 0002:000003b0       \177ODBC32_NULL_THUNK_DATA 004fc3b0     odbc32:ODBC32.dll
 0002:000003b4       __imp__VariantClear@4      004fc3b4     oleaut32:OLEAUT32.dll
 0002:000003b8       \177OLEAUT32_NULL_THUNK_DATA 004fc3b8     oleaut32:OLEAUT32.dll
 0002:000003bc       __imp__Shell_NotifyIconA@8 004fc3bc     shell32:SHELL32.dll
 0002:000003c0       \177SHELL32_NULL_THUNK_DATA 004fc3c0     shell32:SHELL32.dll
 0002:000003c4       __imp__ShowCursor@4        004fc3c4     user32:USER32.dll
 0002:000003c8       __imp__GetWindowRect@8     004fc3c8     user32:USER32.dll
 0002:000003cc       __imp__SetCursorPos@8      004fc3cc     user32:USER32.dll
 0002:000003d0       __imp__SendMessageCallbackA@24 004fc3d0     user32:USER32.dll
 0002:000003d4       __imp__SendMessageTimeoutA@28 004fc3d4     user32:USER32.dll
 0002:000003d8       __imp__SendMessageA@16     004fc3d8     user32:USER32.dll
 0002:000003dc       __imp__DialogBoxParamA@20  004fc3dc     user32:USER32.dll
 0002:000003e0       __imp__KillTimer@8         004fc3e0     user32:USER32.dll
 0002:000003e4       __imp__EndDialog@8         004fc3e4     user32:USER32.dll
 0002:000003e8       __imp__SetWindowTextA@8    004fc3e8     user32:USER32.dll
 0002:000003ec       __imp__ModifyMenuA@20      004fc3ec     user32:USER32.dll
 0002:000003f0       __imp__SetTimer@16         004fc3f0     user32:USER32.dll
 0002:000003f4       __imp__LoadMenuA@8         004fc3f4     user32:USER32.dll
 0002:000003f8       __imp__GetSubMenu@8        004fc3f8     user32:USER32.dll
 0002:000003fc       __imp__GetCursorPos@4      004fc3fc     user32:USER32.dll
 0002:00000400       __imp__SetForegroundWindow@4 004fc400     user32:USER32.dll
 0002:00000404       __imp__TrackPopupMenu@28   004fc404     user32:USER32.dll
 0002:00000408       __imp__DestroyMenu@4       004fc408     user32:USER32.dll
 0002:0000040c       __imp__LoadIconA@8         004fc40c     user32:USER32.dll
 0002:00000410       __imp__ShowWindow@8        004fc410     user32:USER32.dll
 0002:00000414       __imp__SetFocus@4          004fc414     user32:USER32.dll
 0002:00000418       __imp__GetDlgItemTextA@16  004fc418     user32:USER32.dll
 0002:0000041c       __imp__SetDlgItemTextA@12  004fc41c     user32:USER32.dll
 0002:00000420       __imp__GetDlgItem@8        004fc420     user32:USER32.dll
 0002:00000424       __imp__EnableWindow@8      004fc424     user32:USER32.dll
 0002:00000428       __imp__MessageBoxA@16      004fc428     user32:USER32.dll
 0002:0000042c       \177USER32_NULL_THUNK_DATA 004fc42c     user32:USER32.dll
 0002:00000430       __imp__mmioAscend@12       004fc430     winmm:WINMM.dll
 0002:00000434       __imp__mmioRead@12         004fc434     winmm:WINMM.dll
 0002:00000438       __imp__mmioDescend@16      004fc438     winmm:WINMM.dll
 0002:0000043c       __imp__timeGetTime@0       004fc43c     winmm:WINMM.dll
 0002:00000440       __imp__mmioGetInfo@12      004fc440     winmm:WINMM.dll
 0002:00000444       __imp__mmioCreateChunk@12  004fc444     winmm:WINMM.dll
 0002:00000448       __imp__mmioSeek@12         004fc448     winmm:WINMM.dll
 0002:0000044c       __imp__mmioSetInfo@12      004fc44c     winmm:WINMM.dll
 0002:00000450       __imp__mmioAdvance@12      004fc450     winmm:WINMM.dll
 0002:00000454       __imp__mmioWrite@12        004fc454     winmm:WINMM.dll
 0002:00000458       __imp__mmioClose@8         004fc458     winmm:WINMM.dll
 0002:0000045c       __imp__mmioOpenA@12        004fc45c     winmm:WINMM.dll
 0002:00000460       \177WINMM_NULL_THUNK_DATA  004fc460     winmm:WINMM.dll
 0002:00000464       __imp__WSARecv@28          004fc464     ws2_32:WS2_32.dll
 0002:00000468       __imp__WSAGetLastError@0   004fc468     ws2_32:WS2_32.dll
 0002:0000046c       __imp__WSAAccept@20        004fc46c     ws2_32:WS2_32.dll
 0002:00000470       __imp__listen@8            004fc470     ws2_32:WS2_32.dll
 0002:00000474       __imp__gethostbyname@4     004fc474     ws2_32:WS2_32.dll
 0002:00000478       __imp__gethostname@8       004fc478     ws2_32:WS2_32.dll
 0002:0000047c       __imp__bind@12             004fc47c     ws2_32:WS2_32.dll
 0002:00000480       __imp__htons@4             004fc480     ws2_32:WS2_32.dll
 0002:00000484       __imp__htonl@4             004fc484     ws2_32:WS2_32.dll
 0002:00000488       __imp__inet_addr@4         004fc488     ws2_32:WS2_32.dll
 0002:0000048c       __imp__getpeername@12      004fc48c     ws2_32:WS2_32.dll
 0002:00000490       __imp__inet_ntoa@4         004fc490     ws2_32:WS2_32.dll
 0002:00000494       __imp__WSACleanup@0        004fc494     ws2_32:WS2_32.dll
 0002:00000498       __imp__ntohs@4             004fc498     ws2_32:WS2_32.dll
 0002:0000049c       __imp__WSAStartup@8        004fc49c     ws2_32:WS2_32.dll
 0002:000004a0       __imp__WSASend@28          004fc4a0     ws2_32:WS2_32.dll
 0002:000004a4       __imp__WSASocketA@24       004fc4a4     ws2_32:WS2_32.dll
 0002:000004a8       __imp__closesocket@4       004fc4a8     ws2_32:WS2_32.dll
 0002:000004ac       \177WS2_32_NULL_THUNK_DATA 004fc4ac     ws2_32:WS2_32.dll
 0002:000004b0       __imp__D3DXCreateCubeTextureFromFileInMemoryEx@56 004fc4b0     d3dx9:d3dx9_26.dll
 0002:000004b4       __imp__D3DXCreateCubeTextureFromFileExA@52 004fc4b4     d3dx9:d3dx9_26.dll
 0002:000004b8       __imp__D3DXCreateTextureFromFileInMemoryEx@60 004fc4b8     d3dx9:d3dx9_26.dll
 0002:000004bc       __imp__D3DXCreateTextureFromFileExA@56 004fc4bc     d3dx9:d3dx9_26.dll
 0002:000004c0       __imp__D3DXMatrixLookAtLH@16 004fc4c0     d3dx9:d3dx9_26.dll
 0002:000004c4       __imp__D3DXMatrixScaling@16 004fc4c4     d3dx9:d3dx9_26.dll
 0002:000004c8       __imp__D3DXMatrixTranslation@16 004fc4c8     d3dx9:d3dx9_26.dll
 0002:000004cc       __imp__D3DXMatrixMultiply@12 004fc4cc     d3dx9:d3dx9_26.dll
 0002:000004d0       __imp__D3DXGetFVFVertexSize@4 004fc4d0     d3dx9:d3dx9_26.dll
 0002:000004d4       __imp__D3DXVec3Project@24  004fc4d4     d3dx9:d3dx9_26.dll
 0002:000004d8       __imp__D3DXVec3Normalize@8 004fc4d8     d3dx9:d3dx9_26.dll
 0002:000004dc       \177d3dx9_26_NULL_THUNK_DATA 004fc4dc     d3dx9:d3dx9_26.dll
 0002:000004fc       ??_C@_07LDHOHMPD@restart?$AA@ 004fc4fc     SessionServer.obj
 0002:00000504       ??_C@_04MKNBDEPB@exit?$AA@ 004fc504     SessionServer.obj
 0002:0000050c       ??_C@_04PEGFANN@stop?$AA@  004fc50c     SessionServer.obj
 0002:00000514       ??_C@_05FAGFPHJG@start?$AA@ 004fc514     SessionServer.obj
 0002:0000051c       ??_C@_0M@KAKCAIPD@LoginServer?$AA@ 004fc51c     SessionServer.obj
 0002:00000528       ??_C@_0O@ONPIIGBA@SessionServer?$AA@ 004fc528     SessionServer.obj
 0002:00000538       ??_C@_0M@HNICKDGL@FieldServer?$AA@ 004fc538     SessionServer.obj
 0002:00000544       ??_C@_0M@JCBHIEP@AgentServer?$AA@ 004fc544     SessionServer.obj
 0002:00000550       ??_C@_0BA@OAEGKFCM@LoginServer?4exe?$AA@ 004fc550     SessionServer.obj
 0002:00000560       ??_C@_0BC@IHBOPFID@SessionServer?4exe?$AA@ 004fc560     SessionServer.obj
 0002:00000574       ??_C@_0BA@CAHJFECN@FieldServer?4exe?$AA@ 004fc574     SessionServer.obj
 0002:00000584       ??_C@_0BA@FMLHOMJK@AgentServer?4exe?$AA@ 004fc584     SessionServer.obj
 0002:00000594       ??_C@_04MOIHHPNJ@Stop?$AA@ 004fc594     SessionServer.obj
 0002:0000059c       ??_C@_05FHMJPCKA@Start?$AA@ 004fc59c     SessionServer.obj
 0002:000005a4       ??_C@_05PEDNBBBD@Pause?$AA@ 004fc5a4     SessionServer.obj
 0002:000005ac       ??_C@_06DEPGELNG@Resume?$AA@ 004fc5ac     SessionServer.obj
 0002:000005b3       ??_C@_00CNPNBAHC@?$AA@     004fc5b3     SessionServer.obj
 0002:000005b4       ??_C@_0BM@KJNPOHFD@Do?5you?5really?5want?5to?5exit?$DP?$AA@ 004fc5b4     SessionServer.obj
 0002:000005d0       ??_C@_07KGMMFLDN@Warning?$AA@ 004fc5d0     SessionServer.obj
 0002:000005d8       ??_7CSessionServer@@6B@    004fc5d8     NetServerLib_A:s_CSessionServer.obj
 0002:00000614       ??_C@_0CP@NHONACNC@ERROR?3StartClientManager?5m_pClie@ 004fc614     NetServerLib_A:s_CSessionServer.obj
 0002:00000644       ??_C@_0BA@NGKGEHMN@Thai?5DB?5Open?5OK?$AA@ 004fc644     NetServerLib_A:s_CSessionServer.obj
 0002:00000654       ??_C@_0BJ@NEKAGBDM@ERROR?3Thai?5DB?5Open?5Error?$AA@ 004fc654     NetServerLib_A:s_CSessionServer.obj
 0002:00000670       ??_C@_0BJ@EEADDJDO@ERROR?3Gsp?5db?5open?5failed?$AA@ 004fc670     NetServerLib_A:s_CSessionServer.obj
 0002:0000068c       ??_C@_0BL@DJMCPMDA@ERROR?3Terra?5db?5open?5failed?$AA@ 004fc68c     NetServerLib_A:s_CSessionServer.obj
 0002:000006a8       ??_C@_0BJ@OLGNGCDG@ERROR?3Log?5db?5open?5failed?$AA@ 004fc6a8     NetServerLib_A:s_CSessionServer.obj
 0002:000006c4       ??_C@_0BK@GBOAMBEG@ERROR?3User?5db?5open?5failed?$AA@ 004fc6c4     NetServerLib_A:s_CSessionServer.obj
 0002:000006e0       ??_C@_0BA@HFLKIFP@Server?5Start?5OK?$AA@ 004fc6e0     NetServerLib_A:s_CSessionServer.obj
 0002:000006f0       ??_C@_0DI@PBDOEOKI@?$DN?$DN?$DN?$DN?$DN?$DN?$DN?$DN?$DN?$DN?$DN?$DN?$DN?$DN?$DN?$DN?$DN?$DN?$DN?$DN?$DN?$DN?$DN?$DN?$DN?$DN?$DN?$DN?$DN?$DN?$DN?$DN@ 004fc6f0     NetServerLib_A:s_CSessionServer.obj
 0002:00000728       ??_C@_0BF@GOOHNPAC@Server?5Resume?5Failed?$AA@ 004fc728     NetServerLib_A:s_CSessionServer.obj
 0002:00000740       ??_C@_0BB@JHJIHPDE@Server?5Resume?5OK?$AA@ 004fc740     NetServerLib_A:s_CSessionServer.obj
 0002:00000754       ??_C@_0M@GANEACFD@PROFILE?5OFF?$AA@ 004fc754     NetServerLib_A:s_CSessionServer.obj
 0002:00000760       ??_C@_0L@DDOKOIDC@PROFILE?5ON?$AA@ 004fc760     NetServerLib_A:s_CSessionServer.obj
 0002:0000076c       ??_C@_0L@JBIAMFIF@svrcurinfo?$AA@ 004fc76c     NetServerLib_A:s_CSessionServer.obj
 0002:00000778       ??_C@_0M@CKNIHMBN@svrfullinfo?$AA@ 004fc778     NetServerLib_A:s_CSessionServer.obj
 0002:00000784       ??_C@_0M@HEMLDDJB@profile_off?$AA@ 004fc784     NetServerLib_A:s_CSessionServer.obj
 0002:00000790       ??_C@_0L@BGOJEFOG@profile_on?$AA@ 004fc790     NetServerLib_A:s_CSessionServer.obj
 0002:0000079c       ??_C@_0N@ICFNLKKJ@chat?5system?5?$AA@ 004fc79c     NetServerLib_A:s_CSessionServer.obj
 0002:000007ac       ??_C@_06FHFOAHML@system?$AA@ 004fc7ac     NetServerLib_A:s_CSessionServer.obj
 0002:000007b4       ??_C@_04BLJLMHHG@chat?$AA@ 004fc7b4     NetServerLib_A:s_CSessionServer.obj
 0002:000007bc       ??_C@_04CCHAHKJA@user?$AA@ 004fc7bc     NetServerLib_A:s_CSessionServer.obj
 0002:000007c4       ??_C@_0L@FDBFPAFL@print_user?$AA@ 004fc7c4     NetServerLib_A:s_CSessionServer.obj
 0002:000007d0       ??_C@_08NMPFAJNH@print_ip?$AA@ 004fc7d0     NetServerLib_A:s_CSessionServer.obj
 0002:000007dc       ??_C@_03GHLFAJII@req?$AA@  004fc7dc     NetServerLib_A:s_CSessionServer.obj
 0002:000007e0       ??_C@_0BM@CANLOKHP@INFO?3Tracing?5User?5All?5Clear?$AA@ 004fc7e0     NetServerLib_A:s_CSessionServer.obj
 0002:000007fc       ??_C@_0CJ@FKOLHGAC@?$CI?$CFs?$CJRAN?5?$CFd?5SERVER?5CLOSE?5CLIENT?5T@ 004fc7fc     NetServerLib_A:s_CSessionServer.obj
 0002:00000828       ??_C@_0P@PECADNOA@Server?5Stop?5OK?$AA@ 004fc828     NetServerLib_A:s_CSessionServer.obj
 0002:00000838       ??_C@_08IPKAMICC@Stop?5CFG?$AA@ 004fc838     NetServerLib_A:s_CSessionServer.obj
 0002:00000844       ??_C@_0O@EPPONEHL@Stop?5DataBase?$AA@ 004fc844     NetServerLib_A:s_CSessionServer.obj
 0002:00000854       ??_C@_0BD@MIFNNGPN@Stop?5Message?5Queue?$AA@ 004fc854     NetServerLib_A:s_CSessionServer.obj
 0002:00000868       ??_C@_09FPOFEDIP@Stop?5IOCP?$AA@ 004fc868     NetServerLib_A:s_CSessionServer.obj
 0002:00000874       ??_C@_0CC@PANINPEN@?$DN?$DN?5Please?5wait?5until?5server?5stop@ 004fc874     NetServerLib_A:s_CSessionServer.obj
 0002:00000898       ??_C@_0BA@PMAHOJP@Server?5Pause?5OK?$AA@ 004fc898     NetServerLib_A:s_CSessionServer.obj
 0002:000008a8       ??_C@_0CD@BOCOJLJE@CSessionServer?3?3DatabaseProc?$CI?$CJ?5E@ 004fc8a8     NetServerLib_A:s_CSessionServerThread.obj
 0002:000008cc       ??_C@_0CM@LFKIPOI@CSessionServer?3?3DatabaseProc?5Exe@ 004fc8cc     NetServerLib_A:s_CSessionServerThread.obj
 0002:000008f8       ??_C@_0BG@ILKKAKAM@Listen?5Thread?5Stopped?$AA@ 004fc8f8     NetServerLib_A:s_CSessionServerThread.obj
 0002:00000910       ??_C@_0DI@IJHJNLMK@CSessionServer?3?3ListenProc?5Creat@ 004fc910     NetServerLib_A:s_CSessionServerThread.obj
 0002:00000948       ??_C@_0DF@JEEAAEMM@CSessionServer?3?3ListenProc?5Not?5a@ 004fc948     NetServerLib_A:s_CSessionServerThread.obj
 0002:00000980       ??_C@_0BD@IFDNICLM@ERROR?3WSAAccept?5?$CFd?$AA@ 004fc980     NetServerLib_A:s_CSessionServerThread.obj
 0002:00000994       ??_C@_0BN@LILPPDDI@?$DN?5Last?5Database?5Job?5Executed?$AA@ 004fc994     NetServerLib_A:s_CSessionServerThread.obj
 0002:000009b4       __real@3f800000            004fc9b4     NetServerLib_A:s_CSessionServerThread.obj
 0002:000009b4       __real@4@3fff8000000000000000 004fc9b4     vorbisfile_static:psy.obj
 0002:000009b8       ??_C@_0CI@DCIFHHBN@Msg?5Queue?5Size?5?$CFd?5Send?5?$CFd?1?$CFd?5Rec@ 004fc9b8     NetServerLib_A:s_CSessionServerThread.obj
 0002:000009e0       ??_C@_0CO@HFKCAFKC@Out?5Packet?5Count?5?$CFd?1sec?5Traffic?5@ 004fc9e0     NetServerLib_A:s_CSessionServerThread.obj
 0002:00000a10       ??_C@_0CN@NABDCCKM@In?5Packet?5Count?5?$CFd?1sec?5Traffic?5?$CF@ 004fca10     NetServerLib_A:s_CSessionServerThread.obj
 0002:00000a40       ??_C@_0CF@JFLPNFGA@Update?5?$CFd?5FPS?5Avg?5?$CFd?5msec?5User?5?$CF@ 004fca40     NetServerLib_A:s_CSessionServerThread.obj
 0002:00000a68       __real@3c888889            004fca68     NetServerLib_A:s_CSessionServerThread.obj
 0002:00000a6c       __real@476a6000            004fca6c     NetServerLib_A:s_CSessionServerThread.obj
 0002:00000a70       __real@4f800000            004fca70     NetServerLib_A:s_CSessionServerThread.obj
 0002:00000a74       ??_C@_0CL@BLOBFFNO@?$CI?$CFs?$CJRAN?5?$CFd?5SERVER?5ERROR?5DETECTED@ 004fca74     NetServerLib_A:s_CSessionServerThread.obj
 0002:00000aa0       ??_C@_0BA@HMIOPMHF@Check?5Heartbeat?$AA@ 004fcaa0     NetServerLib_A:s_CSessionServerThread.obj
 0002:00000ab0       ??_C@_0BH@PNPMMNDA@Send?5Heartbeat?5Request?$AA@ 004fcab0     NetServerLib_A:s_CSessionServerThread.obj
 0002:00000ac8       __real@3f50624de0000000    004fcac8     NetServerLib_A:s_CSessionServerThread.obj
 0002:00000ad0       __real@0000000000000000    004fcad0     NetServerLib_A:s_CSessionServerThread.obj
 0002:00000ad0       __real@8@00000000000000000000 004fcad0     vorbisfile_static:vorbisfile.obj
 0002:00000ad8       ??_C@_0CO@MNEKCIF@ERROR?3WorkProc?5have?5bytes?0?5not?5s@ 004fcad8     NetServerLib_A:s_CSessionServerThread.obj
 0002:00000b08       ??_C@_0BK@JOEGCIAA@WorkProc?5WSARecv?5?$CFd?5ERROR?$AA@ 004fcb08     NetServerLib_A:s_CSessionServerThread.obj
 0002:00000b24       ??_C@_0BI@JOKPIMGN@Client?5?$CFd?5Unknown?5State?$AA@ 004fcb24     NetServerLib_A:s_CSessionServerThread.obj
 0002:00000b3c       ??_7logic_error@std@@6B@   004fcb3c     NetServerLib_A:s_CServer.obj
 0002:00000b44       ??_7length_error@std@@6B@  004fcb44     NetServerLib_A:s_CServer.obj
 0002:00000b4c       ??_C@_0BK@MBANLDIP@CreateIoCompletionPort?5OK?$AA@ 004fcb4c     NetServerLib_A:s_CServer.obj
 0002:00000b68       ??_C@_0BN@MJCONLFF@CreateIoCompletionPort?5Error?$AA@ 004fcb68     NetServerLib_A:s_CServer.obj
 0002:00000b88       ??_C@_0CI@LOMIPIGO@?$CFd?5Worker?5Thread?5Create?5Error?5co@ 004fcb88     NetServerLib_A:s_CServer.obj
 0002:00000bb0       ??_C@_0BO@JCMCOKAM@?$CFd?5st?5Worker?5Thread?5Create?5OK?$AA@ 004fcbb0     NetServerLib_A:s_CServer.obj
 0002:00000bd0       ??_C@_0BB@LNNHPCAD@?$CFd?5Worker?5Thread?$AA@ 004fcbd0     NetServerLib_A:s_CServer.obj
 0002:00000be4       ??_C@_0DH@KFDEPHPJ@?9?9?9?9?9?9?9?9?9?9?9?9?9?9?9?9?9?9?9?9?9?9?9?9?9?9?9?9?9?9?9?9@ 004fcbe4     NetServerLib_A:s_CServer.obj
 0002:00000c1c       ??_C@_0BN@MADCNPIG@?$CFu?5System?5Processor?5Detected?$AA@ 004fcc1c     NetServerLib_A:s_CServer.obj
 0002:00000c3c       ??_C@_09HIJIOMBC@?$CFs?5?$CFu?5Mhz?$AA@ 004fcc3c     NetServerLib_A:s_CServer.obj
 0002:00000c48       ??_C@_02DKCKIIND@?$CFs?$AA@ 004fcc48     NetServerLib_A:s_CServer.obj
 0002:00000c4c       ??_C@_0DH@FLGPGHKE@?9?9?9?9?9?9?9?9?9?9?9?9?9?9?9?5System?5Informati@ 004fcc4c     NetServerLib_A:s_CServer.obj
 0002:00000c84       ??_C@_0BP@MACCEFKD@Server?5Update?5Thread?5Create?5OK?$AA@ 004fcc84     NetServerLib_A:s_CServer.obj
 0002:00000ca4       ??_C@_0DD@PFGCDEBA@Server?5Update?5Thread?5Create?5Fail@ 004fcca4     NetServerLib_A:s_CServer.obj
 0002:00000cd8       ??_C@_0BK@GPJKHKI@Database?5Thread?5Create?5OK?$AA@ 004fccd8     NetServerLib_A:s_CServer.obj
 0002:00000cf4       ??_C@_0CH@NPNNDBJJ@Database?5Thread?5Create?5Error?5cod@ 004fccf4     NetServerLib_A:s_CServer.obj
 0002:00000d1c       ??_C@_0BD@OLBABOEK@vector?$DMT?$DO?5too?5long?$AA@ 004fcd1c     NetServerLib_A:s_CServer.obj
 0002:00000d30       ??_C@_0BP@JCECDHBH@Service?5Provider?3MINCOMS?5KOREA?$AA@ 004fcd30     NetServerLib_A:s_CServer.obj
 0002:00000d50       ??_C@_0CA@FPBMOHE@Service?5Provider?3Global?5Service?$AA@ 004fcd50     NetServerLib_A:s_CServer.obj
 0002:00000d70       ??_C@_0BK@BPGABHIK@Service?5Provider?3MALAYSIA?$AA@ 004fcd70     NetServerLib_A:s_CServer.obj
 0002:00000d8c       ??_C@_0CJ@KFIPFELK@Service?5Provider?3Global?5Service?5@ 004fcd8c     NetServerLib_A:s_CServer.obj
 0002:00000db8       ??_C@_0BK@KHOAHOAA@Service?5Provider?3THAILAND?$AA@ 004fcdb8     NetServerLib_A:s_CServer.obj
 0002:00000dd4       ??_C@_0CF@DNANIAGG@Service?5Provider?3Philippines?1Vie@ 004fcdd4     NetServerLib_A:s_CServer.obj
 0002:00000dfc       ??_C@_0BH@CGNAJKGC@Service?5Provider?3JAPAN?$AA@ 004fcdfc     NetServerLib_A:s_CServer.obj
 0002:00000e14       ??_C@_0BH@KNBKOKDM@Service?5Provider?3CHINA?$AA@ 004fce14     NetServerLib_A:s_CServer.obj
 0002:00000e2c       ??_C@_0BI@OJFPOPHL@Service?5Provider?3TAIWAN?$AA@ 004fce2c     NetServerLib_A:s_CServer.obj
 0002:00000e44       ??_C@_0BH@HICEILDO@Service?5Provider?3KOREA?$AA@ 004fce44     NetServerLib_A:s_CServer.obj
 0002:00000e5c       ??_C@_0BF@JPHOJJNK@ERROR?3MaxClient?5?$DO?5?$CFd?$AA@ 004fce5c     NetServerLib_A:s_CServer.obj
 0002:00000e78       ??_C@_0FA@PJCDPCOM@ERROR?3Session?5Server?5Configurati@ 004fce78     NetServerLib_A:s_CServer.obj
 0002:00000ec8       ??_C@_0BC@DPJMHLIO@svr_session_0?4ini?$AA@ 004fcec8     NetServerLib_A:s_CServer.obj
 0002:00000edc       ??_C@_0BP@FMLFHBEA@Server?5Accept?5Thread?5Create?5OK?$AA@ 004fcedc     NetServerLib_A:s_CServer.obj
 0002:00000efc       ??_C@_0DD@JLLDADCO@Server?5Accept?5Thread?5Create?5Fail@ 004fcefc     NetServerLib_A:s_CServer.obj
 0002:00000f30       ??_C@_0BM@JOLDHBKP@Listen?5error?4?5Error?5code?3?$CFd?$AA@ 004fcf30     NetServerLib_A:s_CServer.obj
 0002:00000f4c       ??_C@_05HKPGCKL@?$CFs?3?$CFd?$AA@ 004fcf4c     NetServerLib_A:s_CServer.obj
 0002:00000f54       ??_C@_02GMHACPFF@?$CFu?$AA@ 004fcf54     NetServerLib_A:s_CServer.obj
 0002:00000f58       ??_C@_01LFCBOECM@?4?$AA@   004fcf58     NetServerLib_A:s_CServer.obj
 0002:00000f5c       ??_C@_07HJHOKAJK@Bind?5OK?$AA@ 004fcf5c     NetServerLib_A:s_CServer.obj
 0002:00000f64       ??_C@_0BK@LILACMI@bind?5Error?4?5Error?5Code?3?$CFd?$AA@ 004fcf64     NetServerLib_A:s_CServer.obj
 0002:00000f80       ??_C@_0BA@EJGBBIFN@inet_addr?5error?$AA@ 004fcf80     NetServerLib_A:s_CServer.obj
 0002:00000f90       ??_C@_0N@ECGPCBBF@WSASocket?5OK?$AA@ 004fcf90     NetServerLib_A:s_CServer.obj
 0002:00000fa0       ??_C@_0DN@DCBNGBBB@CServer?3?3StartListenThread?5WSASo@ 004fcfa0     NetServerLib_A:s_CServer.obj
 0002:00000fe0       ??_7CServer@@6B@           004fcfe0     NetServerLib_A:s_CServer.obj
 0002:0000101c       ??_7DxConsoleMsg@@6B@      004fd01c     NetServerLib_A:s_CConsoleMessage.obj
 0002:00001024       ??_C@_08CCBDCKHL@CharSave?$AA@ 004fd024     NetServerLib_A:s_CConsoleMessage.obj
 0002:00001030       ??_C@_04JDHAOOMO@APEX?$AA@ 004fd030     NetServerLib_A:s_CConsoleMessage.obj
 0002:00001038       ??_C@_02LFGCCOHG@DB?$AA@   004fd038     NetServerLib_A:s_CConsoleMessage.obj
 0002:0000103c       ??_C@_08NNJGOKOI@NPROTECT?$AA@ 004fd03c     NetServerLib_A:s_CConsoleMessage.obj
 0002:00001048       ??_C@_07BCBHNHNG@NETWORK?$AA@ 004fd048     NetServerLib_A:s_CConsoleMessage.obj
 0002:00001050       ??_7CConsoleMessage@@6BCLock@@@ 004fd050     NetServerLib_A:s_CConsoleMessage.obj
 0002:00001054       ??_7CConsoleMessage@@6BDxConsoleMsg@@@ 004fd054     NetServerLib_A:s_CConsoleMessage.obj
 0002:00001068       ??_C@_02PCIJFNDE@?$AN?6?$AA@ 004fd068     NetServerLib_A:s_CConsoleMessage.obj
 0002:0000106c       ??_7CClientSession@@6B@    004fd06c     NetServerLib_A:s_CClientSession.obj
 0002:00001070       ??_C@_0P@KDBMINGH@?$LM?$KN?$LJ?v?5?C?$KD?$LB?b?5?$LN?C?$MA?$NL?$AA@ 004fd070     NetServerLib_A:s_CClientSession.obj
 0002:00001080       ??_C@_0BG@ELJANMMC@?$CI?$CFs?3?$CFd?$CJ?$CI?$CFd?3?$CFd?$CJ?$CI?$CFd?3?$CFd?$CJ?$AA@ 004fd080     NetServerLib_A:s_CClientSession.obj
 0002:00001098       ??_7GLDBMan@@6B@           004fd098     NetServerLib_A:s_COdbcManager.obj
 0002:00001258       ??_C@_05FNMFKLPE@DB?3?$CFs?$AA@ 004fd258     NetServerLib_A:s_COdbcManager.obj
 0002:00001260       ??_C@_0BH@MGBIAGAH@?$CFs?0?5NativeError?3?$CFd?0?5?$CFs?$AA@ 004fd260     NetServerLib_A:s_COdbcManager.obj
 0002:00001278       ??_7COdbcManager@@6BCLock@@@ 004fd278     NetServerLib_A:s_COdbcManager.obj
 0002:00001280       ??_7COdbcManager@@6BGLDBMan@@@ 004fd280     NetServerLib_A:s_COdbcManager.obj
 0002:00001440       ??_7CCfg@@6B@              004fd440     NetServerLib_A:s_CCfg.obj
 0002:00001448       ??_C@_0GA@JHDBAGFL@field_server?5?$FLChannel?$FN?5?$FLserverID@ 004fd448     NetServerLib_A:s_CCfg.obj
 0002:000014a8       ??_C@_05MBDEGLCK@ERROR?$AA@ 004fd4a8     NetServerLib_A:s_CCfg.obj
 0002:000014b0       ??_C@_0N@JHFNAPCO@field_server?$AA@ 004fd4b0     NetServerLib_A:s_CCfg.obj
 0002:000014c0       ??_C@_0N@KLCKEICE@agent_server?$AA@ 004fd4c0     NetServerLib_A:s_CCfg.obj
 0002:000014d0       ??_C@_07MFOHDNMP@channel?$AA@ 004fd4d0     NetServerLib_A:s_CCfg.obj
 0002:000014d8       ??_C@_0P@GLKBKINE@session_server?$AA@ 004fd4d8     NetServerLib_A:s_CCfg.obj
 0002:000014e8       ??_C@_0N@GJFEDEPD@login_server?$AA@ 004fd4e8     NetServerLib_A:s_CCfg.obj
 0002:000014f8       ??_C@_0BG@GAKOADMO@my_odbc_response_time?$AA@ 004fd4f8     NetServerLib_A:s_CCfg.obj
 0002:00001510       ??_C@_0BC@OCPBBJAB@my_odbc_pool_size?$AA@ 004fd510     NetServerLib_A:s_CCfg.obj
 0002:00001524       ??_C@_0BB@DGBAJBKA@my_odbc_database?$AA@ 004fd524     NetServerLib_A:s_CCfg.obj
 0002:00001538       ??_C@_0N@DHDHNJIG@my_odbc_pass?$AA@ 004fd538     NetServerLib_A:s_CCfg.obj
 0002:00001548       ??_C@_0N@EHHCHGB@my_odbc_user?$AA@ 004fd548     NetServerLib_A:s_CCfg.obj
 0002:00001558       ??_C@_0N@OCMHMLMI@my_odbc_name?$AA@ 004fd558     NetServerLib_A:s_CCfg.obj
 0002:00001568       ??_C@_0BH@LLOILLMM@kor_odbc_response_time?$AA@ 004fd568     NetServerLib_A:s_CCfg.obj
 0002:00001580       ??_C@_0BD@COMHGBKK@kor_odbc_pool_size?$AA@ 004fd580     NetServerLib_A:s_CCfg.obj
 0002:00001594       ??_C@_0BC@MBPKPBE@kor_odbc_database?$AA@ 004fd594     NetServerLib_A:s_CCfg.obj
 0002:000015a8       ??_C@_0O@DLNDEDEC@kor_odbc_pass?$AA@ 004fd5a8     NetServerLib_A:s_CCfg.obj
 0002:000015b8       ??_C@_0O@IJDLNKF@kor_odbc_user?$AA@ 004fd5b8     NetServerLib_A:s_CCfg.obj
 0002:000015c8       ??_C@_0O@OOCDFBAM@kor_odbc_name?$AA@ 004fd5c8     NetServerLib_A:s_CCfg.obj
 0002:000015d8       ??_C@_0BH@BDNMKHEF@gsp_odbc_response_time?$AA@ 004fd5d8     NetServerLib_A:s_CCfg.obj
 0002:000015f0       ??_C@_0BD@CIGIMEBI@gsp_odbc_pool_size?$AA@ 004fd5f0     NetServerLib_A:s_CCfg.obj
 0002:00001604       ??_C@_0BC@BFAPACFB@gsp_odbc_database?$AA@ 004fd604     NetServerLib_A:s_CCfg.obj
 0002:00001618       ??_C@_0O@NDKAFDNB@gsp_odbc_pass?$AA@ 004fd618     NetServerLib_A:s_CCfg.obj
 0002:00001628       ??_C@_0O@OAOAKNDG@gsp_odbc_user?$AA@ 004fd628     NetServerLib_A:s_CCfg.obj
 0002:00001638       ??_C@_0O@GFAEBJP@gsp_odbc_name?$AA@ 004fd638     NetServerLib_A:s_CCfg.obj
 0002:00001648       ??_C@_0BJ@EJHIPCDA@terra_odbc_response_time?$AA@ 004fd648     NetServerLib_A:s_CCfg.obj
 0002:00001664       ??_C@_0BF@NPLDMEOP@terra_odbc_pool_size?$AA@ 004fd664     NetServerLib_A:s_CCfg.obj
 0002:0000167c       ??_C@_0BE@KMFIKIMF@terra_odbc_database?$AA@ 004fd67c     NetServerLib_A:s_CCfg.obj
 0002:00001690       ??_C@_0BA@DMHEEPKC@terra_odbc_pass?$AA@ 004fd690     NetServerLib_A:s_CCfg.obj
 0002:000016a0       ??_C@_0BA@PDELBEF@terra_odbc_user?$AA@ 004fd6a0     NetServerLib_A:s_CCfg.obj
 0002:000016b0       ??_C@_0BA@OJIEFNOM@terra_odbc_name?$AA@ 004fd6b0     NetServerLib_A:s_CCfg.obj
 0002:000016c0       ??_C@_0BI@HNHLPDC@shop_odbc_response_time?$AA@ 004fd6c0     NetServerLib_A:s_CCfg.obj
 0002:000016d8       ??_C@_0BE@OMBLDDNE@shop_odbc_pool_size?$AA@ 004fd6d8     NetServerLib_A:s_CCfg.obj
 0002:000016ec       ??_C@_0BD@HLCHGKI@shop_odbc_database?$AA@ 004fd6ec     NetServerLib_A:s_CCfg.obj
 0002:00001700       ??_C@_0P@LKMADCPD@shop_odbc_pass?$AA@ 004fd700     NetServerLib_A:s_CCfg.obj
 0002:00001710       ??_C@_0P@IJIAMMBE@shop_odbc_user?$AA@ 004fd710     NetServerLib_A:s_CCfg.obj
 0002:00001720       ??_C@_0P@GPDACALN@shop_odbc_name?$AA@ 004fd720     NetServerLib_A:s_CCfg.obj
 0002:00001730       ??_C@_0BH@LJGLGKL@log_odbc_response_time?$AA@ 004fd730     NetServerLib_A:s_CCfg.obj
 0002:00001748       ??_C@_0BD@IHAGJPBA@log_odbc_pool_size?$AA@ 004fd748     NetServerLib_A:s_CCfg.obj
 0002:0000175c       ??_C@_0BC@HBEPEGPI@log_odbc_database?$AA@ 004fd75c     NetServerLib_A:s_CCfg.obj
 0002:00001770       ??_C@_0O@MKKFHDGO@log_odbc_pass?$AA@ 004fd770     NetServerLib_A:s_CCfg.obj
 0002:00001780       ??_C@_0O@PJOFINIJ@log_odbc_user?$AA@ 004fd780     NetServerLib_A:s_CCfg.obj
 0002:00001790       ??_C@_0O@BPFFGBCA@log_odbc_name?$AA@ 004fd790     NetServerLib_A:s_CCfg.obj
 0002:000017a0       ??_C@_0BJ@ILDGHBBN@board_odbc_response_time?$AA@ 004fd7a0     NetServerLib_A:s_CCfg.obj
 0002:000017bc       ??_C@_0BF@HBMFCCNE@board_odbc_pool_size?$AA@ 004fd7bc     NetServerLib_A:s_CCfg.obj
 0002:000017d4       ??_C@_0BE@LNENJCN@board_odbc_database?$AA@ 004fd7d4     NetServerLib_A:s_CCfg.obj
 0002:000017e8       ??_C@_0BA@GMLNALGJ@board_odbc_pass?$AA@ 004fd7e8     NetServerLib_A:s_CCfg.obj
 0002:000017f8       ??_C@_0BA@FPPNPFIO@board_odbc_user?$AA@ 004fd7f8     NetServerLib_A:s_CCfg.obj
 0002:00001808       ??_C@_0BA@LJENBJCH@board_odbc_name?$AA@ 004fd808     NetServerLib_A:s_CCfg.obj
 0002:00001818       ??_C@_0BI@GCOHKLOL@game_odbc_response_time?$AA@ 004fd818     NetServerLib_A:s_CCfg.obj
 0002:00001830       ??_C@_0BE@HKFIPAAH@game_odbc_pool_size?$AA@ 004fd830     NetServerLib_A:s_CCfg.obj
 0002:00001844       ??_C@_0BD@ENNJCLOC@game_odbc_database?$AA@ 004fd844     NetServerLib_A:s_CCfg.obj
 0002:00001858       ??_C@_0P@COGPBIDI@game_odbc_pass?$AA@ 004fd858     NetServerLib_A:s_CCfg.obj
 0002:00001868       ??_C@_0P@BNCPOGNP@game_odbc_user?$AA@ 004fd868     NetServerLib_A:s_CCfg.obj
 0002:00001878       ??_C@_0P@PLJPAKHG@game_odbc_name?$AA@ 004fd878     NetServerLib_A:s_CCfg.obj
 0002:00001888       ??_C@_0BI@LDBDPPMI@user_odbc_response_time?$AA@ 004fd888     NetServerLib_A:s_CCfg.obj
 0002:000018a0       ??_C@_0BE@BHDEFLGP@user_odbc_pool_size?$AA@ 004fd8a0     NetServerLib_A:s_CCfg.obj
 0002:000018b4       ??_C@_0BD@PMJGKIPH@user_odbc_database?$AA@ 004fd8b4     NetServerLib_A:s_CCfg.obj
 0002:000018c8       ??_C@_0P@GHNEBJDJ@user_odbc_pass?$AA@ 004fd8c8     NetServerLib_A:s_CCfg.obj
 0002:000018d8       ??_C@_0P@FEJEOHNO@user_odbc_user?$AA@ 004fd8d8     NetServerLib_A:s_CCfg.obj
 0002:000018e8       ??_C@_0P@LCCEALHH@user_odbc_name?$AA@ 004fd8e8     NetServerLib_A:s_CCfg.obj
 0002:000018f8       ??_C@_0BG@FDCENANN@game_db_response_time?$AA@ 004fd8f8     NetServerLib_A:s_CCfg.obj
 0002:00001910       ??_C@_0BC@MPCMPLBA@game_db_pool_size?$AA@ 004fd910     NetServerLib_A:s_CCfg.obj
 0002:00001924       ??_C@_0BB@OJBNANFP@game_db_database?$AA@ 004fd924     NetServerLib_A:s_CCfg.obj
 0002:00001938       ??_C@_0N@KMCEBKIK@game_db_pass?$AA@ 004fd938     NetServerLib_A:s_CCfg.obj
 0002:00001948       ??_C@_0N@JPGEOEGN@game_db_user?$AA@ 004fd948     NetServerLib_A:s_CCfg.obj
 0002:00001958       ??_C@_0P@MPNMLGCJ@game_db_server?$AA@ 004fd958     NetServerLib_A:s_CCfg.obj
 0002:00001968       ??_C@_0BG@LPAECGHO@user_db_response_time?$AA@ 004fd968     NetServerLib_A:s_CCfg.obj
 0002:00001980       ??_C@_0BC@ILEGMKCL@user_db_pool_size?$AA@ 004fd980     NetServerLib_A:s_CCfg.obj
 0002:00001994       ??_C@_0BB@IHABEFDD@user_db_database?$AA@ 004fd994     NetServerLib_A:s_CCfg.obj
 0002:000019a8       ??_C@_0N@OHONABKM@user_db_pass?$AA@ 004fd9a8     NetServerLib_A:s_CCfg.obj
 0002:000019b8       ??_C@_0N@NEKNPPEL@user_db_user?$AA@ 004fd9b8     NetServerLib_A:s_CCfg.obj
 0002:000019c8       ??_C@_0P@IGGHLHCI@user_db_server?$AA@ 004fd9c8     NetServerLib_A:s_CCfg.obj
 0002:000019d8       ??_C@_0BE@DJAKFACM@ALLOW_IP_INFO_TYPE3?$AA@ 004fd9d8     NetServerLib_A:s_CCfg.obj
 0002:000019ec       ??_C@_0BE@CABBGBGN@ALLOW_IP_INFO_TYPE2?$AA@ 004fd9ec     NetServerLib_A:s_CCfg.obj
 0002:00001a00       ??_C@_0BE@LDMDCKO@ALLOW_IP_INFO_TYPE1?$AA@ 004fda00     NetServerLib_A:s_CCfg.obj
 0002:00001a14       ??_C@_0N@JAHHHAOE@language_set?$AA@ 004fda14     NetServerLib_A:s_CCfg.obj
 0002:00001a24       ??_C@_0L@MNIOLIOA@max_thread?$AA@ 004fda24     NetServerLib_A:s_CCfg.obj
 0002:00001a30       ??_C@_0P@FIIGPBBF@whiterock_port?$AA@ 004fda30     NetServerLib_A:s_CCfg.obj
 0002:00001a40       ??_C@_0P@CDCKGIJI@whiterock_name?$AA@ 004fda40     NetServerLib_A:s_CCfg.obj
 0002:00001a50       ??_C@_0BB@IMEHDBCE@service_provider?$AA@ 004fda50     NetServerLib_A:s_CCfg.obj
 0002:00001a64       ??_C@_0BG@KAJEPOED@server_channel_number?$AA@ 004fda64     NetServerLib_A:s_CCfg.obj
 0002:00001a7c       ??_C@_0P@HECLMHD@server_channel?$AA@ 004fda7c     NetServerLib_A:s_CCfg.obj
 0002:00001a8c       ??_C@_0N@DBGKAFDH@server_field?$AA@ 004fda8c     NetServerLib_A:s_CCfg.obj
 0002:00001a9c       ??_C@_0O@DDBDAODM@server_number?$AA@ 004fda9c     NetServerLib_A:s_CCfg.obj
 0002:00001aac       ??_C@_0N@LPOCNPMP@server_group?$AA@ 004fdaac     NetServerLib_A:s_CCfg.obj
 0002:00001abc       ??_C@_0M@MPECDEEA@server_type?$AA@ 004fdabc     NetServerLib_A:s_CCfg.obj
 0002:00001ac8       ??_C@_0BE@KCDILIOF@server_control_port?$AA@ 004fdac8     NetServerLib_A:s_CCfg.obj
 0002:00001adc       ??_C@_0BE@LALDPMFP@server_service_port?$AA@ 004fdadc     NetServerLib_A:s_CCfg.obj
 0002:00001af0       ??_C@_09FGEOKFOO@server_ip?$AA@ 004fdaf0     NetServerLib_A:s_CCfg.obj
 0002:00001afc       ??_C@_0BK@NGGMFHBH@server_max_channel_client?$AA@ 004fdafc     NetServerLib_A:s_CCfg.obj
 0002:00001b18       ??_C@_0BC@OKKIFCJC@server_max_client?$AA@ 004fdb18     NetServerLib_A:s_CCfg.obj
 0002:00001b2c       ??_C@_0M@GEEBPEDA@server_name?$AA@ 004fdb2c     NetServerLib_A:s_CCfg.obj
 0002:00001b38       ??_C@_0O@CDBNAJAK@patch_version?$AA@ 004fdb38     NetServerLib_A:s_CCfg.obj
 0002:00001b48       ??_C@_0P@ONIKBOBH@server_version?$AA@ 004fdb48     NetServerLib_A:s_CCfg.obj
 0002:00001b58       ??_C@_09HILBJOJ@gameguard?$AA@ 004fdb58     NetServerLib_A:s_CCfg.obj
 0002:00001b64       ??_C@_09NCPIAHOP@heartbeat?$AA@ 004fdb64     NetServerLib_A:s_CCfg.obj
 0002:00001b70       ??_C@_0L@BHJDMKCD@testserver?$AA@ 004fdb70     NetServerLib_A:s_CCfg.obj
 0002:00001b7c       ??_C@_0BB@HMCDFNCD@use_event_thread?$AA@ 004fdb7c     NetServerLib_A:s_CCfg.obj
 0002:00001b90       ??_C@_0O@GJHGEGJP@use_intel_tbb?$AA@ 004fdb90     NetServerLib_A:s_CCfg.obj
 0002:00001ba0       ??_C@_05LHFIINDG@adult?$AA@ 004fdba0     NetServerLib_A:s_CCfg.obj
 0002:00001ba8       ??_C@_02NCEGPMNB@pk?$AA@   004fdba8     NetServerLib_A:s_CCfg.obj
 0002:00001bac       ??_C@_06OOFHGOHC@pkless?$AA@ 004fdbac     NetServerLib_A:s_CCfg.obj
 0002:00001bb4       ??_C@_02CBLDBPFN@?1?1?$AA@ 004fdbb4     NetServerLib_A:s_CCfg.obj
 0002:00001bb8       ??_C@_04OHMGOEGF@?5?0?7?6?$AA@ 004fdbb8     NetServerLib_A:s_CCfg.obj
 0002:00001bc0       ??_C@_01KDCPPGHE@r?$AA@    004fdbc0     NetServerLib_A:s_CCfg.obj
 0002:00001bc4       ??_C@_05KODIPMGP@?2cfg?2?$AA@ 004fdbc4     NetServerLib_A:s_CCfg.obj
 0002:00001bcc       ??_C@_0BC@KBDMBKEH@deque?$DMT?$DO?5too?5long?$AA@ 004fdbcc     NetServerLib_A:s_CDbAction.obj
 0002:00001be0       ??_7CLogDbExecuter@@6B@    004fdbe0     NetServerLib_A:s_CDbAction.obj
 0002:00001be4       ??_7CUserDbExecuter@@6B@   004fdbe4     NetServerLib_A:s_CDbAction.obj
 0002:00001be8       ??_7CWebDbExecuter@@6B@    004fdbe8     NetServerLib_A:s_CDbAction.obj
 0002:00001bec       ??_7CDbExecuter@@6B@       004fdbec     NetServerLib_A:s_CDbAction.obj
 0002:00001bf0       ??_7out_of_range@std@@6B@  004fdbf0     NetServerLib_A:s_CClientManager.obj
 0002:00001bf8       ??_C@_0CM@ILACDOON@Accept?5Client?5Failed?5?$CIClient?5ID?3@ 004fdbf8     NetServerLib_A:s_CClientManager.obj
 0002:00001c24       ??_C@_0BH@JBBFFCIA@?$CIClient?5ID?3?$CFd?$CJ?5?$CI?$CFs?3?$CFd?$CJ?$AA@ 004fdc24     NetServerLib_A:s_CClientManager.obj
 0002:00001c3c       ??_C@_0BM@PAPJHAGI@invalid?5map?1set?$DMT?$DO?5iterator?$AA@ 004fdc3c     NetServerLib_A:s_CClientManager.obj
 0002:00001c58       ??_C@_0BE@JONHPENG@map?1set?$DMT?$DO?5too?5long?$AA@ 004fdc58     NetServerLib_A:s_CClientManager.obj
 0002:00001c6c       ??_C@_0CI@IFIBGBKA@INFO?3ResetPreSleepCID?5Error?5Slee@ 004fdc6c     NetServerLib_A:s_CClientManager.obj
 0002:00001c94       ??_C@_0BN@LPCOHFMK@ERROR?3Already?5CloseClient?5?$CFd?$AA@ 004fdc94     NetServerLib_A:s_CClientManager.obj
 0002:00001cb4       ??_C@_0DD@HEDAFONM@ERROR?3CClientManager?3?3SendClient@ 004fdcb4     NetServerLib_A:s_CClientManager.obj
 0002:00001ce8       ??_7CClientManager@@6B@    004fdce8     NetServerLib_A:s_CClientManager.obj
 0002:00001cec       ??_C@_0CP@BOFAGFLP@ERROR?3SendClient?5dwSndBytes?5?$DO?5NE@ 004fdcec     NetServerLib_A:s_CClientManager.obj
 0002:00001d1c       ??_C@_0BO@IANJOGAJ@ERROR?3SendClient?5pBuffer?5NULL?$AA@ 004fdd1c     NetServerLib_A:s_CClientManager.obj
 0002:00001d3c       ??_C@_0BC@GBFBDDPN@Can?8t?5Find?5Server?$AA@ 004fdd3c     NetServerLib_A:s_CSessionServerMsg.obj
 0002:00001d50       ??_C@_0P@NKGPAPDM@Find?5Server?5?$CFd?$AA@ 004fdd50     NetServerLib_A:s_CSessionServerMsg.obj
 0002:00001d60       ??_C@_0BE@ECOMJPBJ@MsgSndCurSvrInfo?5?$CFs?$AA@ 004fdd60     NetServerLib_A:s_CSessionServerMsg.obj
 0002:00001d74       __real@3f733333            004fdd74     NetServerLib_A:s_CSessionServerMsg.obj
 0002:00001d78       ??_C@_0CL@HDBLBHIH@INFO?3Server?5state?5change?5?8STOP?8?5@ 004fdd78     NetServerLib_A:s_CSessionServerMsg.obj
 0002:00001da4       ??_C@_0CO@LKOBGKJI@INFO?3Server?5state?5change?5?8RESTAR@ 004fdda4     NetServerLib_A:s_CSessionServerMsg.obj
 0002:00001dd4       ??_C@_0CN@BMDOGLIK@INFO?3Server?5state?5change?5?8RESUME@ 004fddd4     NetServerLib_A:s_CSessionServerMsg.obj
 0002:00001e04       ??_C@_0CM@MKPFCAMF@INFO?3Server?5state?5change?5?8PAUSE?8@ 004fde04     NetServerLib_A:s_CSessionServerMsg.obj
 0002:00001e30       ??_C@_0CE@OPKJCLL@INFO?3Server?5state?5change?5command@ 004fde30     NetServerLib_A:s_CSessionServerMsg.obj
 0002:00001e54       ??_C@_0BI@CAGEDCME@ERROR?3Can?8t?5Find?5Server?$AA@ 004fde54     NetServerLib_A:s_CSessionServerMsg.obj
 0002:00001e6c       ??_C@_0P@OIAINKMF@Notice?5Message?$AA@ 004fde6c     NetServerLib_A:s_CSessionServerMsg.obj
 0002:00001e7c       ??_C@_0BH@OIHOPJBL@INFO?3Can?8t?5Find?5Server?$AA@ 004fde7c     NetServerLib_A:s_CSessionServerMsg.obj
 0002:00001e94       ??_C@_0BP@CIOFKCGE@INFO?3SetSvrInfo?5?$CFs?5?$CFd?5?$CFd?5?$CFd?5?$CFd?$AA@ 004fde94     NetServerLib_A:s_CSessionServerMsg.obj
 0002:00001eb4       ??_C@_0N@EFLHFBCO@Chat?5message?$AA@ 004fdeb4     NetServerLib_A:s_CSessionServerMsg.obj
 0002:00001ec4       ??_C@_0BK@MDDCCDHE@MsgSndAllSvrInfo?5?$CFs?5?$CFd?5?$CFd?$AA@ 004fdec4     NetServerLib_A:s_CSessionServerMsg.obj
 0002:00001ee0       ??_C@_0CG@CJEDOJIE@INFO?3Inform?5Agent?0?5Reconnect?5To?5@ 004fdee0     NetServerLib_A:s_CSessionServerMsg.obj
 0002:00001f08       ??_7CDbAction@@6B@         004fdf08     NetServerLib_A:s_CDbActionUser.obj
 0002:00001f10       ??_7CAddLogServerState@@6B@ 004fdf10     NetServerLib_A:s_CDbActionUser.obj
 0002:00001f18       ??_C@_01CLKCMJKC@?5?$AA@   004fdf18     NetServerLib_A:s_CDbActionUser.obj
 0002:00001f1c       ??_7CUserLogoutSvr@@6B@    004fdf1c     NetServerLib_A:s_CDbActionUser.obj
 0002:00001f24       ??_7strstreambuf@std@@6B@  004fdf24     NetServerLib_A:s_COdbcUser.obj
 0002:00001f58       ??_7strstream@std@@6B@     004fdf58     NetServerLib_A:s_COdbcUser.obj
 0002:00001f5c       ??_8strstream@std@@7B?$basic_ostream@DU?$char_traits@D@std@@@1@@ 004fdf5c     NetServerLib_A:s_COdbcUser.obj
 0002:00001f64       ??_8strstream@std@@7B?$basic_istream@DU?$char_traits@D@std@@@1@@ 004fdf64     NetServerLib_A:s_COdbcUser.obj
 0002:00001f70       ??_C@_0EC@GNDKOAEI@SELECT?5ChatBlockDate?5FROM?5UserIn@ 004fdf70     NetServerLib_A:s_COdbcUser.obj
 0002:00001fb8       ??_C@_0EE@GPGAKIKE@SELECT?5ChatBlockDate?5FROM?5GSUser@ 004fdfb8     NetServerLib_A:s_COdbcUser.obj
 0002:00002000       ??_C@_0EF@EFIBELK@SELECT?5ChatBlockDate?5FROM?5GspUse@ 004fe000     NetServerLib_A:s_COdbcUser.obj
 0002:00002048       ??_C@_0EH@NBKBBAHC@SELECT?5ChatBlockDate?5FROM?5TerraU@ 004fe048     NetServerLib_A:s_COdbcUser.obj
 0002:00002090       ??_C@_0EH@FOBKJEHK@SELECT?5ChatBlockDate?5FROM?5JapanU@ 004fe090     NetServerLib_A:s_COdbcUser.obj
 0002:000020d8       ??_C@_0EG@EDHIPLPJ@SELECT?5ChatBlockDate?5FROM?5DaumUs@ 004fe0d8     NetServerLib_A:s_COdbcUser.obj
 0002:00002120       ??_C@_0EH@GNOPCIMK@UPDATE?5UserInfo?5WITH?5?$CIUPDLOCK?$CJ?5S@ 004fe120     NetServerLib_A:s_COdbcUser.obj
 0002:00002168       ??_C@_0EJ@LIAGFPCP@UPDATE?5GSUserInfo?5WITH?5?$CIUPDLOCK?$CJ@ 004fe168     NetServerLib_A:s_COdbcUser.obj
 0002:000021b8       ??_C@_0EK@HMACLACC@UPDATE?5GspUserInfo?5WITH?5?$CIUPDLOCK@ 004fe1b8     NetServerLib_A:s_COdbcUser.obj
 0002:00002208       ??_C@_0EM@ONKCKHIE@UPDATE?5TerraUserInfo?5WITH?5?$CIUPDLO@ 004fe208     NetServerLib_A:s_COdbcUser.obj
 0002:00002258       ??_C@_0EM@KEHPAIEJ@UPDATE?5JapanUserInfo?5WITH?5?$CIUPDLO@ 004fe258     NetServerLib_A:s_COdbcUser.obj
 0002:000022a8       ??_C@_0EL@LKJLMDMC@UPDATE?5DaumUserInfo?5WITH?5?$CIUPDLOC@ 004fe2a8     NetServerLib_A:s_COdbcUser.obj
 0002:000022f4       ??_C@_0BC@LGPAMIPH@?$CFY?9?$CFm?9?$CFd?5?$CFH?3?$CFM?3?$CFS?$AA@ 004fe2f4     NetServerLib_A:s_COdbcUser.obj
 0002:00002308       ??_C@_0DG@OMCFMJJA@UPDATE?5UserInfo?5SET?5PremiumDate?$DN@ 004fe308     NetServerLib_A:s_COdbcUser.obj
 0002:00002340       ??_C@_0DI@HEFJIFBE@UPDATE?5GSUserInfo?5SET?5PremiumDat@ 004fe340     NetServerLib_A:s_COdbcUser.obj
 0002:00002378       ??_C@_0DJ@KABCJEGK@UPDATE?5GspUserInfo?5SET?5PremiumDa@ 004fe378     NetServerLib_A:s_COdbcUser.obj
 0002:000023b4       ??_C@_0DL@GIHBEAAK@UPDATE?5TerraUserInfo?5SET?5Premium@ 004fe3b4     NetServerLib_A:s_COdbcUser.obj
 0002:000023f0       ??_C@_0DL@MJCMHML@UPDATE?5JapanUserInfo?5SET?5Premium@ 004fe3f0     NetServerLib_A:s_COdbcUser.obj
 0002:0000242c       ??_C@_0DK@MKKHMPCC@UPDATE?5DaumUserInfo?5SET?5PremiumD@ 004fe42c     NetServerLib_A:s_COdbcUser.obj
 0002:00002468       ??_C@_0FH@KADBIPDM@UPDATE?5UserInfo?5SET?5UserLoginSta@ 004fe468     NetServerLib_A:s_COdbcUser.obj
 0002:000024c0       ??_C@_0FJ@DHLONJBB@UPDATE?5GSUserInfo?5SET?5UserLoginS@ 004fe4c0     NetServerLib_A:s_COdbcUser.obj
 0002:00002520       ??_C@_0FK@KCDHLMLM@UPDATE?5GspUserInfo?5SET?5UserLogin@ 004fe520     NetServerLib_A:s_COdbcUser.obj
 0002:00002580       ??_C@_0FM@OCOLBOPG@UPDATE?5TerraUserInfo?5SET?5UserLog@ 004fe580     NetServerLib_A:s_COdbcUser.obj
 0002:000025e0       ??_C@_0FM@CCHCIFHO@UPDATE?5JapanUserInfo?5SET?5UserLog@ 004fe5e0     NetServerLib_A:s_COdbcUser.obj
 0002:00002640       ??_C@_0FL@CGDPCLLF@UPDATE?5DaumUserInfo?5SET?5UserLogi@ 004fe640     NetServerLib_A:s_COdbcUser.obj
 0002:0000269c       ??_C@_0CD@MPMPAFJC@?$HLcall?5UpdateChaNumIncrease?$CI?$CFd?0?5?$DP@ 004fe69c     NetServerLib_A:s_COdbcUser.obj
 0002:000026c0       ??_C@_0CG@GBEFKMOM@?$HLcall?5GS_UpdateChaNumIncrease?$CI?$CFd@ 004fe6c0     NetServerLib_A:s_COdbcUser.obj
 0002:000026e8       ??_C@_0CH@KMEOAJNF@?$HLcall?5Gsp_UpdateChaNumIncrease?$CI?$CF@ 004fe6e8     NetServerLib_A:s_COdbcUser.obj
 0002:00002710       ??_C@_0CJ@IGMAINCO@?$HLcall?5Terra_UpdateChaNumIncrease@ 004fe710     NetServerLib_A:s_COdbcUser.obj
 0002:0000273c       ??_C@_0CJ@LLIKMNME@?$HLcall?5Japan_UpdateChaNumIncrease@ 004fe73c     NetServerLib_A:s_COdbcUser.obj
 0002:00002768       ??_C@_0CI@DMPFBJCJ@?$HLcall?5Daum_UpdateChaNumIncrease?$CI@ 004fe768     NetServerLib_A:s_COdbcUser.obj
 0002:00002790       ??_C@_0CI@BFKHGHHD@UserBlock?3nUserNum?5or?5nDay?5is?5in@ 004fe790     NetServerLib_A:s_COdbcUser.obj
 0002:000027b8       ??_C@_0FL@CIEGCIKF@UPDATE?5UserInfo?5WITH?5?$CIUPDLOCK?$CJ?5S@ 004fe7b8     NetServerLib_A:s_COdbcUser.obj
 0002:00002818       ??_C@_0FN@MAFPIPCH@UPDATE?5GSUserInfo?5WITH?5?$CIUPDLOCK?$CJ@ 004fe818     NetServerLib_A:s_COdbcUser.obj
 0002:00002878       ??_C@_0FO@FLGGADPN@UPDATE?5GspUserInfo?5WITH?5?$CIUPDLOCK@ 004fe878     NetServerLib_A:s_COdbcUser.obj
 0002:000028d8       ??_C@_0GA@COGCPJCJ@UPDATE?5TerraUserInfo?5WITH?5?$CIUPDLO@ 004fe8d8     NetServerLib_A:s_COdbcUser.obj
 0002:00002938       ??_C@_0GA@MMCOMDAP@UPDATE?5JapanUserInfo?5WITH?5?$CIUPDLO@ 004fe938     NetServerLib_A:s_COdbcUser.obj
 0002:00002998       ??_C@_0FP@PMDOCPDD@UPDATE?5DaumUserInfo?5WITH?5?$CIUPDLOC@ 004fe998     NetServerLib_A:s_COdbcUser.obj
 0002:000029f8       ??_C@_0EL@BFIADEHF@UPDATE?5UserInfo?5WITH?5?$CIUPDLOCK?$CJ?5S@ 004fe9f8     NetServerLib_A:s_COdbcUser.obj
 0002:00002a48       ??_C@_0EN@NMJKJFFE@UPDATE?5GSUserInfo?5WITH?5?$CIUPDLOCK?$CJ@ 004fea48     NetServerLib_A:s_COdbcUser.obj
 0002:00002a98       ??_C@_0EO@HECLBJLJ@UPDATE?5GspUserInfo?5WITH?5?$CIUPDLOCK@ 004fea98     NetServerLib_A:s_COdbcUser.obj
 0002:00002ae8       ??_C@_0FA@CMENPFKO@UPDATE?5TerraUserInfo?5WITH?5?$CIUPDLO@ 004feae8     NetServerLib_A:s_COdbcUser.obj
 0002:00002b38       ??_C@_0FA@EBNIJLEO@UPDATE?5JapanUserInfo?5WITH?5?$CIUPDLO@ 004feb38     NetServerLib_A:s_COdbcUser.obj
 0002:00002b88       ??_C@_0EP@CGGHNIFO@UPDATE?5DaumUserInfo?5WITH?5?$CIUPDLOC@ 004feb88     NetServerLib_A:s_COdbcUser.obj
 0002:00002bd8       ??_C@_0DN@ECBDGEPD@ERROR?3CSMsgManager?3?3AddMsg?5nSize@ 004febd8     NetServerLib_A:s_CSMsgList.obj
 0002:00002c18       ??_7CSMsgManager@@6B@      004fec18     NetServerLib_A:s_CSMsgList.obj
 0002:00002c1c       ??_C@_0DC@KEHLILDD@ERROR?3CSMsgManager?3?3MsgQueueInse@ 004fec1c     NetServerLib_A:s_CSMsgList.obj
 0002:00002c50       ??_7CSMsgList@@6B@         004fec50     NetServerLib_A:s_CSMsgList.obj
 0002:00002c54       ??_7COverlapped@@6B@       004fec54     NetServerLib_A:s_COverlapped.obj
 0002:00002c58       ??_C@_0BO@EMININNE@Multi?5Core?5Processor?5Detected?$AA@ 004fec58     NetServerLib_A:s_CSystemInfo.obj
 0002:00002c78       ??_C@_0BB@NKMDKFKF@Microsoft?5Win32s?$AA@ 004fec78     NetServerLib_A:s_CSystemInfo.obj
 0002:00002c8c       ??_C@_0BF@EOKLGJLH@Microsoft?5Windows?5ME?$AA@ 004fec8c     NetServerLib_A:s_CSystemInfo.obj
 0002:00002ca4       ??_C@_0BF@IHMCKOIA@Microsoft?5Windows?598?$AA@ 004feca4     NetServerLib_A:s_CSystemInfo.obj
 0002:00002cbc       ??_C@_0BI@OHBNKNGL@Microsoft?5Windows?598?5SE?$AA@ 004fecbc     NetServerLib_A:s_CSystemInfo.obj
 0002:00002cd4       ??_C@_0BF@DCGMNAMN@Microsoft?5Windows?595?$AA@ 004fecd4     NetServerLib_A:s_CSystemInfo.obj
 0002:00002cec       ??_C@_0BK@BNJDDHIL@Microsoft?5Windows?595?5OSR2?$AA@ 004fecec     NetServerLib_A:s_CSystemInfo.obj
 0002:00002d08       ??_C@_0BF@BPDEPEPO@Microsoft?5Windows?5NT?$AA@ 004fed08     NetServerLib_A:s_CSystemInfo.obj
 0002:00002d20       ??_C@_0BH@EDKEFLPL@Microsoft?5Windows?52000?$AA@ 004fed20     NetServerLib_A:s_CSystemInfo.obj
 0002:00002d38       ??_C@_0BJ@LBOHCNFC@Microsoft?5Windows?5XP?5x86?$AA@ 004fed38     NetServerLib_A:s_CSystemInfo.obj
 0002:00002d54       ??_C@_0DA@MLNELFO@Microsoft?5Windows?5XP?5x64?5or?5Wind@ 004fed54     NetServerLib_A:s_CSystemInfo.obj
 0002:00002d84       ??_C@_0CP@JAIFDIJK@Microsoft?5Windows?5Vista?5or?5Windo@ 004fed84     NetServerLib_A:s_CSystemInfo.obj
 0002:00002db4       ??_C@_0CO@LKIMHPHI@Microsoft?5Windows?57?5or?5Windows?5S@ 004fedb4     NetServerLib_A:s_CSystemInfo.obj
 0002:00002de4       ??_C@_0L@EOFBAFEL@Unknown?5OS?$AA@ 004fede4     NetServerLib_A:s_CSystemInfo.obj
 0002:00002df0       ??_7CLock@@6B@             004fedf0     NetServerLib_A:s_CLock.obj
 0002:00002df4       ??_C@_0BC@PIJGOKNA@?$CFY?5?$CFm?5?$CFd?5?$CFH?3?$CFM?3?$CFS?$AA@ 004fedf4     NetServerLib_A:s_CLogSystem.obj
 0002:00002e08       ??_C@_0BA@PACDEJJI@?$CFs?5?$CFs?5Started?5?6?$AA@ 004fee08     NetServerLib_A:s_CLogSystem.obj
 0002:00002e18       ??_C@_01NOFIACDB@w?$AA@    004fee18     NetServerLib_A:s_CLogSystem.obj
 0002:00002e1c       ??_C@_0BA@CKOIAEDN@_?$CFY?$CFm?$CFd?$CFH?$CFM?4log?$AA@ 004fee1c     NetServerLib_A:s_CLogSystem.obj
 0002:00002e2c       ??_C@_05FBGACEDE@?2log?2?$AA@ 004fee2c     NetServerLib_A:s_CLogSystem.obj
 0002:00002e34       ??_C@_03GGEOLGBL@Log?$AA@  004fee34     NetServerLib_A:s_CLogSystem.obj
 0002:00002e38       __real@4082c00000000000    004fee38     NetServerLib_A:s_CLogSystem.obj
 0002:00002e40       ??_C@_03OFAPEBGM@?$CFs?6?$AA@ 004fee40     NetServerLib_A:s_CLogSystem.obj
 0002:00002e44       ??_C@_01MCMALHOG@a?$AA@    004fee44     NetServerLib_A:s_CLogSystem.obj
 0002:00002e48       ??_C@_0CM@DDIIDBLE@ERROR?3SQLAllocHandle?5SQL_HANDLE_@ 004fee48     NetServerLib_A:s_COdbcSupervisor.obj
 0002:00002e74       ??_C@_0BI@NGGLICJP@ERROR?3SQLConnect?5Failed?$AA@ 004fee74     NetServerLib_A:s_COdbcSupervisor.obj
 0002:00002e8c       ??_C@_0DB@LGGHCAKE@ERROR?3SQLSetConnectAttr?5SQL_LOGI@ 004fee8c     NetServerLib_A:s_COdbcSupervisor.obj
 0002:00002ec0       ??_C@_0CL@GPPNGNFP@ERROR?3SQLAllocHandle?5SQL_HANDLE_@ 004feec0     NetServerLib_A:s_COdbcSupervisor.obj
 0002:00002eec       ??_C@_0BH@JMEOMBBA@ERROR?3SQLBindParameter?$AA@ 004feeec     NetServerLib_A:s_COdbcSupervisor.obj
 0002:00002f04       ??_C@_0DK@NLMLJNKG@SELECT?5?$CFs?5FROM?5PetInfo?5where?5?$CIPe@ 004fef04     NetServerLib_A:s_COdbcSupervisor.obj
 0002:00002f40       ??_C@_0EI@OKLNBELJ@SELECT?5?$CFs?5FROM?5VehicleInfo?5where@ 004fef40     NetServerLib_A:s_COdbcSupervisor.obj
 0002:00002f88       ??_7basestream@@6B@        004fef88     NetServerLib_A:s_COdbcGameInven.obj
 0002:00003044       ??_C@_0DH@HAGNKEIO@Update?5UserInven?5Set?5ChaStorage2@ 004ff044     NetServerLib_A:s_COdbcGameInven.obj
 0002:0000307c       ??_C@_0DH@PBEIMBKJ@Update?5UserInven?5Set?5ChaStorage3@ 004ff07c     NetServerLib_A:s_COdbcGameInven.obj
 0002:000030b4       ??_C@_0DH@MAFAPGNO@Update?5UserInven?5Set?5ChaStorage4@ 004ff0b4     NetServerLib_A:s_COdbcGameInven.obj
 0002:000030ec       ??_C@_0DE@NMBHFBOK@Update?5ChaInfo?5Set?5ChaInvenLine?$DN@ 004ff0ec     NetServerLib_A:s_COdbcGameInven.obj
 0002:00003120       ??_C@_0BL@LHFIDCDD@?$HLcall?5GetInvenCount?$CI?$CFu?0?$DP?$CJ?$HN?$AA@ 004ff120     NetServerLib_A:s_COdbcGameInven.obj
 0002:0000313c       ??_C@_0BO@DHACDGHI@?$HLcall?5MakeUserInven?$CI?$CFd?0?$CFu?0?$DP?$CJ?$HN?$AA@ 004ff13c     NetServerLib_A:s_COdbcGameInven.obj
 0002:0000315c       ??_C@_0DG@JFOCGAA@UPDATE?5UserInven?5SET?5UserInven?5?$DN@ 004ff15c     NetServerLib_A:s_COdbcGameInven.obj
 0002:00003194       ??_C@_0CB@HCHMNGKE@?$HLcall?5UpdateUserMoney?$CI?$CFu?0?$CFI64d?$CJ?$HN@ 004ff194     NetServerLib_A:s_COdbcGameInven.obj
 0002:000031b8       ??_C@_0CJ@OCACDLPB@?$HLcall?5sp_UpdateUserMoneyAdd?$CI?$CFu?0?$CF@ 004ff1b8     NetServerLib_A:s_COdbcGameInven.obj
 0002:000031e4       ??_C@_0CE@OJNIPPCD@Exec?5sp_InsertUserLastInfo?5?$CFu?0?5?8@ 004ff1e4     NetServerLib_A:s_COdbcGameInven.obj
 0002:00003208       ??_C@_05LLAMLEHD@?$CFI64d?$AA@ 004ff208     NetServerLib_A:s_COdbcGameInven.obj
 0002:00003210       ??_C@_02HAOIJKIC@?$CFc?$AA@ 004ff210     NetServerLib_A:s_COdbcGameInven.obj
 0002:00003214       ??_C@_0DE@NCCFJBNI@SELECT?5UserMoney?5FROM?5UserLastIn@ 004ff214     NetServerLib_A:s_COdbcGameInven.obj
 0002:00003248       ??_C@_07DLHCIBDH@default?$AA@ 004ff248     NetServerLib_A:s_COdbcGameInven.obj
 0002:00003250       ??_7CByteStream@@6B@       004ff250     NetServerLib_A:s_COdbcGameInven.obj
 0002:00003314       ??_C@_0DN@JPLDJBAG@SELECT?5UserInven?4UserInven?5FROM?5@ 004ff314     NetServerLib_A:s_COdbcGameInven.obj
 0002:00003358       ??_C@_0FI@MNFMLCBB@SELECT?5UserMoney?0?5ChaStorage2?0?5C@ 004ff358     NetServerLib_A:s_COdbcGameInven.obj
 0002:000033b0       ??_C@_0CH@CENGGOAF@?$HLcall?5sp_InsertAttendLog?$CI?5?$CFd?0?$CFd?0@ 004ff3b0     NetServerLib_A:s_COdbcLogEvent.obj
 0002:000033d8       ??_C@_0CF@FBPLABK@ERROR?3COdbcManager?3?3InsertUserAt@ 004ff3d8     NetServerLib_A:s_COdbcLogEvent.obj
 0002:00003400       ??_C@_0CI@BINOCEBG@?$HLcall?5sp_InsertItem?$CI?8?$CFs?8?0?8?$CFs?8?0?$CFd@ 004ff400     NetServerLib_A:s_COdbcLogEvent.obj
 0002:00003428       ??_C@_0BJ@IOCBFACH@Exec?5sp_UserAttendLog?5?$CFd?$AA@ 004ff428     NetServerLib_A:s_COdbcLogEvent.obj
 0002:00003444       ??_C@_0CE@GLJKNAJP@?$HLcall?5log_serverstate?$CI?$CFd?0?$CFd?0?$CFd?0?$CF@ 004ff444     NetServerLib_A:s_COdbcLog.obj
 0002:00003468       ??_C@_0FC@EPKPIDMH@?$HLcall?5sp_LogItemRandom_Insert?$CI?$CFd@ 004ff468     NetServerLib_A:s_COdbcLog.obj
 0002:000034bc       ??_C@_0DA@OHGJGGIO@?$HLcall?5sp_LogPetAction_Insert?$CI?$CFd?0@ 004ff4bc     NetServerLib_A:s_COdbcLog.obj
 0002:000034ec       ??_C@_0DE@PIOJJEKP@?$HLcall?5sp_LogVehicleAction_Insert@ 004ff4ec     NetServerLib_A:s_COdbcLog.obj
 0002:00003520       ??_C@_0DE@PJHDIAFL@?$HLcall?5sp_LogAction_Insert?$CI?$CFd?0?$CFd?0@ 004ff520     NetServerLib_A:s_COdbcLog.obj
 0002:00003554       ??_C@_0DO@EGJHLJAN@INSERT?5INTO?5LogAppeal?5?$CISGNum?0?5Ch@ 004ff554     NetServerLib_A:s_COdbcLog.obj
 0002:00003594       ??_C@_01GEODFPGF@?8?$AA@   004ff594     NetServerLib_A:s_COdbcLog.obj
 0002:00003598       ??_C@_02OHHJMEON@?8?8?$AA@ 004ff598     NetServerLib_A:s_COdbcLog.obj
 0002:0000359c       ??_C@_0DD@FHMCEIGI@?$HLcall?5InsertLogHackProgram?$CI?$CFd?0?$CFd@ 004ff59c     NetServerLib_A:s_COdbcLog.obj
 0002:000035d0       ??_C@_0CC@BMMPIALK@ERROR?3COdbcManager?3?3CreateVehicl@ 004ff5d0     NetServerLib_A:s_OdbcGameVehicle.obj
 0002:000035f4       ??_C@_0CM@EKIHDKCI@?$HLcall?5sp_InsertVehicle?$CI?8?$CFs?8?0?$CFd?0?$CF@ 004ff5f4     NetServerLib_A:s_OdbcGameVehicle.obj
 0002:00003620       ??_C@_0CF@PCNCEJMG@ERROR?3COdbcManager?3?3SetVehicleBt@ 004ff620     NetServerLib_A:s_OdbcGameVehicle.obj
 0002:00003648       ??_C@_0CL@EHHIKLHE@?$HLcall?5sp_UpdateVehicleBattery?$CI?$CFd@ 004ff648     NetServerLib_A:s_OdbcGameVehicle.obj
 0002:00003674       ??_C@_0CE@NNMGMOFL@ERROR?3COdbcManager?3?3SetVehicleCo@ 004ff674     NetServerLib_A:s_OdbcGameVehicle.obj
 0002:00003698       ??_C@_0DI@NGLFGLHA@?$HLcall?5sp_UpdateVehicleColor?$CI?$CFd?0?$CF@ 004ff698     NetServerLib_A:s_OdbcGameVehicle.obj
 0002:000036d0       ??_C@_0CF@MFNLCPCF@?$HLcall?5sp_GetVehicleBattery?$CI?$CFd?0?$CFd@ 004ff6d0     NetServerLib_A:s_OdbcGameVehicle.obj
 0002:000036f8       ??_C@_0CC@HPOMPIGA@?$HLcall?5sp_DeleteVehicle?$CI?$CFd?0?5?$CFd?0?$DP?$CJ@ 004ff6f8     NetServerLib_A:s_OdbcGameVehicle.obj
 0002:0000371c       ??_C@_0CC@JNAGMDOL@ERROR?3COdbcManager?3?3DeleteVehicl@ 004ff71c     NetServerLib_A:s_OdbcGameVehicle.obj
 0002:00003740       ??_C@_0DL@JHIJAFJE@ERROR?3GetVehicle?5RowCount?5?$DN?50?0?5V@ 004ff740     NetServerLib_A:s_OdbcGameVehicle.obj
 0002:0000377c       ??_C@_0BM@IGJMBOLB@Exec?5sp_SelectVehicle?5?$CFd?0?$CFd?$AA@ 004ff77c     NetServerLib_A:s_OdbcGameVehicle.obj
 0002:00003798       ??_C@_0CO@BOABKKJA@ERROR?3COdbcManager?3?3GetVehicle?5p@ 004ff798     NetServerLib_A:s_OdbcGameVehicle.obj
 0002:000037c8       ??_C@_0BE@HDLBPIDD@?5WHERE?5?$CIVehicleNum?$DN?$AA@ 004ff7c8     NetServerLib_A:s_OdbcGameVehicle.obj
 0002:000037dc       ??_C@_0BG@GGECFGEL@?$CJ?5And?$CI?5VehicleChaNum?$DN?$AA@ 004ff7dc     NetServerLib_A:s_OdbcGameVehicle.obj
 0002:000037f4       ??_C@_01PKGAHCOL@?$CJ?$AA@ 004ff7f4     NetServerLib_A:s_OdbcGameVehicle.obj
 0002:000037f8       ??_C@_0DH@KLLHOGLM@UPDATE?5VehicleInfo?5SET?5VehicleIn@ 004ff7f8     NetServerLib_A:s_OdbcGameVehicle.obj
 0002:00003830       ??_C@_0CE@JFHJKLPN@ERROR?3COdbcManager?3?3SetVehicleIn@ 004ff830     NetServerLib_A:s_OdbcGameVehicle.obj
 0002:00003854       ??_C@_0BO@GNBAOKPH@VehicleInfo?4VehiclePutOnItems?$AA@ 004ff854     NetServerLib_A:s_OdbcGameVehicle.obj
 0002:00003874       ??_C@_0DD@CGDHHNOM@ERROR?3COdbcManager?3?3GetVehicleIn@ 004ff874     NetServerLib_A:s_OdbcGameVehicle.obj
 0002:000038a8       ??_C@_0CL@DPBLIIEJ@?$HLcall?5daum_user_passcheck?$CI?8?$CFs?8?0?8@ 004ff8a8     NetServerLib_A:s_COdbcUserCheck.obj
 0002:000038d4       ??_C@_0CM@NKGEMKK@?$HLcall?5terra_user_passcheck?$CI?8?$CFs?8?0@ 004ff8d4     NetServerLib_A:s_COdbcUserCheck.obj
 0002:00003900       ??_C@_0DC@LNAFNJJB@?$HLcall?5excite_user_passcheck?$CI?8?$CFs?8@ 004ff900     NetServerLib_A:s_COdbcUserCheck.obj
 0002:00003934       ??_C@_0CP@DJHCOMPC@SELECT?5CC_CLASS?5FROM?5TB_CC_IP?5WH@ 004ff934     NetServerLib_A:s_COdbcUserCheck.obj
 0002:00003964       ??_C@_0CO@KIFPNOPO@?$HLcall?5sp_LogSms_Insert?$CI?$CFd?0?8?8?0?$CFd?0@ 004ff964     NetServerLib_A:s_COdbcSMS.obj
 0002:00003994       ??_C@_0CF@BFPGPBKM@?$HLcall?5UpdateChaFriendSms?$CI?$CFd?0?8?$CFs?8@ 004ff994     NetServerLib_A:s_COdbcSMS.obj
 0002:000039bc       ??_C@_0BO@BJOPGPGE@ERROR?3COdbcManager?3?3CreatePet?$AA@ 004ff9bc     NetServerLib_A:s_COdbcGamePet.obj
 0002:000039dc       ??_C@_0DE@CPBHCAND@?$HLcall?5sp_InsertPet?$CI?8?$CFs?8?0?$CFd?0?$CFd?0?$CFd@ 004ff9dc     NetServerLib_A:s_COdbcGamePet.obj
 0002:00003a10       ??_C@_0CA@HFIPCBAN@ERROR?3COdbcManager?3?3ExchangePet?$AA@ 004ffa10     NetServerLib_A:s_COdbcGamePet.obj
 0002:00003a30       ??_C@_0CD@DMFDLCNA@?$HLcall?5sp_UpdatePetChaNum?$CI?$CFd?0?$CFd?0?$DP@ 004ffa30     NetServerLib_A:s_COdbcGamePet.obj
 0002:00003a54       ??_C@_0CF@FIEPKAJI@?$HLcall?5sp_UpdatePetColor?$CI?$CFd?0?$CFd?0?$CFd@ 004ffa54     NetServerLib_A:s_COdbcGamePet.obj
 0002:00003a7c       ??_C@_0CA@NDAKOPDE@ERROR?3COdbcManager?3?3SetPetColor?$AA@ 004ffa7c     NetServerLib_A:s_COdbcGamePet.obj
 0002:00003a9c       ??_C@_0CF@INCNOFLC@?$HLcall?5sp_UpdatePetStyle?$CI?$CFd?0?$CFd?0?$CFd@ 004ffa9c     NetServerLib_A:s_COdbcGamePet.obj
 0002:00003ac4       ??_C@_0CA@KHOONGFO@ERROR?3COdbcManager?3?3SetPetStyle?$AA@ 004ffac4     NetServerLib_A:s_COdbcGamePet.obj
 0002:00003ae4       ??_C@_0BP@LOHJLEDP@ERROR?3COdbcManager?3?3SetPetFull?$AA@ 004ffae4     NetServerLib_A:s_COdbcGamePet.obj
 0002:00003b04       ??_C@_0CE@NOLEGOOM@?$HLcall?5sp_UpdatePetFull?$CI?$CFd?0?$CFd?0?$CFd?0@ 004ffb04     NetServerLib_A:s_COdbcGamePet.obj
 0002:00003b28       ??_C@_0BN@IAJHGBKB@?$HLcall?5sp_DeletePet?$CI?$CFd?0?$CFd?0?$DP?$CJ?$HN?$AA@ 004ffb28     NetServerLib_A:s_COdbcGamePet.obj
 0002:00003b48       ??_C@_0BO@NIJCGEJN@ERROR?3COdbcManager?3?3DeletePet?$AA@ 004ffb48     NetServerLib_A:s_COdbcGamePet.obj
 0002:00003b68       ??_C@_0DE@BGEFJODO@?$HLcall?5sp_UpdatePetInven?$CI?$CFd?0?$CFd?0?$CFd@ 004ffb68     NetServerLib_A:s_COdbcGamePet.obj
 0002:00003b9c       ??_C@_0CA@MEIFDKNL@ERROR?3COdbcManager?3?3SetPetSkill?$AA@ 004ffb9c     NetServerLib_A:s_COdbcGamePet.obj
 0002:00003bbc       ??_C@_0BO@PIECIOPN@?$HLcall?5sp_GetPetFull?$CI?$CFd?0?$CFu?0?$DP?$CJ?$HN?$AA@ 004ffbbc     NetServerLib_A:s_COdbcGamePet.obj
 0002:00003bdc       ??_C@_0BO@GNCHBNEA@?$HLcall?5sp_RestorePet?$CI?$CFu?0?$CFd?0?$DP?$CJ?$HN?$AA@ 004ffbdc     NetServerLib_A:s_COdbcGamePet.obj
 0002:00003bfc       ??_C@_0BP@IIMEHPMH@ERROR?3COdbcManager?3?3RestorePet?$AA@ 004ffbfc     NetServerLib_A:s_COdbcGamePet.obj
 0002:00003c1c       ??_C@_0CC@CHFGML@ERROR?3COdbcManager?3?3UpdatePetSki@ 004ffc1c     NetServerLib_A:s_COdbcGamePet.obj
 0002:00003c40       ??_C@_0CN@KCJPEKMP@?$HLcall?5sp_UpdatePetSkin?$CI?$CFd?0?$CFu?0?$CFd?0@ 004ffc40     NetServerLib_A:s_COdbcGamePet.obj
 0002:00003c70       ??_C@_0EF@KEIKHOOD@UPDATE?5PetInfo?5SET?5PetDualSkill?5@ 004ffc70     NetServerLib_A:s_COdbcGamePet.obj
 0002:00003cb8       ??_C@_0CC@HFGAGIII@?$HLcall?5sp_RenamePet?$CI?$CFd?0?$CFd?0?8?$CFs?8?0?$DP?$CJ@ 004ffcb8     NetServerLib_A:s_COdbcGamePet.obj
 0002:00003cdc       ??_C@_0CO@KNBMCGMA@ERROR?3COdbcManager?3?3RenamePet?5sz@ 004ffcdc     NetServerLib_A:s_COdbcGamePet.obj
 0002:00003d0c       ??_C@_0DD@MKGOFILJ@ERROR?3GetPet?5RowCount?5?$DN?50?0?5PetID@ 004ffd0c     NetServerLib_A:s_COdbcGamePet.obj
 0002:00003d40       __real@3c23d70a            004ffd40     NetServerLib_A:s_COdbcGamePet.obj
 0002:00003d48       ??_C@_0ON@JMDLAHJL@SELECT?5PetName?0?5PetChaNum?0?5PetTy@ 004ffd48     NetServerLib_A:s_COdbcGamePet.obj
 0002:00003e38       ??_C@_0CG@PMFGCHAI@ERROR?3COdbcManager?3?3GetPet?5pPet?$DN@ 004ffe38     NetServerLib_A:s_COdbcGamePet.obj
 0002:00003e60       ??_C@_0BB@MOGOBHAF@list?$DMT?$DO?5too?5long?$AA@ 004ffe60     NetServerLib_A:s_COdbcGamePet.obj
 0002:00003e74       ??_C@_0DK@KIGKCDAO@UPDATE?5PetInfo?5SET?5PetInfo?4PetPu@ 004ffe74     NetServerLib_A:s_COdbcGamePet.obj
 0002:00003eb0       ??_C@_0P@GFAINAOF@And?5PetChaNum?$DN?$AA@ 004ffeb0     NetServerLib_A:s_COdbcGamePet.obj
 0002:00003ec0       ??_C@_0CA@JLLFIKJC@ERROR?3COdbcManager?3?3SetPetInven?$AA@ 004ffec0     NetServerLib_A:s_COdbcGamePet.obj
 0002:00003ee0       ??_C@_0BG@KBPFGJNH@PetInfo?4PetPutOnItems?$AA@ 004ffee0     NetServerLib_A:s_COdbcGamePet.obj
 0002:00003ef8       ??_C@_0CL@CPIODCMB@ERROR?3COdbcManager?3?3GetPetInven?5@ 004ffef8     NetServerLib_A:s_COdbcGamePet.obj
 0002:00003f28       ??_C@_0KP@HNENGNKL@SELECT?5PetInvenMID?0?5PetInvenSID?0@ 004fff28     NetServerLib_A:s_COdbcGamePet.obj
 0002:00003fd8       ??_C@_0CL@KOEKLPCK@ERROR?3COdbcManager?3?3GetPetSkill?5@ 004fffd8     NetServerLib_A:s_COdbcGamePet.obj
 0002:00004008       ??_C@_0GJ@GJOJPDAN@SELECT?5PetNum?0?5PetName?0?5PetType?0@ 00500008     NetServerLib_A:s_COdbcGamePet.obj
 0002:00004078       ??_C@_0ON@OPIKMKFM@UPDATE?5ChaInfo?5SET?5ChaStartMap?$DN?$CF@ 00500078     NetServerLib_A:s_COdbcGameChaSave.obj
 0002:00004168       ??_C@_0DL@LAECIKEC@UPDATE?5ChaInfo?5SET?5ChaInfo?4ChaCo@ 00500168     NetServerLib_A:s_COdbcGameChaSave.obj
 0002:000041a4       ??_C@_0DI@GONBOHFC@UPDATE?5ChaInfo?5SET?5ChaInfo?4ChaQu@ 005001a4     NetServerLib_A:s_COdbcGameChaSave.obj
 0002:000041dc       ??_C@_0DI@CFHCBEPO@UPDATE?5ChaInfo?5SET?5ChaInfo?4ChaIn@ 005001dc     NetServerLib_A:s_COdbcGameChaSave.obj
 0002:00004214       ??_C@_0DN@KCMJGAOC@UPDATE?5ChaInfo?5SET?5ChaInfo?4ChaPu@ 00500214     NetServerLib_A:s_COdbcGameChaSave.obj
 0002:00004254       ??_C@_0DN@BEHOAIGN@UPDATE?5ChaInfo?5SET?5ChaInfo?4ChaAc@ 00500254     NetServerLib_A:s_COdbcGameChaSave.obj
 0002:00004294       ??_C@_0DM@OHADNLBO@UPDATE?5ChaInfo?5SET?5ChaInfo?4ChaSk@ 00500294     NetServerLib_A:s_COdbcGameChaSave.obj
 0002:000042d0       ??_C@_0DJ@KCMDCMCK@UPDATE?5ChaInfo?5SET?5ChaInfo?4ChaSk@ 005002d0     NetServerLib_A:s_COdbcGameChaSave.obj
 0002:00004310       ??_C@_0COO@NIACPCDP@UPDATE?5ChaInfo?5SET?5ChaBright?$DN?$CFd?0@ 00500310     NetServerLib_A:s_COdbcGameChaSave.obj
 0002:00004600       ??_C@_0CD@BMJGJNDF@?$HLcall?5UpdateChaHairColor?$CI?$CFu?0?$CFd?0?$DP@ 00500600     NetServerLib_A:s_COdbcGameChaHair.obj
 0002:00004624       ??_C@_0CD@EHHMKAKG@?$HLcall?5UpdateChaHairStyle?$CI?$CFu?0?$CFd?0?$DP@ 00500624     NetServerLib_A:s_COdbcGameChaHair.obj
 0002:00004648       ??_C@_0CD@HLMCMLHI@?$HLcall?5UpdateChaFaceStyle?$CI?$CFu?0?$CFd?0?$DP@ 00500648     NetServerLib_A:s_COdbcGameChaHair.obj
 0002:0000466c       ??_C@_0CH@DLEILGM@ERROR?3COdbcManager?3?3SetChaGender@ 0050066c     NetServerLib_A:s_COdbcGameChaHair.obj
 0002:00004694       ??_C@_0CP@OGDGLCEJ@?$HLcall?5sp_UpdateChaGender?$CI?$CFu?0?$CFd?0?$CF@ 00500694     NetServerLib_A:s_COdbcGameChaHair.obj
 0002:000046c4       ??_C@_0CC@FINPDBAJ@?$HLcall?5RenameCharacter?$CI?$CFd?0?8?$CFs?8?0?$DP?$CJ@ 005006c4     NetServerLib_A:s_COdbcGameChaRename.obj
 0002:000046e8       ??_C@_0CC@KDICHHIL@?$HLcall?5sp_create_guild?$CI?$CFu?0?8?$CFs?8?0?$DP?$CJ@ 005006e8     NetServerLib_A:s_COdbcGameClub.obj
 0002:0000470c       ??_C@_0CA@GFBDHNDA@?$HLcall?5sp_delete_guild?$CI?$CFu?0?$CFu?0?$DP?$CJ?$HN?$AA@ 0050070c     NetServerLib_A:s_COdbcGameClub.obj
 0002:0000472c       ??_C@_0CF@JBABNGHK@?$HLcall?5sp_update_guild_rank?$CI?$CFu?0?$CFu@ 0050072c     NetServerLib_A:s_COdbcGameClub.obj
 0002:00004754       ??_C@_0DG@LPCCFPKH@UPDATE?5GuildInfo?5SET?5GuExpireTim@ 00500754     NetServerLib_A:s_COdbcGameClub.obj
 0002:0000478c       ??_C@_0DH@EIAKAEGK@UPDATE?5GuildInfo?5SET?5GuAllianceS@ 0050078c     NetServerLib_A:s_COdbcGameClub.obj
 0002:000047c4       ??_C@_0DH@KPGLOENE@UPDATE?5GuildInfo?5SET?5GuAllianceD@ 005007c4     NetServerLib_A:s_COdbcGameClub.obj
 0002:000047fc       ??_C@_0DJ@NPIBFNIJ@UPDATE?5GuildInfo?5SET?5GuAuthority@ 005007fc     NetServerLib_A:s_COdbcGameClub.obj
 0002:00004838       ??_C@_0CE@CABGADDI@?$HLcall?5sp_add_guild_member?$CI?$CFu?0?$CFu?0@ 00500838     NetServerLib_A:s_COdbcGameClub.obj
 0002:0000485c       ??_C@_0CE@DOPNCBLO@?$HLcall?5sp_delete_guild_member?$CI?$CFu?0@ 0050085c     NetServerLib_A:s_COdbcGameClub.obj
 0002:00004880       ??_C@_0DC@KEBDAJLG@szClubNotice?5NULL?5or?5large?5than?5@ 00500880     NetServerLib_A:s_COdbcGameClub.obj
 0002:000048b4       ??_C@_0DC@KIGIGCOL@UPDATE?5GuildInfo?5SET?5GuNotice?$DN?8?$CF@ 005008b4     NetServerLib_A:s_COdbcGameClub.obj
 0002:000048e8       ??_C@_0DE@MGNGBNOA@UPDATE?5GuildInfo?5SET?5GuMarkImage@ 005008e8     NetServerLib_A:s_COdbcGameClub.obj
 0002:0000491c       ??_C@_0DB@PKBGNNLD@UPDATE?5GuildInfo?5SET?5GuMarkVer?$DN?$CF@ 0050091c     NetServerLib_A:s_COdbcGameClub.obj
 0002:00004950       ??_C@_0DI@PLGCIIEO@Update?5GuildInfo?5Set?5GuIncomeMon@ 00500950     NetServerLib_A:s_COdbcGameClub.obj
 0002:00004988       ??_C@_0DD@CLIFCLEM@SetClubIncomeMoney?5llMoney?5Must?5@ 00500988     NetServerLib_A:s_COdbcGameClub.obj
 0002:000049bc       ??_C@_0DD@PJLLCEGJ@SELECT?5GuIncomeMoney?5From?5GuildI@ 005009bc     NetServerLib_A:s_COdbcGameClub.obj
 0002:000049f0       ??_C@_0DC@GJDDIPJF@GetClubIncomeMoney?5dwClub?5is?5mus@ 005009f0     NetServerLib_A:s_COdbcGameClub.obj
 0002:00004a24       ??_C@_0DC@LHKNAGM@Update?5GuildInfo?5Set?5GuMoney?$DN?$CFI6@ 00500a24     NetServerLib_A:s_COdbcGameClub.obj
 0002:00004a58       ??_C@_0CN@MADCKHBJ@SetClubMoney?5llMoney?5Must?5be?5lar@ 00500a58     NetServerLib_A:s_COdbcGameClub.obj
 0002:00004a88       ??_C@_0CN@GBHAGHFH@SELECT?5GuMoney?5From?5GuildInfo?5WH@ 00500a88     NetServerLib_A:s_COdbcGameClub.obj
 0002:00004ab8       ??_C@_0CM@OEECFHGB@GetClubMoney?5dwClub?5is?5must?5larg@ 00500ab8     NetServerLib_A:s_COdbcGameClub.obj
 0002:00004ae4       ??_C@_0DJ@DAIFBEGL@WriteClubStorage?5?$CIpData?0?5nSize?0?5@ 00500ae4     NetServerLib_A:s_COdbcGameClub.obj
 0002:00004b20       ??_C@_0DC@CAOLBPON@UPDATE?5GuildInfo?5SET?5GuStorage?$DN?$DP@ 00500b20     NetServerLib_A:s_COdbcGameClub.obj
 0002:00004b54       ??_C@_0DO@GDBEECKK@UPDATE?5ChaInfo?5SET?5GuPosition?$DN?$CFu@ 00500b54     NetServerLib_A:s_COdbcGameClub.obj
 0002:00004b94       ??_C@_0DP@JBOMJOGN@Update?5GuildInfo?5WITH?5?$CIUPDLOCK?$CJ?5@ 00500b94     NetServerLib_A:s_COdbcGameClub.obj
 0002:00004bd4       ??_C@_0DN@NDNAAIMC@Update?5GuildInfo?5WITH?5?$CIUPDLOCK?$CJ?5@ 00500bd4     NetServerLib_A:s_COdbcGameClub.obj
 0002:00004c14       ??_C@_0CH@GGFNLON@?$HLcall?5sp_add_guild_region?$CI?$CFu?0?$CFu?0@ 00500c14     NetServerLib_A:s_COdbcGameClub.obj
 0002:00004c3c       ??_C@_0CB@DLOENDOJ@?$HLcall?5sp_add_sw_region?$CI?$CFu?0?$CFu?0?$DP?$CJ?$HN@ 00500c3c     NetServerLib_A:s_COdbcGameClub.obj
 0002:00004c60       ??_C@_0CH@PCCOBNDK@?$HLcall?5sp_delete_guild_region?$CI?$CFu?0@ 00500c60     NetServerLib_A:s_COdbcGameClub.obj
 0002:00004c88       ??_C@_0CI@IKJAMGKP@ERROR?3SetClubAlliance?3Check?5Club@ 00500c88     NetServerLib_A:s_COdbcGameClub.obj
 0002:00004cb0       ??_C@_0CE@NCBOPDDH@?$HLcall?5InsertGuildAlliance?$CI?$CFu?0?$CFu?0@ 00500cb0     NetServerLib_A:s_COdbcGameClub.obj
 0002:00004cd4       ??_C@_0CI@KOOEDCDD@ERROR?3DelClubAlliance?3Check?5Club@ 00500cd4     NetServerLib_A:s_COdbcGameClub.obj
 0002:00004cfc       ??_C@_0CE@PMOEIMGK@?$HLcall?5DeleteGuildAlliance?$CI?$CFu?0?$CFu?0@ 00500cfc     NetServerLib_A:s_COdbcGameClub.obj
 0002:00004d20       ??_C@_0CB@KEIPIHLJ@ERROR?3?5ODBCManager?5EndClubBattle@ 00500d20     NetServerLib_A:s_COdbcGameClub.obj
 0002:00004d44       ??_C@_0CI@IPBKNCH@?$HLcall?5sp_EndGuBattle?$CI?$CFu?0?$CFu?0?$CFu?0?$CFu@ 00500d44     NetServerLib_A:s_COdbcGameClub.obj
 0002:00004d6c       ??_C@_0DA@HPBCNHMB@?$HLcall?5sp_EndGuAllianceBattle?$CI?$CFu?0@ 00500d6c     NetServerLib_A:s_COdbcGameClub.obj
 0002:00004d9c       ??_C@_0CC@HBPCOBIE@ERROR?3?5ODBCManager?5SaveClubBattl@ 00500d9c     NetServerLib_A:s_COdbcGameClub.obj
 0002:00004dc0       ??_C@_0CG@HKDCJDEB@?$HLcall?5sp_SaveGuBattle?$CI?$CFu?0?$CFu?0?$CFu?0?$CF@ 00500dc0     NetServerLib_A:s_COdbcGameClub.obj
 0002:00004de8       ??_C@_0CE@EFLDKMKA@?$HLcall?5sp_ResetAllianceBattle?$CI?$CFu?0@ 00500de8     NetServerLib_A:s_COdbcGameClub.obj
 0002:00004e0c       ??_C@_0CH@CDGBFDCG@ERROR?3?5ODBCManager?5ReSetAlliance@ 00500e0c     NetServerLib_A:s_COdbcGameClub.obj
 0002:00004e34       ??_C@_0CB@NBCOKCDM@ERROR?3?5ODBCManager?5SetClubBattle@ 00500e34     NetServerLib_A:s_COdbcGameClub.obj
 0002:00004e58       ??_C@_0CL@HNEBKFOC@?$HLcall?5sp_RequestGuBattle?$CI?$CFu?0?$CFu?0?8@ 00500e58     NetServerLib_A:s_COdbcGameClub.obj
 0002:00004e84       ??_C@_0DN@NANOBNLC@SELECT?5GuildInfo?4GuMarkImage?5FRO@ 00500e84     NetServerLib_A:s_COdbcGameClub.obj
 0002:00004ec4       ??_C@_0DL@CFIIOBGN@SELECT?5GuildInfo?4GuStorage?5FROM?5@ 00500ec4     NetServerLib_A:s_COdbcGameClub.obj
 0002:00004f00       ??_C@_0CP@FPPOJNNL@ReadClubStorage?5dwClub?5must?5be?5l@ 00500f00     NetServerLib_A:s_COdbcGameClub.obj
 0002:00004f30       ??_C@_0EH@FPBOOOIN@SELECT?5GuNumP?0?5GuNumS?5FROM?5Guild@ 00500f30     NetServerLib_A:s_COdbcGameClub.obj
 0002:00004f78       ??_C@_0FI@KOBPFHHK@SELECT?5ChaNum?0?5ChaName?0?5GuPositi@ 00500f78     NetServerLib_A:s_COdbcGameClub.obj
 0002:00004fd0       ??_C@_0CB@FACDGIEE@ERROR?3sCLUB?4m_tAuthority?5year?5?$CFd@ 00500fd0     NetServerLib_A:s_COdbcGameClub.obj
 0002:00004ff4       ??_C@_0CD@PCEPKIAD@ERROR?3sCLUB?4m_tAllianceDis?5year?5@ 00500ff4     NetServerLib_A:s_COdbcGameClub.obj
 0002:00005018       ??_C@_0CD@KHHLLPFP@ERROR?3sCLUB?4m_tAllianceSec?5year?5@ 00501018     NetServerLib_A:s_COdbcGameClub.obj
 0002:0000503c       ??_C@_0CD@NJHABOEA@ERROR?3sCLUB?4m_tDissolution?5year?5@ 0050103c     NetServerLib_A:s_COdbcGameClub.obj
 0002:00005060       ??_C@_0BO@KAKBKADE@ERROR?3sCLUB?4sMakeTime?5year?5?$CFd?$AA@ 00501060     NetServerLib_A:s_COdbcGameClub.obj
 0002:00005080       ??_C@_0CE@HAMBBLDH@ERROR?3sCLUB?4sBattleLastTime?5year@ 00501080     NetServerLib_A:s_COdbcGameClub.obj
 0002:000050a8       ??_C@_0BDN@DCMJJEGI@SELECT?5GuNum?0?5ChaNum?0?5GuDeputy?0?5@ 005010a8     NetServerLib_A:s_COdbcGameClub.obj
 0002:000051e8       ??_C@_0FD@IFPFDHDO@SELECT?5RegionID?0?5GuNum?0?5RegionTa@ 005011e8     NetServerLib_A:s_COdbcGameClub.obj
 0002:0000523c       ??_C@_0DN@INKENBGM@SELECT?5SwID?0?5SwNum?5FROM?5SwRegion@ 0050123c     NetServerLib_A:s_COdbcGameClub.obj
 0002:0000527c       ??_C@_0CF@ODPOOPGB@ERROR?3vBattleInfo?4m_tEndTime?5yea@ 0050127c     NetServerLib_A:s_COdbcGameClub.obj
 0002:000052a4       ??_C@_0CP@CDALGKEG@ERROR?3vBattleInfo?4m_tGuBattleSta@ 005012a4     NetServerLib_A:s_COdbcGameClub.obj
 0002:000052d8       ??_C@_0KA@LEIIPCNG@SELECT?5GuSNum?0?5GuFlag?0?5GuKillNum@ 005012d8     NetServerLib_A:s_COdbcGameClub.obj
 0002:00005378       ??_C@_0CF@JDHLKGLM@?$HLcall?5InsertPartyMatch?$CI?$CFd?0?$CFd?0?$CFu?0@ 00501378     NetServerLib_A:s_COdbcGame.obj
 0002:000053a0       ??_C@_0CA@HOEIKOLE@?$HLcall?5UpdateChaExp?$CI?$CFI64d?0?$CFd?0?$DP?$CJ?$HN?$AA@ 005013a0     NetServerLib_A:s_COdbcGame.obj
 0002:000053c0       ??_C@_0CL@FGKKENKO@SELECT?5ChaExp?5From?5ChaInfo?5WHERE@ 005013c0     NetServerLib_A:s_COdbcGame.obj
 0002:000053ec       ??_C@_0CO@BILJBEJD@?$HLcall?5UpdateChaLastCallPos?$CI?$CFu?0?$CFf@ 005013ec     NetServerLib_A:s_COdbcGame.obj
 0002:0000541c       ??_C@_0DI@HDDFCOBF@UPDATE?5ChaInfo?5SET?5ChaInfo?4ChaQu@ 0050141c     NetServerLib_A:s_COdbcGameChaCreate.obj
 0002:00005454       ??_C@_0DI@DIJGNNLJ@UPDATE?5ChaInfo?5SET?5ChaInfo?4ChaIn@ 00501454     NetServerLib_A:s_COdbcGameChaCreate.obj
 0002:0000548c       ??_C@_0DN@LPCNKJKF@UPDATE?5ChaInfo?5SET?5ChaInfo?4ChaPu@ 0050148c     NetServerLib_A:s_COdbcGameChaCreate.obj
 0002:000054cc       ??_C@_0DN@JJKMBCK@UPDATE?5ChaInfo?5SET?5ChaInfo?4ChaAc@ 005014cc     NetServerLib_A:s_COdbcGameChaCreate.obj
 0002:0000550c       ??_C@_0DM@PKOHBCFJ@UPDATE?5ChaInfo?5SET?5ChaInfo?4ChaSk@ 0050150c     NetServerLib_A:s_COdbcGameChaCreate.obj
 0002:00005548       ??_C@_0DJ@LPCHOFGN@UPDATE?5ChaInfo?5SET?5ChaInfo?4ChaSk@ 00501548     NetServerLib_A:s_COdbcGameChaCreate.obj
 0002:00005584       ??_C@_0CF@GJFGDMO@SELECT?5cast?$CISCOPE_IDENTITY?$CI?$CJ?5as?5@ 00501584     NetServerLib_A:s_COdbcGameChaCreate.obj
 0002:000055b0       ??_C@_0COF@OBBPGCOB@INSERT?5INTO?5ChaInfo?$CIUserNum?0?5SGN@ 005015b0     NetServerLib_A:s_COdbcGameChaCreate.obj
 0002:00005898       ??_C@_0CL@FFMENCCE@?$HLcall?5sp_purchase_change_state?$CI?8@ 00501898     NetServerLib_A:s_COdbcShop.obj
 0002:000058c8       ??_C@_0FI@KNBJEMIJ@SELECT?5Purkey?0?5ItemMain?0?5ItemSub@ 005018c8     NetServerLib_A:s_COdbcShop.obj
 0002:00005920       ??_C@_0GM@MDCLLLJF@?$HLcall?5sp_logitemexchange_insert?$CI@ 00501920     NetServerLib_A:s_COdbcLogItem.obj
 0002:00005990       ??_C@_0GM@DKKBCGNK@?$HLcall?5sp_logitemexchange_insert?$CI@ 00501990     NetServerLib_A:s_COdbcLogItem.obj
 0002:00005a00       ??_C@_0HC@DADFCJEA@SELECT?5MaxNum?0?5NIDMain?0?5NIDSub?0?5@ 00501a00     NetServerLib_A:s_COdbcLogItem.obj
 0002:00005a74       ??_C@_0CA@GMDLCMMK@?$HLcall?5DeleteChaFriend?$CI?$CFd?0?$CFd?0?$DP?$CJ?$HN?$AA@ 00501a74     NetServerLib_A:s_COdbcGameFriend.obj
 0002:00005a94       ??_C@_0CA@NHMMKLNN@?$HLcall?5InsertChaFriend?$CI?$CFd?0?$CFd?0?$DP?$CJ?$HN?$AA@ 00501a94     NetServerLib_A:s_COdbcGameFriend.obj
 0002:00005ab4       ??_C@_0CD@HFLIPDNG@?$HLcall?5UpdateChaFriend?$CI?$CFd?0?$CFd?0?$CFd?0?$DP@ 00501ab4     NetServerLib_A:s_COdbcGameFriend.obj
 0002:00005ad8       ??_C@_0BH@GDGPALBP@INFO?3SQLAllocHandle?5OK?$AA@ 00501ad8     NetServerLib_A:s_COdbcEnv.obj
 0002:00005af0       ??_C@_0BM@GNFOBGPJ@ERROR?3SQLAllocHandle?5Failed?$AA@ 00501af0     NetServerLib_A:s_COdbcEnv.obj
 0002:00005b0c       ??_C@_0CE@OHECHNLM@INFO?3SQL_ATTR_CONNECTION_POOLING@ 00501b0c     NetServerLib_A:s_COdbcEnv.obj
 0002:00005b30       ??_C@_0CJ@KCODBJGK@ERROR?3SQL_ATTR_CONNECTION_POOLIN@ 00501b30     NetServerLib_A:s_COdbcEnv.obj
 0002:00005b5c       ??_C@_0BI@GKJCKNNF@ERROR?3?$CFd?5?$CFs?5Buffer?5Over?$AA@ 00501b5c     NetServerLib_A:s_CNetUser.obj
 0002:00005b74       ??_C@_0CG@HFDBBLPO@CNetUser?3?3InsertBuffer?5IsOnline?5@ 00501b74     NetServerLib_A:s_CNetUser.obj
 0002:00005b9c       ??_C@_0BK@CDJPEAEK@Blocking?5Detected?5IP?5?3?5?$CFs?$AA@ 00501b9c     NetServerLib_A:s_CNetUser.obj
 0002:00005bb8       ??_C@_07HAKPBCAH@?$DN?$DN?$CFs?$DN?$DN?6?$AA@ 00501bb8     NetServerLib_A:s_CNetUser.obj
 0002:00005bc0       ??_C@_0P@ONGMDJDI@Commandlog?4txt?$AA@ 00501bc0     NetServerLib_A:s_CNetUser.obj
 0002:00005bd0       ??_C@_02DPNLHKJD@a?$CL?$AA@ 00501bd0     NetServerLib_A:s_CNetUser.obj
 0002:00005bd4       ??_C@_0CO@MBFIJCPB@ipfilter?4exe?5blacklistadd?$DN?$CFs?0255@ 00501bd4     NetServerLib_A:s_CNetUser.obj
 0002:00005c04       ??_C@_0DA@GJPKIHPO@ipfilter?4exe?5blacklistadd?$DN?$CFs?0255@ 00501c04     NetServerLib_A:s_CNetUser.obj
 0002:00005c34       ??_C@_05MPOCIJBL@?$CFs?9?$CFs?$AA@ 00501c34     NetServerLib_A:s_CNetUser.obj
 0002:00005c40       ??_C@_0FO@MIFBOKID@CNetUser?3?3Client?5invalid?5Garbage@ 00501c40     NetServerLib_A:s_CNetUser.obj
 0002:00005ca0       ??_C@_0CL@FJOGEIOB@GTRL?5MESSAGE?$CB?$CB?5GTRL_MSG?5NUM?5?$CFd?0?5@ 00501ca0     NetServerLib_A:s_CNetUser.obj
 0002:00005ccc       ??_C@_0CN@KCIJKJEM@LOBBY?5MESSAGE?$CB?$CB?5LOBBY_MSG?5NUM?5?$CFd@ 00501ccc     NetServerLib_A:s_CNetUser.obj
 0002:00005cfc       ??_C@_0CN@ICPEJHOE@LOGIN?5MESSAGE?$CB?$CB?5LOGIN_MSG?5NUM?5?$CFd@ 00501cfc     NetServerLib_A:s_CNetUser.obj
 0002:00005d30       ??_C@_0EE@MMPJJBA@CNetUser?3?3Client?5invalid?5Msg?$CB?$CB?5C@ 00501d30     NetServerLib_A:s_CNetUser.obj
 0002:00005d74       ??_C@_0CA@LPONPGAJ@CNetUser?3?3GetMsg?5IsOnline?5false?$AA@ 00501d74     NetServerLib_A:s_CNetUser.obj
 0002:00005d94       ??_7CNetUser@@6B@          00501d94     NetServerLib_A:s_CNetUser.obj
 0002:00005d98       ??_C@_0CL@HDDJGDBG@CNetUser?3?3SetAcceptedClient?5clos@ 00501d98     NetServerLib_A:s_CNetUser.obj
 0002:00005dc4       ??_C@_0DH@MOJIAMEN@CNetUser?3?3SetAcceptedClient?5m_So@ 00501dc4     NetServerLib_A:s_CNetUser.obj
 0002:00005dfc       ??_C@_0DF@BCEPNDFH@ERROR?3CNetUser?3?3CloseClient?5clie@ 00501dfc     NetServerLib_A:s_CNetUser.obj
 0002:00005e34       ??_C@_0DJ@JILICDOB@ERROR?3CNetUser?3?3CloseClient?5clos@ 00501e34     NetServerLib_A:s_CNetUser.obj
 0002:00005e70       ??_C@_0DN@POJFNPFC@ERROR?3CNetUser?3?3CloseClient?5clos@ 00501e70     NetServerLib_A:s_CNetUser.obj
 0002:00005eb0       ??_C@_0DH@OHOIEIEE@ERROR?3CNetUser?3?3CloseClient?5clos@ 00501eb0     NetServerLib_A:s_CNetUser.obj
 0002:00005ee8       ??_C@_0DN@PHACHBH@ERROR?3CNetUser?3?3CloseClient?5clos@ 00501ee8     NetServerLib_A:s_CNetUser.obj
 0002:00005f28       ??_C@_0DK@OABGPKCI@ERROR?3CNetUser?3?3CloseClient?5clos@ 00501f28     NetServerLib_A:s_CNetUser.obj
 0002:00005f64       ??_C@_0DK@OEEIFAFP@ERROR?3CNetUser?3?3CloseClient?5clos@ 00501f64     NetServerLib_A:s_CNetUser.obj
 0002:00005fa0       ??_C@_0EA@EBDJDMBC@ERROR?3CNetUser?3?3CloseClient?5clos@ 00501fa0     NetServerLib_A:s_CNetUser.obj
 0002:00005fe0       ??_C@_02CPIDLAI@at?$AA@    00501fe0     NetServerLib_A:s_CCsvFile.obj
 0002:00005fe4       ??_C@_01IHBHIGKO@?0?$AA@   00501fe4     NetServerLib_A:s_CCsvFile.obj
 0002:00005fe8       ??_7TiXmlDocument@@6B@     00501fe8     NetServerLib_A:s_CWhiteRockXML.obj
 0002:00006034       ??_C@_01HIHLOKLC@1?$AA@    00502034     NetServerLib_A:s_CAgentServerApex.obj
 0002:00006038       ??_C@_01NEMOKFLO@?$DN?$AA@ 00502038     NetServerLib_A:DaumGameAuth.obj
 0002:0000603c       __real@00000000            0050203c     EngineLib_A:profile.obj
 0002:0000603c       __real@4@00000000000000000000 0050203c     vorbisfile_static:psy.obj
 0002:00006040       __real@3fb99999a0000000    00502040     EngineLib_A:dxutil.obj
 0002:00006040       __real@8@3ffbcccccd0000000000 00502040     vorbisfile_static:psy.obj
 0002:00006048       __real@3f50624dd2f1a9fc    00502048     EngineLib_A:dxutil.obj
 0002:00006050       __real@41f0000000000000    00502050     EngineLib_A:dxutil.obj
 0002:00006058       __real@bf800000            00502058     EngineLib_A:dxutil.obj
 0002:0000605c       ??_C@_01EEMJAFIK@?6?$AA@   0050205c     EngineLib_A:dxutil.obj
 0002:00006060       ?sm_alog@CRijndael@@0QBHB  00502060     EngineLib_A:Rijndael.obj
 0002:00006460       ?sm_log@CRijndael@@0QBHB   00502460     EngineLib_A:Rijndael.obj
 0002:00006860       ?sm_S@CRijndael@@0QBDB     00502860     EngineLib_A:Rijndael.obj
 0002:00006960       ?sm_Si@CRijndael@@0QBDB    00502960     EngineLib_A:Rijndael.obj
 0002:00006a60       ?sm_T1@CRijndael@@0QBHB    00502a60     EngineLib_A:Rijndael.obj
 0002:00006e60       ?sm_T2@CRijndael@@0QBHB    00502e60     EngineLib_A:Rijndael.obj
 0002:00007260       ?sm_T3@CRijndael@@0QBHB    00503260     EngineLib_A:Rijndael.obj
 0002:00007660       ?sm_T4@CRijndael@@0QBHB    00503660     EngineLib_A:Rijndael.obj
 0002:00007a60       ?sm_T5@CRijndael@@0QBHB    00503a60     EngineLib_A:Rijndael.obj
 0002:00007e60       ?sm_T6@CRijndael@@0QBHB    00503e60     EngineLib_A:Rijndael.obj
 0002:00008260       ?sm_T7@CRijndael@@0QBHB    00504260     EngineLib_A:Rijndael.obj
 0002:00008660       ?sm_T8@CRijndael@@0QBHB    00504660     EngineLib_A:Rijndael.obj
 0002:00008a60       ?sm_U1@CRijndael@@0QBHB    00504a60     EngineLib_A:Rijndael.obj
 0002:00008e60       ?sm_U2@CRijndael@@0QBHB    00504e60     EngineLib_A:Rijndael.obj
 0002:00009260       ?sm_U3@CRijndael@@0QBHB    00505260     EngineLib_A:Rijndael.obj
 0002:00009660       ?sm_U4@CRijndael@@0QBHB    00505660     EngineLib_A:Rijndael.obj
 0002:00009a60       ?sm_rcon@CRijndael@@0QBDB  00505a60     EngineLib_A:Rijndael.obj
 0002:00009a80       ?sm_shifts@CRijndael@@0QAY131$$CBHA 00505a80     EngineLib_A:Rijndael.obj
 0002:00009ae0       ?sm_chain0@CRijndael@@2QBDB 00505ae0     EngineLib_A:Rijndael.obj
 0002:00009b00       ?sm_KeyLength@CRijndael@@2QBKB 00505b00     EngineLib_A:Rijndael.obj
 0002:00009b10       ??_7CRijndael@@6B@         00505b10     EngineLib_A:Rijndael.obj
 0002:00009b2c       ??_C@_08JKDDDAD@?$CFd?$CFd?$CFd?$CFd?$AA@ 00505b2c     EngineLib_A:Rijndael.obj
 0002:00009b38       ??_C@_08COPJELP@RIJNDAEL?$AA@ 00505b38     EngineLib_A:Rijndael.obj
 0002:00009b44       ??_7runtime_error@std@@6B@ 00505b44     EngineLib_A:Rijndael.obj
 0002:00009b4c       ??_C@_01DCLJPIOD@?$CB?$AA@ 00505b4c     EngineLib_A:Rijndael.obj
 0002:00009b50       ??_C@_0CB@IKGDLJKN@als?$CBzjabsl?$EAzpdltus?$CDchlrkd?$FOvmfaj?$CK@ 00505b50     EngineLib_A:Rijndael.obj
 0002:00009b74       ??_C@_0CB@BDCEFDCJ@skrkrhtlvdj?$CB?$EA?$CDwpfrmfjgrpgo?$CB?$EA?$CD$qk@ 00505b74     EngineLib_A:Rijndael.obj
 0002:00009b98       ??_C@_0BB@FHAKKBHP@0in123joydn11ps9?$AA@ 00505b98     EngineLib_A:Rijndael.obj
 0002:00009bac       ??_C@_0BB@OJEBFNJI@fjiw239rnisf9342?$AA@ 00505bac     EngineLib_A:Rijndael.obj
 0002:00009bc0       __real@41700000            00505bc0     EngineLib_A:DebugSet.obj
 0002:00009bc4       __real@425c0000            00505bc4     EngineLib_A:DebugSet.obj
 0002:00009bc8       ??_C@_0BM@DAFDJKHJ@?$CFd?9?$CF02d?9?$CF02d?5?$CF02d?3?$CF02d?3?$CF02d?$AA@ 00505bc8     EngineLib_A:DebugSet.obj
 0002:00009be4       ??_C@_08MPICMHNM@?$FL?$CFs?$FN?5?$CFs?6?$AA@ 00505be4     EngineLib_A:DebugSet.obj
 0002:00009bf0       ??_C@_0BF@JCAAFDIB@Execution?5time?5?3?5?$CFs?6?$AA@ 00505bf0     EngineLib_A:DebugSet.obj
 0002:00009c08       ??_C@_0BP@BIDKKMG@?5?5?5?5?5?5?5?5?5?5?5?5?5?5?5?5?5ERROR?5REPORT?6?$AA@ 00505c08     EngineLib_A:DebugSet.obj
 0002:00009c28       ??_C@_0BG@KIBKBPDI@?7?7?7?7?5?5?5?5ERROR?5REPORT?6?$AA@ 00505c28     EngineLib_A:DebugSet.obj
 0002:00009c40       ??_C@_0DB@EDCEICEK@?9?9?9?9?9?9?9?9?9?9?9?9?9?9?9?9?9?9?9?9?9?9?9?9?9?9?9?9?9?9?9?9@ 00505c40     EngineLib_A:DebugSet.obj
 0002:00009c74       ??_C@_08FMKPAPDE@?$FL?$CF05d?$FN?5?5?$AA@ 00505c74     EngineLib_A:DebugSet.obj
 0002:00009c84       __real@3f000000            00505c84     EngineLib_A:GLPeriod.obj
 0002:00009c84       __real@4@3ffe8000000000000000 00505c84     vorbisfile_static:vorbisfile.obj
 0002:00009c88       __real@38000100            00505c88     EngineLib_A:GLPeriod.obj
 0002:00009c8c       ??_7DxInputDevice@@6B@     00505c8c     EngineLib_A:DxInputDevice.obj
 0002:00009c90       ??_C@_0CA@EBCMLHAE@?5cannot?5be?5Correctly?5Decrypted?$CB?$AA@ 00505c90     EngineLib_A:Method.obj
 0002:00009cb0       ??_C@_0BH@DPFFPFJM@FileCrypt?5ERROR?3?5File?5?$AA@ 00505cb0     EngineLib_A:Method.obj
 0002:00009cc8       ??_C@_0DF@HMFJDCDC@FileCrypt?5ERROR?3?5The?5same?5File?5f@ 00505cc8     EngineLib_A:Method.obj
 0002:00009d00       ??_C@_0CD@NPBNFELC@FileCrypt?5ERROR?3?5Cannot?5open?5Fil@ 00505d00     EngineLib_A:Method.obj
 0002:00009d24       ??_C@_0BE@LJOIGOND@Illegal?5Block?5Size?$CB?$AA@ 00505d24     EngineLib_A:Method.obj
 0002:00009d38       ??_C@_0DA@MAEEOKDM@FileCrypt?5ERROR?3?5Key?5Data?5Length@ 00505d38     EngineLib_A:Method.obj
 0002:00009d68       ??_C@_0CH@OOHEGNGA@FileCrypt?5ERROR?3?5No?5Key?5DataSpec@ 00505d68     EngineLib_A:Method.obj
 0002:00009d90       ??_C@_0CH@EAGOAKEC@FileCrypt?5ERROR?3?5Illegal?5Padding@ 00505d90     EngineLib_A:Method.obj
 0002:00009db8       ??_C@_0CJ@KKHEIPAM@FileCrypt?5ERROR?3?5Illegal?5Operati@ 00505db8     EngineLib_A:Method.obj
 0002:00009de4       ??_C@_0DP@PALFHHIB@FileCrypt?5ERROR?3?5Encryption?1Decr@ 00505de4     EngineLib_A:Method.obj
 0002:00009e24       ??_7IMethod@@6B@           00505e24     EngineLib_A:Method.obj
 0002:00009e40       ?sm_K256@CSHA@@0QBIB       00505e40     EngineLib_A:Sha.obj
 0002:00009f40       ?sm_H256@CSHA@@0QBIB       00505f40     EngineLib_A:Sha.obj
 0002:00009f60       ??_C@_0EA@DFGDLGPN@FileCrypt?5ERROR?3?5in?5CSHA?3?3AddDat@ 00505f60     EngineLib_A:Sha.obj
 0002:00009fa0       ??_C@_0EE@FEPODNFA@FileCrypt?5ERROR?3?5in?5CSHA?3?3FinalD@ 00505fa0     EngineLib_A:Sha.obj
 0002:00009fe4       ??_C@_0DO@IEHHAFPL@CDoubleBuffering?3?5Referenced?5Fil@ 00505fe4     EngineLib_A:DoubleBuffering.obj
 0002:0000a024       ??_C@_0CN@BPMDLJH@CDoubleBuffering?3?5Illegal?5Constr@ 00506024     EngineLib_A:DoubleBuffering.obj
 0002:0000a054       ??_C@_0DB@PDBFNGKD@CDoubleBuffering?3?5m_iSize?5should@ 00506054     EngineLib_A:DoubleBuffering.obj
 0002:0000a088       ??_C@_0CP@ILOJAMHC@CDoubleBuffering?3?3GetData?$CI?$CJ?3?5Ill@ 00506088     EngineLib_A:DoubleBuffering.obj
 0002:0000a0b8       ?VERSION@DxWeatherMan@@2KB 005060b8     EngineLib_A:DxWeatherMan.obj
 0002:0000a0bc       ?VERSION_SAVE@DxWeatherMan@@2KB 005060bc     EngineLib_A:DxWeatherMan.obj
 0002:0000a0c0       ??_7DxWeatherMan@@6B@      005060c0     EngineLib_A:DxWeatherMan.obj
 0002:0000a0dc       __real@3cf5c28f            005060dc     EngineLib_A:DxWeatherMan.obj
 0002:0000a0e0       ??_7DXLIGHT@@6B@           005060e0     EngineLib_A:DxLightMan.obj
 0002:0000a0e8       __real@bc23d70a            005060e8     EngineLib_A:DxLightMan.obj
 0002:0000a0ec       ??_C@_07EINEIMDP@UNNAMED?$AA@ 005060ec     EngineLib_A:DxLightMan.obj
 0002:0000a0f4       __real@3e99999a            005060f4     EngineLib_A:DxLightMan.obj
 0002:0000a0f8       __real@3dcccccd            005060f8     EngineLib_A:DxLightMan.obj
 0002:0000a0fc       __real@3e4ccccd            005060fc     EngineLib_A:DxLightMan.obj
 0002:0000a100       __real@3db851ec            00506100     EngineLib_A:DxLightMan.obj
 0002:0000a104       __real@3a83126f            00506104     EngineLib_A:DxLightMan.obj
 0002:0000a108       __real@3a11a2b4            00506108     EngineLib_A:DxLightMan.obj
 0002:0000a10c       __real@44e10000            0050610c     EngineLib_A:DxLightMan.obj
 0002:0000a110       ??_7DxLightMan@@6B@        00506110     EngineLib_A:DxLightMan.obj
 0002:0000a124       ??_C@_0BE@ILHHNEMI@DIRECTIONAL?9?$FLNIGHT?$FN?$AA@ 00506124     EngineLib_A:DxLightMan.obj
 0002:0000a138       ??_C@_0BD@EDANBFKH@DIRECTIONAL?9?$FLNOON?$FN?$AA@ 00506138     EngineLib_A:DxLightMan.obj
 0002:0000a14c       __real@41200000            0050614c     EngineLib_A:DxLightMan.obj
 0002:0000a150       ?RAIN_TURN_TIME@DxEffectRain@@1MB 00506150     EngineLib_A:DxWeatherManEx.obj
 0002:0000a154       ?RAIN_WIDTH_SCALE@DxEffectRain@@1MB 00506154     EngineLib_A:DxWeatherManEx.obj
 0002:0000a158       ?VERSION@DxEffectRain@@2KB 00506158     EngineLib_A:DxWeatherManEx.obj
 0002:0000a15c       ?VERSION_SAVE@DxEffectRain@@2KB 0050615c     EngineLib_A:DxWeatherManEx.obj
 0002:0000a160       ?FVF@VERTEX@DxEffectRain@@2KB 00506160     EngineLib_A:DxWeatherManEx.obj
 0002:0000a164       ?FVF@CLOUDSHADOW@DxEffectCloud@@2KB 00506164     EngineLib_A:DxWeatherManEx.obj
 0002:0000a168       ?VERSION@DxEffectCloud@@2KB 00506168     EngineLib_A:DxWeatherManEx.obj
 0002:0000a16c       ?VERSION_SAVE@DxEffectCloud@@2KB 0050616c     EngineLib_A:DxWeatherManEx.obj
 0002:0000a170       ??_7DxEffectRain@@6B@      00506170     EngineLib_A:DxWeatherManEx.obj
 0002:0000a174       ??_C@_07JACCJKML@thunder?$AA@ 00506174     EngineLib_A:DxWeatherManEx.obj
 0002:0000a17c       ??_C@_04IFCNJNKN@rain?$AA@ 0050617c     EngineLib_A:DxWeatherManEx.obj
 0002:0000a184       ??_7DxEffectCloud@@6B@     00506184     EngineLib_A:DxWeatherManEx.obj
 0002:0000a188       __real@411ccccd            00506188     EngineLib_A:DxWeatherManEx.obj
 0002:0000a18c       ??_C@_0DF@JGIHFOGI@DxEffectRain?3?3FrameMove?$CI?$CJ?5?9?9?5m_p@ 0050618c     EngineLib_A:DxWeatherManEx.obj
 0002:0000a1c4       __real@3ccccccd            005061c4     EngineLib_A:DxWeatherManEx.obj
 0002:0000a1c8       ??_C@_0N@ECAHKFEC@04000349?4wav?$AA@ 005061c8     EngineLib_A:DxWeatherManEx.obj
 0002:0000a1d8       ??_C@_0N@OKILEDNN@04000328?4wav?$AA@ 005061d8     EngineLib_A:DxWeatherManEx.obj
 0002:0000a1e8       ??_C@_08PELKPNGA@Rain?4dds?$AA@ 005061e8     EngineLib_A:DxWeatherManEx.obj
 0002:0000a1f4       ??_C@_0DN@HDLKPMDF@DxEffectRain?3?3InitDeviceObjects?$CI@ 005061f4     EngineLib_A:DxWeatherManEx.obj
 0002:0000a234       ??_C@_0DN@HEELGBPH@DxEffectRain?3?3InitDeviceObjects?$CI@ 00506234     EngineLib_A:DxWeatherManEx.obj
 0002:0000a278       ??_C@_0ED@FMALEKK@DxEffectRain?3?3InitDeviceObjects?$CI@ 00506278     EngineLib_A:DxWeatherManEx.obj
 0002:0000a2c0       ??_C@_0EE@JNPMFJFK@DxEffectRain?3?3InitDeviceObjects?$CI@ 005062c0     EngineLib_A:DxWeatherManEx.obj
 0002:0000a304       ??_C@_09FIEFCLLG@eff02?4tga?$AA@ 00506304     EngineLib_A:DxWeatherManEx.obj
 0002:0000a310       ?SNOW_TURN_TIME@DxEffectSnow@@1MB 00506310     EngineLib_A:DxWeatherManSnow.obj
 0002:0000a314       ?VERSION@DxEffectSnow@@2KB 00506314     EngineLib_A:DxWeatherManSnow.obj
 0002:0000a318       ?VERSION_SAVE@DxEffectSnow@@2KB 00506318     EngineLib_A:DxWeatherManSnow.obj
 0002:0000a31c       ?LEAVES_TURN_TIME@DxEffectLeaves@@1MB 0050631c     EngineLib_A:DxWeatherManSnow.obj
 0002:0000a320       ?VERSION@DxEffectLeaves@@2KB 00506320     EngineLib_A:DxWeatherManSnow.obj
 0002:0000a324       ?VERSION_SAVE@DxEffectLeaves@@2KB 00506324     EngineLib_A:DxWeatherManSnow.obj
 0002:0000a328       ??_7DxEffectSnow@@6B@      00506328     EngineLib_A:DxWeatherManSnow.obj
 0002:0000a32c       __real@3d088889            0050632c     EngineLib_A:DxWeatherManSnow.obj
 0002:0000a330       ??_7DxEffectLeaves@@6B@    00506330     EngineLib_A:DxWeatherManSnow.obj
 0002:0000a334       __real@3ecccccd            00506334     EngineLib_A:DxSkyMan.obj
 0002:0000a338       ??_7SFileHandle@@6B@       00506338     EngineLib_A:SFileSystem.obj
 0002:0000a33c       ??_7SFileSystem@@6B@       0050633c     EngineLib_A:SFileSystem.obj
 0002:0000a340       ??_C@_02JDPG@rb?$AA@       00506340     EngineLib_A:SFileSystem.obj
 0002:0000a344       ?FILEVERSION@EFF_PROPGROUP@@2KB 00506344     EngineLib_A:DxEffSinglePropGMan.obj
 0002:0000a348       ?FILEVERSION_SAVE@EFF_PROPGROUP@@2KB 00506348     EngineLib_A:DxEffSinglePropGMan.obj
 0002:0000a34c       ?VERSION@EFF_PROPGROUP@@2KB 0050634c     EngineLib_A:DxEffSinglePropGMan.obj
 0002:0000a350       ?VERSION_SAVE@EFF_PROPGROUP@@2KB 00506350     EngineLib_A:DxEffSinglePropGMan.obj
 0002:0000a354       ??_C@_0N@KELDLLBB@AN_REARCAR_D?$AA@ 00506354     EngineLib_A:DxSkinAniMan.obj
 0002:0000a364       ??_C@_0N@OLPCCNNG@AN_REARCAR_C?$AA@ 00506364     EngineLib_A:DxSkinAniMan.obj
 0002:0000a374       ??_C@_0N@PCOJBMJH@AN_REARCAR_B?$AA@ 00506374     EngineLib_A:DxSkinAniMan.obj
 0002:0000a384       ??_C@_0N@NJMEEPFE@AN_REARCAR_A?$AA@ 00506384     EngineLib_A:DxSkinAniMan.obj
 0002:0000a394       ??_C@_08EHDLJIAK@AN_CAR_D?$AA@ 00506394     EngineLib_A:DxSkinAniMan.obj
 0002:0000a3a0       ??_C@_08IHKAOMN@AN_CAR_C?$AA@ 005063a0     EngineLib_A:DxSkinAniMan.obj
 0002:0000a3ac       ??_C@_08BBGBDPIM@AN_CAR_B?$AA@ 005063ac     EngineLib_A:DxSkinAniMan.obj
 0002:0000a3b8       ??_C@_08DKEMGMEP@AN_CAR_A?$AA@ 005063b8     EngineLib_A:DxSkinAniMan.obj
 0002:0000a3c4       ??_C@_0L@IFFEBMH@AN_SKILL_H?$AA@ 005063c4     EngineLib_A:DxSkinAniMan.obj
 0002:0000a3d0       ??_C@_0L@IPMNFNAI@AN_SKILL_G?$AA@ 005063d0     EngineLib_A:DxSkinAniMan.obj
 0002:0000a3dc       ??_C@_0L@JGNGGMEJ@AN_SKILL_F?$AA@ 005063dc     EngineLib_A:DxSkinAniMan.obj
 0002:0000a3e8       ??_C@_09FLGEFGCI@AN_FLIGHT?$AA@ 005063e8     EngineLib_A:DxSkinAniMan.obj
 0002:0000a3f4       ??_C@_0M@IEAHMAJN@AN_BIKE_EV1?$AA@ 005063f4     EngineLib_A:DxSkinAniMan.obj
 0002:0000a400       ??_C@_09DDMFEJAA@AN_BIKE_C?$AA@ 00506400     EngineLib_A:DxSkinAniMan.obj
 0002:0000a40c       ??_C@_09CKNOHIEB@AN_BIKE_B?$AA@ 0050640c     EngineLib_A:DxSkinAniMan.obj
 0002:0000a418       ??_C@_09BPDCLIC@AN_BIKE_A?$AA@ 00506418     EngineLib_A:DxSkinAniMan.obj
 0002:0000a424       ??_C@_0N@IPOFBICL@AN_GATHERING?$AA@ 00506424     EngineLib_A:DxSkinAniMan.obj
 0002:0000a434       ??_C@_0L@LNPLDPIK@AN_SKILL_E?$AA@ 00506434     EngineLib_A:DxSkinAniMan.obj
 0002:0000a440       ??_C@_0L@KEOAAOML@AN_SKILL_D?$AA@ 00506440     EngineLib_A:DxSkinAniMan.obj
 0002:0000a44c       ??_C@_0L@OLKBJIAM@AN_SKILL_C?$AA@ 0050644c     EngineLib_A:DxSkinAniMan.obj
 0002:0000a458       ??_C@_0L@PCLKKJEN@AN_SKILL_B?$AA@ 00506458     EngineLib_A:DxSkinAniMan.obj
 0002:0000a464       ??_C@_07IPLNLPLH@AN_SPEC?$AA@ 00506464     EngineLib_A:DxSkinAniMan.obj
 0002:0000a46c       ??_C@_0O@KJJFOMDO@AN_CONFT_LOSS?$AA@ 0050646c     EngineLib_A:DxSkinAniMan.obj
 0002:0000a47c       ??_C@_0N@KHNJKNJC@AN_CONFT_WIN?$AA@ 0050647c     EngineLib_A:DxSkinAniMan.obj
 0002:0000a48c       ??_C@_0L@FFBONPOA@AN_GUARD_L?$AA@ 0050648c     EngineLib_A:DxSkinAniMan.obj
 0002:0000a498       ??_C@_0N@KLDINMOI@AN_SHOCK_MIX?$AA@ 00506498     EngineLib_A:DxSkinAniMan.obj
 0002:0000a4a8       ??_C@_0L@MCCBANPO@AN_GESTURE?$AA@ 005064a8     EngineLib_A:DxSkinAniMan.obj
 0002:0000a4b4       ??_C@_08FPPMMFIP@AN_SKILL?$AA@ 005064b4     EngineLib_A:DxSkinAniMan.obj
 0002:0000a4c0       ??_C@_07BCDAOCNK@AN_TALK?$AA@ 005064c0     EngineLib_A:DxSkinAniMan.obj
 0002:0000a4c8       ??_C@_09JGPONBLN@AN_CREATE?$AA@ 005064c8     EngineLib_A:DxSkinAniMan.obj
 0002:0000a4d4       ??_C@_06OJMNKPCP@AN_DIE?$AA@ 005064d4     EngineLib_A:DxSkinAniMan.obj
 0002:0000a4dc       ??_C@_08HJCKDBHJ@AN_SHOCK?$AA@ 005064dc     EngineLib_A:DxSkinAniMan.obj
 0002:0000a4e8       ??_C@_09NFCAFMA@AN_ATTACK?$AA@ 005064e8     EngineLib_A:DxSkinAniMan.obj
 0002:0000a4f4       ??_C@_06GKHHCELD@AN_RUN?$AA@ 005064f4     EngineLib_A:DxSkinAniMan.obj
 0002:0000a4fc       ??_C@_07FFJAJIAK@AN_WALK?$AA@ 005064fc     EngineLib_A:DxSkinAniMan.obj
 0002:0000a504       ??_C@_09KLHIFLCM@AN_PLACID?$AA@ 00506504     EngineLib_A:DxSkinAniMan.obj
 0002:0000a510       ??_C@_0L@GHCILNGC@AN_GUARD_N?$AA@ 00506510     EngineLib_A:DxSkinAniMan.obj
 0002:0000a51c       ??_C@_0BG@KMHIDNJC@ANI_VEHICLE_ANIM_NONE?$AA@ 0050651c     EngineLib_A:DxSkinAniMan.obj
 0002:0000a534       ??_C@_0BF@NKPEDPML@ANI_VEHICLE_ANIM_005?$AA@ 00506534     EngineLib_A:DxSkinAniMan.obj
 0002:0000a54c       ??_C@_0BF@MDOPAOIK@ANI_VEHICLE_ANIM_004?$AA@ 0050654c     EngineLib_A:DxSkinAniMan.obj
 0002:0000a564       ??_C@_0BF@IMKOJIEN@ANI_VEHICLE_ANIM_003?$AA@ 00506564     EngineLib_A:DxSkinAniMan.obj
 0002:0000a57c       ??_C@_0BF@JFLFKJAM@ANI_VEHICLE_ANIM_002?$AA@ 0050657c     EngineLib_A:DxSkinAniMan.obj
 0002:0000a594       ??_C@_0BF@LOJIPKMP@ANI_VEHICLE_ANIM_001?$AA@ 00506594     EngineLib_A:DxSkinAniMan.obj
 0002:0000a5ac       ??_C@_0BE@NJIGCHJH@ANI_VEHICLE_SKILL_D?$AA@ 005065ac     EngineLib_A:DxSkinAniMan.obj
 0002:0000a5c0       ??_C@_0BE@JGMHLBFA@ANI_VEHICLE_SKILL_C?$AA@ 005065c0     EngineLib_A:DxSkinAniMan.obj
 0002:0000a5d4       ??_C@_0BE@IPNMIABB@ANI_VEHICLE_SKILL_B?$AA@ 005065d4     EngineLib_A:DxSkinAniMan.obj
 0002:0000a5e8       ??_C@_0BE@KEPBNDNC@ANI_VEHICLE_SKILL_A?$AA@ 005065e8     EngineLib_A:DxSkinAniMan.obj
 0002:0000a5fc       ??_C@_0BD@GMOFOIEP@ANI_VEHICLE_ATTACK?$AA@ 005065fc     EngineLib_A:DxSkinAniMan.obj
 0002:0000a610       ??_C@_0BC@KFDIGNKH@ANI_VEHICLE_SHOCK?$AA@ 00506610     EngineLib_A:DxSkinAniMan.obj
 0002:0000a624       ??_C@_0BB@DLFKKLJB@ANI_VEHICLE_DOWN?$AA@ 00506624     EngineLib_A:DxSkinAniMan.obj
 0002:0000a638       ??_C@_0BA@FKCMLCEK@ANI_VEHICLE_RUN?$AA@ 00506638     EngineLib_A:DxSkinAniMan.obj
 0002:0000a648       ??_C@_0BE@DBLFDNHO@ANI_VEHICLE_BOOSTER?$AA@ 00506648     EngineLib_A:DxSkinAniMan.obj
 0002:0000a65c       ??_C@_0BB@JBMBIJCE@ANI_VEHICLE_WALK?$AA@ 0050665c     EngineLib_A:DxSkinAniMan.obj
 0002:0000a670       ??_C@_0BB@HDKKGLMJ@ANI_VEHICLE_STAY?$AA@ 00506670     EngineLib_A:DxSkinAniMan.obj
 0002:0000a684       ??_C@_0P@GGNJGHCB@ANI_ABL_ATTACK?$AA@ 00506684     EngineLib_A:DxSkinAniMan.obj
 0002:0000a694       ??_C@_0N@FBAHDEON@ANI_ABL_STAY?$AA@ 00506694     EngineLib_A:DxSkinAniMan.obj
 0002:0000a6a4       ??_C@_0BA@NKFKOABP@AN_SUB_UMBRELLA?$AA@ 005066a4     EngineLib_A:DxSkinAniMan.obj
 0002:0000a6b4       ??_C@_0O@LNFEHKCJ@AN_SUB_HAMMER?$AA@ 005066b4     EngineLib_A:DxSkinAniMan.obj
 0002:0000a6c4       ??_C@_0O@NMPPODKC@AN_SUB_SHIELD?$AA@ 005066c4     EngineLib_A:DxSkinAniMan.obj
 0002:0000a6d4       ??_C@_0BB@IIAFHNHI@AN_SUB_MAGICWHIP?$AA@ 005066d4     EngineLib_A:DxSkinAniMan.obj
 0002:0000a6e8       ??_C@_0BB@IEPGMKIN@AN_SUB_MAGICCUBE?$AA@ 005066e8     EngineLib_A:DxSkinAniMan.obj
 0002:0000a6fc       ??_C@_0BB@NOOMPDCC@AN_SUB_MAGICWAND?$AA@ 005066fc     EngineLib_A:DxSkinAniMan.obj
 0002:0000a710       ??_C@_0P@IHEBNPIE@AN_SUB_EX_FIST?$AA@ 00506710     EngineLib_A:DxSkinAniMan.obj
 0002:0000a720       ??_C@_0BB@NOFBPFLK@AN_SUB_SHURIKEN?7?$AA@ 00506720     EngineLib_A:DxSkinAniMan.obj
 0002:0000a734       ??_C@_0BB@GONCFGID@AN_SUB_DUALSPEAR?$AA@ 00506734     EngineLib_A:DxSkinAniMan.obj
 0002:0000a748       ??_C@_0O@CAGPCNIE@AN_SUB_SCYTHE?$AA@ 00506748     EngineLib_A:DxSkinAniMan.obj
 0002:0000a758       ??_C@_0L@POPPBOJE@AN_SUB_GUN?$AA@ 00506758     EngineLib_A:DxSkinAniMan.obj
 0002:0000a764       ??_C@_0P@NCPDEMK@AN_SUB_DUALGUN?$AA@ 00506764     EngineLib_A:DxSkinAniMan.obj
 0002:0000a774       ??_C@_0BC@KPGLINDN@AN_SUB_HOVERBOARD?$AA@ 00506774     EngineLib_A:DxSkinAniMan.obj
 0002:0000a788       ??_C@_0N@ILGCFNPB@AN_SUB_BROOM?$AA@ 00506788     EngineLib_A:DxSkinAniMan.obj
 0002:0000a798       ??_C@_0N@FJIJFFME@AN_SUB_GAUNT?$AA@ 00506798     EngineLib_A:DxSkinAniMan.obj
 0002:0000a7a8       ??_C@_0BD@GHIFLPDJ@AN_SUB_EITHERSABER?$AA@ 005067a8     EngineLib_A:DxSkinAniMan.obj
 0002:0000a7bc       ??_C@_0BA@HELEJGLB@AN_SUB_BIGSABER?$AA@ 005067bc     EngineLib_A:DxSkinAniMan.obj
 0002:0000a7cc       ??_C@_0BA@PBLAMADE@AN_SUB_TWOSABER?$AA@ 005067cc     EngineLib_A:DxSkinAniMan.obj
 0002:0000a7dc       ??_C@_0BA@BIKBGJNG@AN_SUB_ONESABER?$AA@ 005067dc     EngineLib_A:DxSkinAniMan.obj
 0002:0000a7ec       ??_C@_0N@LGIDHIFB@AN_SUB_STICK?$AA@ 005067ec     EngineLib_A:DxSkinAniMan.obj
 0002:0000a7fc       ??_C@_0BB@MEHNCOLP@AN_SUB_BIGHSWORD?$AA@ 005067fc     EngineLib_A:DxSkinAniMan.obj
 0002:0000a810       ??_C@_0M@ILDFAOGO@AN_SUB_MANA?$AA@ 00506810     EngineLib_A:DxSkinAniMan.obj
 0002:0000a81c       ??_C@_0N@GGODEGMN@AN_SUB_THROW?$AA@ 0050681c     EngineLib_A:DxSkinAniMan.obj
 0002:0000a82c       ??_C@_0L@EDJAGBBI@AN_SUB_BOW?$AA@ 0050682c     EngineLib_A:DxSkinAniMan.obj
 0002:0000a838       ??_C@_0N@JBFBBMFP@AN_SUB_SPEAR?$AA@ 00506838     EngineLib_A:DxSkinAniMan.obj
 0002:0000a848       ??_C@_0O@FPPJOIJI@AN_SUB_DAGGER?$AA@ 00506848     EngineLib_A:DxSkinAniMan.obj
 0002:0000a858       ??_C@_0BD@HPLOAFOE@AN_SUB_EITHERSWORD?$AA@ 00506858     EngineLib_A:DxSkinAniMan.obj
 0002:0000a86c       ??_C@_0BB@FJCKFNEG@AN_SUB_TWOHSWORD?$AA@ 0050686c     EngineLib_A:DxSkinAniMan.obj
 0002:0000a880       ??_C@_0BB@BHMHMPLL@AN_SUB_ONEHSWORD?$AA@ 00506880     EngineLib_A:DxSkinAniMan.obj
 0002:0000a894       ??_C@_0M@EICGMGIJ@AN_SUB_NONE?$AA@ 00506894     EngineLib_A:DxSkinAniMan.obj
 0002:0000a8a0       ??_C@_06LIIOANJH@SUB_99?$AA@ 005068a0     EngineLib_A:DxSkinAniMan.obj
 0002:0000a8a8       ??_C@_06KBJFDMNG@SUB_98?$AA@ 005068a8     EngineLib_A:DxSkinAniMan.obj
 0002:0000a8b0       ??_C@_06CGANCABJ@SUB_97?$AA@ 005068b0     EngineLib_A:DxSkinAniMan.obj
 0002:0000a8b8       ??_C@_06DPBGBBFI@SUB_96?$AA@ 005068b8     EngineLib_A:DxSkinAniMan.obj
 0002:0000a8c0       ??_C@_06BEDLECJL@SUB_95?$AA@ 005068c0     EngineLib_A:DxSkinAniMan.obj
 0002:0000a8c8       ??_C@_06NCAHDNK@SUB_94?$AA@ 005068c8     EngineLib_A:DxSkinAniMan.obj
 0002:0000a8d0       ??_C@_06ECGBOFBN@SUB_93?$AA@ 005068d0     EngineLib_A:DxSkinAniMan.obj
 0002:0000a8d8       ??_C@_06FLHKNEFM@SUB_92?$AA@ 005068d8     EngineLib_A:DxSkinAniMan.obj
 0002:0000a8e0       ??_C@_06HAFHIHJP@SUB_91?$AA@ 005068e0     EngineLib_A:DxSkinAniMan.obj
 0002:0000a8e8       ??_C@_06GJEMLGNO@SUB_90?$AA@ 005068e8     EngineLib_A:DxSkinAniMan.obj
 0002:0000a8f0       ??_C@_06LJEMGHKA@SUB_89?$AA@ 005068f0     EngineLib_A:DxSkinAniMan.obj
 0002:0000a8f8       ??_C@_06KAFHFGOB@SUB_88?$AA@ 005068f8     EngineLib_A:DxSkinAniMan.obj
 0002:0000a900       ??_C@_06CHMPEKCO@SUB_87?$AA@ 00506900     EngineLib_A:DxSkinAniMan.obj
 0002:0000a908       ??_C@_06DONEHLGP@SUB_86?$AA@ 00506908     EngineLib_A:DxSkinAniMan.obj
 0002:0000a910       ??_C@_06BFPJCIKM@SUB_85?$AA@ 00506910     EngineLib_A:DxSkinAniMan.obj
 0002:0000a918       ??_C@_06MOCBJON@SUB_84?$AA@ 00506918     EngineLib_A:DxSkinAniMan.obj
 0002:0000a920       ??_C@_06EDKDIPCK@SUB_83?$AA@ 00506920     EngineLib_A:DxSkinAniMan.obj
 0002:0000a928       ??_C@_06FKLILOGL@SUB_82?$AA@ 00506928     EngineLib_A:DxSkinAniMan.obj
 0002:0000a930       ??_C@_06HBJFONKI@SUB_81?$AA@ 00506930     EngineLib_A:DxSkinAniMan.obj
 0002:0000a938       ??_C@_06GIIONMOJ@SUB_80?$AA@ 00506938     EngineLib_A:DxSkinAniMan.obj
 0002:0000a940       ??_C@_06LCBACAJN@SUB_79?$AA@ 00506940     EngineLib_A:DxSkinAniMan.obj
 0002:0000a948       ??_C@_06KLALBBNM@SUB_78?$AA@ 00506948     EngineLib_A:DxSkinAniMan.obj
 0002:0000a950       ??_C@_06CMJDANBD@SUB_77?$AA@ 00506950     EngineLib_A:DxSkinAniMan.obj
 0002:0000a958       ??_C@_06DFIIDMFC@SUB_76?$AA@ 00506958     EngineLib_A:DxSkinAniMan.obj
 0002:0000a960       ??_C@_06BOKFGPJB@SUB_75?$AA@ 00506960     EngineLib_A:DxSkinAniMan.obj
 0002:0000a968       ??_C@_06HLOFONA@SUB_74?$AA@ 00506968     EngineLib_A:DxSkinAniMan.obj
 0002:0000a970       ??_C@_06EIPPMIBH@SUB_73?$AA@ 00506970     EngineLib_A:DxSkinAniMan.obj
 0002:0000a978       ??_C@_06FBOEPJFG@SUB_72?$AA@ 00506978     EngineLib_A:DxSkinAniMan.obj
 0002:0000a980       ??_C@_06HKMJKKJF@SUB_71?$AA@ 00506980     EngineLib_A:DxSkinAniMan.obj
 0002:0000a988       ??_C@_06GDNCJLNE@SUB_70?$AA@ 00506988     EngineLib_A:DxSkinAniMan.obj
 0002:0000a990       ??_C@_06LDNCEKKK@SUB_69?$AA@ 00506990     EngineLib_A:DxSkinAniMan.obj
 0002:0000a998       ??_C@_06KKMJHLOL@SUB_68?$AA@ 00506998     EngineLib_A:DxSkinAniMan.obj
 0002:0000a9a0       ??_C@_06CNFBGHCE@SUB_67?$AA@ 005069a0     EngineLib_A:DxSkinAniMan.obj
 0002:0000a9a8       ??_C@_06DEEKFGGF@SUB_66?$AA@ 005069a8     EngineLib_A:DxSkinAniMan.obj
 0002:0000a9b0       ??_C@_06BPGHAFKG@SUB_65?$AA@ 005069b0     EngineLib_A:DxSkinAniMan.obj
 0002:0000a9b8       ??_C@_06GHMDEOH@SUB_64?$AA@ 005069b8     EngineLib_A:DxSkinAniMan.obj
 0002:0000a9c0       ??_C@_06EJDNKCCA@SUB_63?$AA@ 005069c0     EngineLib_A:DxSkinAniMan.obj
 0002:0000a9c8       ??_C@_06FACGJDGB@SUB_62?$AA@ 005069c8     EngineLib_A:DxSkinAniMan.obj
 0002:0000a9d0       ??_C@_06HLALMAKC@SUB_61?$AA@ 005069d0     EngineLib_A:DxSkinAniMan.obj
 0002:0000a9d8       ??_C@_06GCBAPBOD@SUB_60?$AA@ 005069d8     EngineLib_A:DxSkinAniMan.obj
 0002:0000a9e0       ??_C@_06LBJEPEPD@SUB_59?$AA@ 005069e0     EngineLib_A:DxSkinAniMan.obj
 0002:0000a9e8       ??_C@_06KIIPMFLC@SUB_58?$AA@ 005069e8     EngineLib_A:DxSkinAniMan.obj
 0002:0000a9f0       ??_C@_06CPBHNJHN@SUB_57?$AA@ 005069f0     EngineLib_A:DxSkinAniMan.obj
 0002:0000a9f8       ??_C@_06DGAMOIDM@SUB_56?$AA@ 005069f8     EngineLib_A:DxSkinAniMan.obj
 0002:0000aa00       ??_C@_06BNCBLLPP@SUB_55?$AA@ 00506a00     EngineLib_A:DxSkinAniMan.obj
 0002:0000aa08       ??_C@_06EDKIKLO@SUB_54?$AA@ 00506a08     EngineLib_A:DxSkinAniMan.obj
 0002:0000aa10       ??_C@_06ELHLBMHJ@SUB_53?$AA@ 00506a10     EngineLib_A:DxSkinAniMan.obj
 0002:0000aa18       ??_C@_06FCGACNDI@SUB_52?$AA@ 00506a18     EngineLib_A:DxSkinAniMan.obj
 0002:0000aa20       ??_C@_06HJENHOPL@SUB_51?$AA@ 00506a20     EngineLib_A:DxSkinAniMan.obj
 0002:0000aa28       ??_C@_06GAFGEPLK@SUB_50?$AA@ 00506a28     EngineLib_A:DxSkinAniMan.obj
 0002:0000aa30       ??_C@_06LAFGJOME@SUB_49?$AA@ 00506a30     EngineLib_A:DxSkinAniMan.obj
 0002:0000aa38       ??_C@_06KJENKPIF@SUB_48?$AA@ 00506a38     EngineLib_A:DxSkinAniMan.obj
 0002:0000aa40       ??_C@_06CONFLDEK@SUB_47?$AA@ 00506a40     EngineLib_A:DxSkinAniMan.obj
 0002:0000aa48       ??_C@_06DHMOICAL@SUB_46?$AA@ 00506a48     EngineLib_A:DxSkinAniMan.obj
 0002:0000aa50       ??_C@_06BMODNBMI@SUB_45?$AA@ 00506a50     EngineLib_A:DxSkinAniMan.obj
 0002:0000aa58       ??_C@_06FPIOAIJ@SUB_44?$AA@ 00506a58     EngineLib_A:DxSkinAniMan.obj
 0002:0000aa60       ??_C@_06EKLJHGEO@SUB_43?$AA@ 00506a60     EngineLib_A:DxSkinAniMan.obj
 0002:0000aa68       ??_C@_06FDKCEHAP@SUB_42?$AA@ 00506a68     EngineLib_A:DxSkinAniMan.obj
 0002:0000aa70       ??_C@_06HIIPBEMM@SUB_41?$AA@ 00506a70     EngineLib_A:DxSkinAniMan.obj
 0002:0000aa78       ??_C@_06GBJECFIN@SUB_40?$AA@ 00506a78     EngineLib_A:DxSkinAniMan.obj
 0002:0000aa80       ??_C@_06LFBJIIEB@SUB_39?$AA@ 00506a80     EngineLib_A:DxSkinAniMan.obj
 0002:0000aa88       ??_C@_06KMACLJAA@SUB_38?$AA@ 00506a88     EngineLib_A:DxSkinAniMan.obj
 0002:0000aa90       ??_C@_06CLJKKFMP@SUB_37?$AA@ 00506a90     EngineLib_A:DxSkinAniMan.obj
 0002:0000aa98       ??_C@_06DCIBJEIO@SUB_36?$AA@ 00506a98     EngineLib_A:DxSkinAniMan.obj
 0002:0000aaa0       ??_C@_06BJKMMHEN@SUB_35?$AA@ 00506aa0     EngineLib_A:DxSkinAniMan.obj
 0002:0000aaa8       ??_C@_06LHPGAM@SUB_34?$AA@ 00506aa8     EngineLib_A:DxSkinAniMan.obj
 0002:0000aab0       ??_C@_06EPPGGAML@SUB_33?$AA@ 00506ab0     EngineLib_A:DxSkinAniMan.obj
 0002:0000aab8       ??_C@_06FGONFBIK@SUB_32?$AA@ 00506ab8     EngineLib_A:DxSkinAniMan.obj
 0002:0000aac0       ??_C@_06HNMAACEJ@SUB_31?$AA@ 00506ac0     EngineLib_A:DxSkinAniMan.obj
 0002:0000aac8       ??_C@_06GENLDDAI@SUB_30?$AA@ 00506ac8     EngineLib_A:DxSkinAniMan.obj
 0002:0000aad0       ??_C@_06LENLOCHG@SUB_29?$AA@ 00506ad0     EngineLib_A:DxSkinAniMan.obj
 0002:0000aad8       ??_C@_06KNMANDDH@SUB_28?$AA@ 00506ad8     EngineLib_A:DxSkinAniMan.obj
 0002:0000aae0       ??_C@_06CKFIMPPI@SUB_27?$AA@ 00506ae0     EngineLib_A:DxSkinAniMan.obj
 0002:0000aae8       ??_C@_06DDEDPOLJ@SUB_26?$AA@ 00506ae8     EngineLib_A:DxSkinAniMan.obj
 0002:0000aaf0       ??_C@_06BIGOKNHK@SUB_25?$AA@ 00506af0     EngineLib_A:DxSkinAniMan.obj
 0002:0000aaf8       ??_C@_06BHFJMDL@SUB_24?$AA@ 00506af8     EngineLib_A:DxSkinAniMan.obj
 0002:0000ab00       ??_C@_06EODEAKPM@SUB_23?$AA@ 00506b00     EngineLib_A:DxSkinAniMan.obj
 0002:0000ab08       ??_C@_06FHCPDLLN@SUB_22?$AA@ 00506b08     EngineLib_A:DxSkinAniMan.obj
 0002:0000ab10       ??_C@_06HMACGIHO@SUB_21?$AA@ 00506b10     EngineLib_A:DxSkinAniMan.obj
 0002:0000ab18       ??_C@_06GFBJFJDP@SUB_20?$AA@ 00506b18     EngineLib_A:DxSkinAniMan.obj
 0002:0000ab20       ??_C@_06LGJNFMCP@SUB_19?$AA@ 00506b20     EngineLib_A:DxSkinAniMan.obj
 0002:0000ab28       ??_C@_06KPIGGNGO@SUB_18?$AA@ 00506b28     EngineLib_A:DxSkinAniMan.obj
 0002:0000ab30       ??_C@_06CIBOHBKB@SUB_17?$AA@ 00506b30     EngineLib_A:DxSkinAniMan.obj
 0002:0000ab38       ??_C@_06DBAFEAOA@SUB_16?$AA@ 00506b38     EngineLib_A:DxSkinAniMan.obj
 0002:0000ab40       ??_C@_06BKCIBDCD@SUB_15?$AA@ 00506b40     EngineLib_A:DxSkinAniMan.obj
 0002:0000ab48       ??_C@_06DDDCCGC@SUB_14?$AA@ 00506b48     EngineLib_A:DxSkinAniMan.obj
 0002:0000ab50       ??_C@_06EMHCLEKF@SUB_13?$AA@ 00506b50     EngineLib_A:DxSkinAniMan.obj
 0002:0000ab58       ??_C@_06FFGJIFOE@SUB_12?$AA@ 00506b58     EngineLib_A:DxSkinAniMan.obj
 0002:0000ab60       ??_C@_06HOEENGCH@SUB_11?$AA@ 00506b60     EngineLib_A:DxSkinAniMan.obj
 0002:0000ab68       ??_C@_06GHFPOHGG@SUB_10?$AA@ 00506b68     EngineLib_A:DxSkinAniMan.obj
 0002:0000ab70       ??_C@_06LHFPDGBI@SUB_09?$AA@ 00506b70     EngineLib_A:DxSkinAniMan.obj
 0002:0000ab78       ??_C@_06KOEEAHFJ@SUB_08?$AA@ 00506b78     EngineLib_A:DxSkinAniMan.obj
 0002:0000ab80       ??_C@_06CJNMBLJG@SUB_07?$AA@ 00506b80     EngineLib_A:DxSkinAniMan.obj
 0002:0000ab88       ??_C@_06DAMHCKNH@SUB_06?$AA@ 00506b88     EngineLib_A:DxSkinAniMan.obj
 0002:0000ab90       ??_C@_06BLOKHJBE@SUB_05?$AA@ 00506b90     EngineLib_A:DxSkinAniMan.obj
 0002:0000ab98       ??_C@_06CPBEIFF@SUB_04?$AA@ 00506b98     EngineLib_A:DxSkinAniMan.obj
 0002:0000aba0       ??_C@_06ENLANOJC@SUB_03?$AA@ 00506ba0     EngineLib_A:DxSkinAniMan.obj
 0002:0000aba8       ??_C@_06FEKLOPND@SUB_02?$AA@ 00506ba8     EngineLib_A:DxSkinAniMan.obj
 0002:0000abb0       ??_C@_06HPIGLMBA@SUB_01?$AA@ 00506bb0     EngineLib_A:DxSkinAniMan.obj
 0002:0000abb8       ??_C@_06GGJNINFB@SUB_00?$AA@ 00506bb8     EngineLib_A:DxSkinAniMan.obj
 0002:0000abc0       ??_C@_0P@GOIDLJDA@PassengerDeath?$AA@ 00506bc0     EngineLib_A:DxSkinAniMan.obj
 0002:0000abd0       ??_C@_0P@PBINHOGH@PassengerBoost?$AA@ 00506bd0     EngineLib_A:DxSkinAniMan.obj
 0002:0000abe0       ??_C@_0N@LOKHKGPG@PassengerRun?$AA@ 00506be0     EngineLib_A:DxSkinAniMan.obj
 0002:0000abf0       ??_C@_0O@MGHGNJDF@PassengerWalk?$AA@ 00506bf0     EngineLib_A:DxSkinAniMan.obj
 0002:0000ac00       ??_C@_0P@JANEFMIL@PassengerStand?$AA@ 00506c00     EngineLib_A:DxSkinAniMan.obj
 0002:0000ac10       ??_C@_0P@FKFCHBDC@PassengerBoard?$AA@ 00506c10     EngineLib_A:DxSkinAniMan.obj
 0002:0000ac20       ??_C@_0M@OEOLKFBH@DriverDeath?$AA@ 00506c20     EngineLib_A:DxSkinAniMan.obj
 0002:0000ac2c       ??_C@_0M@HLOFGCEA@DriverBoost?$AA@ 00506c2c     EngineLib_A:DxSkinAniMan.obj
 0002:0000ac38       ??_C@_09GAGIDHM@DriverRun?$AA@ 00506c38     EngineLib_A:DxSkinAniMan.obj
 0002:0000ac44       ??_C@_0L@MLKDBCCO@DriverWalk?$AA@ 00506c44     EngineLib_A:DxSkinAniMan.obj
 0002:0000ac50       ??_C@_0M@BKLMEAKM@DriverStand?$AA@ 00506c50     EngineLib_A:DxSkinAniMan.obj
 0002:0000ac5c       ??_C@_0M@NADKGNBF@DriverBoard?$AA@ 00506c5c     EngineLib_A:DxSkinAniMan.obj
 0002:0000ac68       ??_C@_06JNJLBPLI@TARGET?$AA@ 00506c68     EngineLib_A:DxSkinAniMan.obj
 0002:0000ac70       ??_C@_08JEFACMFE@SELFBODY?$AA@ 00506c70     EngineLib_A:DxSkinAniMan.obj
 0002:0000ac7c       ??_C@_04HIBGFPH@NULL?$AA@  00506c7c     EngineLib_A:DxSkinAniMan.obj
 0002:0000ac84       ?dwNumSphereVertex@EDITMESHS@@3KB 00506c84     EngineLib_A:EditMeshs.obj
 0002:0000ac88       ?dwNumSphereFaces@EDITMESHS@@3KB 00506c88     EngineLib_A:EditMeshs.obj
 0002:0000ac8c       ??_7DxViewPort@@6B@        00506c8c     EngineLib_A:DxViewPort.obj
 0002:0000acbc       __real@bfc8ef16            00506cbc     EngineLib_A:DxViewPort.obj
 0002:0000acc4       __real@40400000            00506cc4     EngineLib_A:DxViewPort.obj
 0002:0000acc8       __real@3fc90fdb            00506cc8     EngineLib_A:DxViewPort.obj
 0002:0000accc       ??_C@_04OODPLKPE@?4mtf?$AA@ 00506ccc     EngineLib_A:TextureManager.obj
 0002:0000acd4       ??_C@_0DB@KDMBHFOF@?$LO?P?C?$OA?G?X?A?V?$LM?$LM?$LP?d?5?$HM?$HM?5Format?5?3?5etc?4?4?4?5@ 00506cd4     EngineLib_A:TextureManager.obj
 0002:0000ad08       ??_C@_0DJ@LLPBLPJG@DXT1?0?5DXT5?5?A?$KE?G?X?A?V?$LM?$LM?$LP?d?4?5?$HM?$HM?5Format@ 00506d08     EngineLib_A:TextureManager.obj
 0002:0000ad44       ??_C@_0DJ@CGCNLEIF@DXT1?0?5DXT5?5?A?$KE?G?X?A?V?$LM?$LM?$LP?d?4?5?$HM?$HM?5Format@ 00506d44     EngineLib_A:TextureManager.obj
 0002:0000ad80       ??_C@_0DJ@PBMPDENN@DXT1?0?5DXT5?5?A?$KE?G?X?A?V?$LM?$LM?$LP?d?4?5?$HM?$HM?5Format@ 00506d80     EngineLib_A:TextureManager.obj
 0002:0000adbc       ??_C@_0DB@FIKFDJKM@?$LO?P?C?$OA?G?X?A?V?$LM?$LM?$LP?d?5?$HM?$HM?5Format?5?3?5R3G3B2?5@ 00506dbc     EngineLib_A:TextureManager.obj
 0002:0000adf0       ??_C@_0DB@HCHCEHLI@?$LO?P?C?$OA?G?X?A?V?$LM?$LM?$LP?d?5?$HM?$HM?5Format?5?3?5R5G6B5?5@ 00506df0     EngineLib_A:TextureManager.obj
 0002:0000ae24       ??_C@_0DB@NAANDFG@?$LO?P?C?$OA?G?X?A?V?$LM?$LM?$LP?d?5?$HM?$HM?5Format?5?3?5R8G8B8?5@ 00506e24     EngineLib_A:TextureManager.obj
 0002:0000ae58       ??_C@_0DD@GIEONNNA@?$LO?P?C?$OA?G?X?A?V?$LM?$LM?$LP?d?5?$HM?$HM?5Format?5?3?5X4R4G4B@ 00506e58     EngineLib_A:TextureManager.obj
 0002:0000ae8c       ??_C@_0DD@OFDDOODH@?$LO?P?C?$OA?G?X?A?V?$LM?$LM?$LP?d?5?$HM?$HM?5Format?5?3?5X1R5G5B@ 00506e8c     EngineLib_A:TextureManager.obj
 0002:0000aec0       ??_C@_0DD@GINPPLID@?$LO?P?C?$OA?G?X?A?V?$LM?$LM?$LP?d?5?$HM?$HM?5Format?5?3?5X8R8G8B@ 00506ec0     EngineLib_A:TextureManager.obj
 0002:0000aef4       ??_C@_0CN@OOKOPLGF@?$LO?P?C?$OA?G?X?A?V?$LM?$LM?$LP?d?5?$HM?$HM?5Format?5?3?5A8?5?$HM?$HM?5?F@ 00506ef4     EngineLib_A:TextureManager.obj
 0002:0000af24       ??_C@_0DD@CFBMMBCK@?$LO?P?C?$OA?G?X?A?V?$LM?$LM?$LP?d?5?$HM?$HM?5Format?5?3?5A8R3G3B@ 00506f24     EngineLib_A:TextureManager.obj
 0002:0000af58       ??_C@_0DD@HACIANID@?$LO?P?C?$OA?G?X?A?V?$LM?$LM?$LP?d?5?$HM?$HM?5Format?5?3?5A4R4G4B@ 00506f58     EngineLib_A:TextureManager.obj
 0002:0000af8c       ??_C@_0DD@PNFFDOGE@?$LO?P?C?$OA?G?X?A?V?$LM?$LM?$LP?d?5?$HM?$HM?5Format?5?3?5A1R5G5B@ 00506f8c     EngineLib_A:TextureManager.obj
 0002:0000afc0       ??_C@_0DD@HALJCLNA@?$LO?P?C?$OA?G?X?A?V?$LM?$LM?$LP?d?5?$HM?$HM?5Format?5?3?5A8R8G8B@ 00506fc0     EngineLib_A:TextureManager.obj
 0002:0000aff4       ??_C@_04CMOMPIEM@_a2?4?$AA@ 00506ff4     EngineLib_A:TextureManager.obj
 0002:0000affc       ??_C@_04COKKEGBF@_a1?4?$AA@ 00506ffc     EngineLib_A:TextureManager.obj
 0002:0000b004       ??_C@_03PMHJHCM@_a?4?$AA@  00507004     EngineLib_A:TextureManager.obj
 0002:0000b008       ??_C@_0CB@JNLOFDBI@release?5texture?5?$CILoading?$CJ?5?3?5?$DM?$CFs?$DO@ 00507008     EngineLib_A:TextureManager.obj
 0002:0000b02c       ??_C@_0CC@HMMEGHAB@release?5texture?5?$CIComplete?$CJ?5?3?5?$DM?$CFs@ 0050702c     EngineLib_A:TextureManager.obj
 0002:0000b050       ??_C@_0CN@PJNAJEBP@ERROR?5?3?5TextureManager?3?3LoadText@ 00507050     EngineLib_A:TextureManager.obj
 0002:0000b080       ?VERTEXNUM@DxSkyBase@@0IB  00507080     EngineLib_A:DxSkyBase.obj
 0002:0000b084       ?FACESNUM@DxSkyBase@@0IB   00507084     EngineLib_A:DxSkyBase.obj
 0002:0000b088       ?SKY_NUM@DxSkyBaseMan@@0KB 00507088     EngineLib_A:DxSkyBase.obj
 0002:0000b08c       ?CLOUD_NUM@DxSkyCloudMan@@0KB 0050708c     EngineLib_A:DxSkyCloud.obj
 0002:0000b090       ?FVF@VERTEX@DxGlowMan@@2KB 00507090     EngineLib_A:DxGlowMan.obj
 0002:0000b094       ?FVF@VERTEXCOLOR@DxGlowMan@@2KB 00507094     EngineLib_A:DxGlowMan.obj
 0002:0000b098       ?FVF@VERTEX@DxSurfaceTex@@2KB 00507098     EngineLib_A:DxSurfaceTex.obj
 0002:0000b09c       ?POINTSHADOWVERTEX@DxSurfaceTex@@1KB 0050709c     EngineLib_A:DxSurfaceTex.obj
 0002:0000b0a0       ?POINTSHADOWFACES@DxSurfaceTex@@1KB 005070a0     EngineLib_A:DxSurfaceTex.obj
 0002:0000b0a4       ?EYE_TO_LOOKAT@DxSurfaceTex@@1MB 005070a4     EngineLib_A:DxSurfaceTex.obj
 0002:0000b0a8       ??_C@_0BH@GINGALHL@EMNT_SPEC_AMBIENT_FLOW?$AA@ 005070a8     EngineLib_A:DxSkinMeshMan.obj
 0002:0000b0c0       ??_C@_0BJ@BJABDJAO@EMNT_SPEC_AMBIENT_ILLUMI?$AA@ 005070c0     EngineLib_A:DxSkinMeshMan.obj
 0002:0000b0dc       ??_C@_0BB@DOOIOLHN@EMNT_SPEC_ILLUMI?$AA@ 005070dc     EngineLib_A:DxSkinMeshMan.obj
 0002:0000b0f0       ??_C@_0BC@NKCOEIKC@EMNT_SPEC_AMBIENT?$AA@ 005070f0     EngineLib_A:DxSkinMeshMan.obj
 0002:0000b104       ??_C@_09NFCDFDGG@EMNT_FLOW?$AA@ 00507104     EngineLib_A:DxSkinMeshMan.obj
 0002:0000b110       ??_C@_0N@LIEOGAKH@EMNT_AMBIENT?$AA@ 00507110     EngineLib_A:DxSkinMeshMan.obj
 0002:0000b120       ??_C@_0M@IDNNDBCB@EMNT_ILLUMI?$AA@ 00507120     EngineLib_A:DxSkinMeshMan.obj
 0002:0000b12c       ??_C@_0N@CCDMEGDN@EMNT_REFLECT?$AA@ 0050712c     EngineLib_A:DxSkinMeshMan.obj
 0002:0000b13c       ??_C@_09EENFPBDA@EMNT_SPEC?$AA@ 0050713c     EngineLib_A:DxSkinMeshMan.obj
 0002:0000b148       ??_C@_09LPABAHLM@EMNT_BASE?$AA@ 00507148     EngineLib_A:DxSkinMeshMan.obj
 0002:0000b154       ?VERSION@DXLANDSKINOBJ@@2KB 00507154     EngineLib_A:DXLANDSKINOBJ.obj
 0002:0000b158       ?VERSION_SAVE@DXLANDSKINOBJ@@2KB 00507158     EngineLib_A:DXLANDSKINOBJ.obj
 0002:0000b15c       ?FVF@SHADOWTEX2@@2KB       0050715c     EngineLib_A:DxMethods.obj
 0002:0000b160       ?FVF@D3DWAVETEX@DxEnvironment@@2KB 00507160     EngineLib_A:DxEnvironment.obj
 0002:0000b164       ?FVF@VERTEX@DxEnvironment@@2KB 00507164     EngineLib_A:DxEnvironment.obj
 0002:0000b168       ?FVF@POS_DIFF_TEX1@DxEnvironment@@2KB 00507168     EngineLib_A:DxEnvironment.obj
 0002:0000b16c       ?FVF@VERTEX_POS_TEX1@DxEnvironment@@2KB 0050716c     EngineLib_A:DxEnvironment.obj
 0002:0000b170       __real@ba83126f            00507170     EngineLib_A:Collision.obj
 0002:0000b174       __real@3eaaaaab            00507174     EngineLib_A:Collision.obj
 0002:0000b178       ?VERSION@DxStaticMesh@@1KB 00507178     EngineLib_A:DxStaticMesh.obj
 0002:0000b17c       ?VERSION_SAVE@DxStaticMesh@@1KB 0050717c     EngineLib_A:DxStaticMesh.obj
 0002:0000b180       ?VERSION_PSF@DxPieceManager@@0KB 00507180     EngineLib_A:DxPieceManager.obj
 0002:0000b184       ?VERSION_WLD@DxPieceManager@@0KB 00507184     EngineLib_A:DxPieceManager.obj
 0002:0000b188       ?VERSION_PSF_SAVE@DxPieceManager@@0KB 00507188     EngineLib_A:DxPieceManager.obj
 0002:0000b18c       ?VERSION_WLD_SAVE@DxPieceManager@@0KB 0050718c     EngineLib_A:DxPieceManager.obj
 0002:0000b190       ?VERSION@DxCameraAni@@2KB  00507190     EngineLib_A:DxCamAniMan.obj
 0002:0000b194       ?VERSION_SAVE@DxCameraAni@@2KB 00507194     EngineLib_A:DxCamAniMan.obj
 0002:0000b598       ?VERSION@DxSkinPiece@@2KB  00507598     EngineLib_A:DxSkinPieceContainer.obj
 0002:0000b59c       ?VERSION_SAVE@DxSkinPiece@@2KB 0050759c     EngineLib_A:DxSkinPieceContainer.obj
 0002:0000b5a0       ?m_szPIECETYPE@DxSkinPiece@@2QAY0EA@$$CBDA 005075a0     EngineLib_A:DxSkinPieceContainer.obj
 0002:0000bce0       ??_7DxSkinPieceContainer@@6B@ 00507ce0     EngineLib_A:DxSkinPieceContainer.obj
 0002:0000bce4       ?VERSION@CAMERA_PROPERTY@@2KB 00507ce4     EngineLib_A:DxEffectCamera.obj
 0002:0000bce8       ?VERSION_SAVE@CAMERA_PROPERTY@@2KB 00507ce8     EngineLib_A:DxEffectCamera.obj
 0002:0000bcec       ?NAME@CAMERA_PROPERTY@@2QBDB 00507cec     EngineLib_A:DxEffectCamera.obj
 0002:0000bcfc       ?TYPEID@DxEffectCamera@@2KB 00507cfc     EngineLib_A:DxEffectCamera.obj
 0002:0000bd00       ?FLAG@DxEffectCamera@@2KB  00507d00     EngineLib_A:DxEffectCamera.obj
 0002:0000bd04       ?NAME@DxEffectCamera@@2QBDB 00507d04     EngineLib_A:DxEffectCamera.obj
 0002:0000bd14       ?VERSION@SKINMESH_PROPERTY@@2KB 00507d14     EngineLib_A:DxEffectSkinMesh.obj
 0002:0000bd18       ?VERSION_SAVE@SKINMESH_PROPERTY@@2KB 00507d18     EngineLib_A:DxEffectSkinMesh.obj
 0002:0000bd1c       ?NAME@SKINMESH_PROPERTY@@2QBDB 00507d1c     EngineLib_A:DxEffectSkinMesh.obj
 0002:0000bd30       ?TYPEID@DxEffectSkinMesh@@2KB 00507d30     EngineLib_A:DxEffectSkinMesh.obj
 0002:0000bd34       ?FLAG@DxEffectSkinMesh@@2KB 00507d34     EngineLib_A:DxEffectSkinMesh.obj
 0002:0000bd38       ?NAME@DxEffectSkinMesh@@2QBDB 00507d38     EngineLib_A:DxEffectSkinMesh.obj
 0002:0000c150       ?VERSION@PARTICLESYS_PROPERTY@@2KB 00508150     EngineLib_A:DxEffectParticleSysPROP.obj
 0002:0000c154       ?VERSION_SAVE@PARTICLESYS_PROPERTY@@2KB 00508154     EngineLib_A:DxEffectParticleSysPROP.obj
 0002:0000c158       ?NAME@PARTICLESYS_PROPERTY@@2QBDB 00508158     EngineLib_A:DxEffectParticleSysPROP.obj
 0002:0000c170       ?VERSION@GROUND_PROPERTY@@2KB 00508170     EngineLib_A:DxEffectGround.obj
 0002:0000c174       ?VERSION_SAVE@GROUND_PROPERTY@@2KB 00508174     EngineLib_A:DxEffectGround.obj
 0002:0000c178       ?NAME@GROUND_PROPERTY@@2QBDB 00508178     EngineLib_A:DxEffectGround.obj
 0002:0000c188       ?TYPEID@DxEffectGround@@2KB 00508188     EngineLib_A:DxEffectGround.obj
 0002:0000c18c       ?FLAG@DxEffectGround@@2KB  0050818c     EngineLib_A:DxEffectGround.obj
 0002:0000c190       ?NAME@DxEffectGround@@2QBDB 00508190     EngineLib_A:DxEffectGround.obj
 0002:0000c1a0       ?VERSION@MESH_PROPERTY@@2KB 005081a0     EngineLib_A:DxEffectMeshPROP.obj
 0002:0000c1a4       ?VERSION_SAVE@MESH_PROPERTY@@2KB 005081a4     EngineLib_A:DxEffectMeshPROP.obj
 0002:0000c1a8       ?NAME@MESH_PROPERTY@@2QBDB 005081a8     EngineLib_A:DxEffectMeshPROP.obj
 0002:0000c1b8       ?VERSION@SEQUENCE_PROPERTY@@2KB 005081b8     EngineLib_A:DxEffectSequence.obj
 0002:0000c1bc       ?VERSION_SAVE@SEQUENCE_PROPERTY@@2KB 005081bc     EngineLib_A:DxEffectSequence.obj
 0002:0000c1c0       ?NAME@SEQUENCE_PROPERTY@@2QBDB 005081c0     EngineLib_A:DxEffectSequence.obj
 0002:0000c1d4       ?TYPEID@DxEffectSequence@@2KB 005081d4     EngineLib_A:DxEffectSequence.obj
 0002:0000c1d8       ?FLAG@DxEffectSequence@@2KB 005081d8     EngineLib_A:DxEffectSequence.obj
 0002:0000c1dc       ?NAME@DxEffectSequence@@2QBDB 005081dc     EngineLib_A:DxEffectSequence.obj
 0002:0000c1f0       ?VERSION@DECAL_PROPERTY@@2KB 005081f0     EngineLib_A:DxEffectDecal.obj
 0002:0000c1f4       ?VERSION_SAVE@DECAL_PROPERTY@@2KB 005081f4     EngineLib_A:DxEffectDecal.obj
 0002:0000c1f8       ?NAME@DECAL_PROPERTY@@2QBDB 005081f8     EngineLib_A:DxEffectDecal.obj
 0002:0000c208       ?TYPEID@DxEffectDecal@@2KB 00508208     EngineLib_A:DxEffectDecal.obj
 0002:0000c20c       ?FLAG@DxEffectDecal@@2KB   0050820c     EngineLib_A:DxEffectDecal.obj
 0002:0000c210       ?NAME@DxEffectDecal@@2QBDB 00508210     EngineLib_A:DxEffectDecal.obj
 0002:0000c220       ?FVF@D3DDECALVERTEX@DxEffectDecal@@2KB 00508220     EngineLib_A:DxEffectDecal.obj
 0002:0000c224       ?MAX_VERTICES@DxEffectDecal@@1KB 00508224     EngineLib_A:DxEffectDecal.obj
 0002:0000c228       ?VERSION@BLURSYS_PROPERTY@@2KB 00508228     EngineLib_A:DxEffectBlurSys.obj
 0002:0000c22c       ?VERSION_SAVE@BLURSYS_PROPERTY@@2KB 0050822c     EngineLib_A:DxEffectBlurSys.obj
 0002:0000c230       ?NAME@BLURSYS_PROPERTY@@2QBDB 00508230     EngineLib_A:DxEffectBlurSys.obj
 0002:0000c244       ?TYPEID@DxEffectBlurSys@@2KB 00508244     EngineLib_A:DxEffectBlurSys.obj
 0002:0000c248       ?FLAG@DxEffectBlurSys@@2KB 00508248     EngineLib_A:DxEffectBlurSys.obj
 0002:0000c24c       ?NAME@DxEffectBlurSys@@2QBDB 0050824c     EngineLib_A:DxEffectBlurSys.obj
 0002:0000c25c       ?VERSION@LIGHTNING_PROPERTY@@2KB 0050825c     EngineLib_A:DxEffectLighting.obj
 0002:0000c260       ?VERSION_SAVE@LIGHTNING_PROPERTY@@2KB 00508260     EngineLib_A:DxEffectLighting.obj
 0002:0000c264       ?NAME@LIGHTNING_PROPERTY@@2QBDB 00508264     EngineLib_A:DxEffectLighting.obj
 0002:0000c278       ?TYPEID@DxEffectLightning@@2KB 00508278     EngineLib_A:DxEffectLighting.obj
 0002:0000c27c       ?FLAG@DxEffectLightning@@2KB 0050827c     EngineLib_A:DxEffectLighting.obj
 0002:0000c280       ?NAME@DxEffectLightning@@2QBDB 00508280     EngineLib_A:DxEffectLighting.obj
 0002:0000c294       ?FVF@D3DVERTEX@DxEffectLightning@@2KB 00508294     EngineLib_A:DxEffectLighting.obj
 0002:0000c298       ?VERSION@MOVEROTATE_PROPERTY@@2KB 00508298     EngineLib_A:DxEffectMoveRotate.obj
 0002:0000c29c       ?VERSION_SAVE@MOVEROTATE_PROPERTY@@2KB 0050829c     EngineLib_A:DxEffectMoveRotate.obj
 0002:0000c2a0       ?NAME@MOVEROTATE_PROPERTY@@2QBDB 005082a0     EngineLib_A:DxEffectMoveRotate.obj
 0002:0000c2b4       ?TYPEID@DxEffectMoveRotate@@2KB 005082b4     EngineLib_A:DxEffectMoveRotate.obj
 0002:0000c2b8       ?FLAG@DxEffectMoveRotate@@2KB 005082b8     EngineLib_A:DxEffectMoveRotate.obj
 0002:0000c2bc       ?NAME@DxEffectMoveRotate@@2QBDB 005082bc     EngineLib_A:DxEffectMoveRotate.obj
 0002:0000c2d0       ?VERSION@WAVE_PROPERTY@@2KB 005082d0     EngineLib_A:DxEffectWave.obj
 0002:0000c2d4       ?VERSION_SAVE@WAVE_PROPERTY@@2KB 005082d4     EngineLib_A:DxEffectWave.obj
 0002:0000c2d8       ?NAME@WAVE_PROPERTY@@2QBDB 005082d8     EngineLib_A:DxEffectWave.obj
 0002:0000c2e8       ?TYPEID@DxEffectWave@@2KB  005082e8     EngineLib_A:DxEffectWave.obj
 0002:0000c2ec       ?FLAG@DxEffectWave@@2KB    005082ec     EngineLib_A:DxEffectWave.obj
 0002:0000c2f0       ?NAME@DxEffectWave@@2QBDB  005082f0     EngineLib_A:DxEffectWave.obj
 0002:0000c300       ?FVF@D3DVERTEX@DxEffectWave@@2KB 00508300     EngineLib_A:DxEffectWave.obj
 0002:0000c304       ?VERSION@POINTLIGHT_PROPERTY@@2KB 00508304     EngineLib_A:DxEffectPointLight.obj
 0002:0000c308       ?VERSION_SAVE@POINTLIGHT_PROPERTY@@2KB 00508308     EngineLib_A:DxEffectPointLight.obj
 0002:0000c30c       ?NAME@POINTLIGHT_PROPERTY@@2QBDB 0050830c     EngineLib_A:DxEffectPointLight.obj
 0002:0000c320       ?TYPEID@DxEffectPointLight@@2KB 00508320     EngineLib_A:DxEffectPointLight.obj
 0002:0000c324       ?FLAG@DxEffectPointLight@@2KB 00508324     EngineLib_A:DxEffectPointLight.obj
 0002:0000c328       ?NAME@DxEffectPointLight@@2QBDB 00508328     EngineLib_A:DxEffectPointLight.obj
 0002:0000c33c       ?VERSION@MOVETARGET_PROPERTY@@2KB 0050833c     EngineLib_A:DxEffectMoveTarget.obj
 0002:0000c340       ?VERSION_SAVE@MOVETARGET_PROPERTY@@2KB 00508340     EngineLib_A:DxEffectMoveTarget.obj
 0002:0000c344       ?NAME@MOVETARGET_PROPERTY@@2QBDB 00508344     EngineLib_A:DxEffectMoveTarget.obj
 0002:0000c358       ?TYPEID@DxEffectMoveTarget@@2KB 00508358     EngineLib_A:DxEffectMoveTarget.obj
 0002:0000c35c       ?FLAG@DxEffectMoveTarget@@2KB 0050835c     EngineLib_A:DxEffectMoveTarget.obj
 0002:0000c360       ?NAME@DxEffectMoveTarget@@2QBDB 00508360     EngineLib_A:DxEffectMoveTarget.obj
 0002:0000c374       ?szFILETYPE@SAnimContainer@@2QBDB 00508374     EngineLib_A:SAnimation.obj
 0002:0000c384       ??_C@_0BL@ONADMOGG@Texture?5File?5Decrypt?5Error?$AA@ 00508384     EngineLib_A:MemoryTexture.obj
 0002:0000c3a0       ??_C@_0BI@FFPKPFBD@Texture?5File?5Open?5Error?$AA@ 005083a0     EngineLib_A:MemoryTexture.obj
 0002:0000c3b8       ??_C@_0P@NNMLDMKB@skinnedmesh?4fx?$AA@ 005083b8     EngineLib_A:DxSkinMesh9_HLSL.obj
 0002:0000c3c8       ?FVF@VERTEX@DxShadowMap@@2KB 005083c8     EngineLib_A:DxShadowMap.obj
 0002:0000c3cc       ?m_fRange@DxShadowMap@@1MB 005083cc     EngineLib_A:DxShadowMap.obj
 0002:0000c3d0       ?EYE_TO_LOOKAT@DxShadowMap@@1MB 005083d0     EngineLib_A:DxShadowMap.obj
 0002:0000c498       ?TYPEID@DxEffectMesh@@2KB  00508498     EngineLib_A:DxEffectMesh.obj
 0002:0000c49c       ?FLAG@DxEffectMesh@@2KB    0050849c     EngineLib_A:DxEffectMesh.obj
 0002:0000c4a0       ?NAME@DxEffectMesh@@2QBDB  005084a0     EngineLib_A:DxEffectMesh.obj
 0002:0000c4b0       ?m_strParticle@DxEffectParticleSys@@1QBDB 005084b0     EngineLib_A:DxEffectParticleSys.obj
 0002:0000c608       ?m_dwParticleVertexShader@DxEffectParticleSys@@1QBKB 00508608     EngineLib_A:DxEffectParticleSys.obj
 0002:0000c774       ?TYPEID@DxEffectParticleSys@@2KB 00508774     EngineLib_A:DxEffectParticleSys.obj
 0002:0000c778       ?FLAG@DxEffectParticleSys@@2KB 00508778     EngineLib_A:DxEffectParticleSys.obj
 0002:0000c77c       ?NAME@DxEffectParticleSys@@2QBDB 0050877c     EngineLib_A:DxEffectParticleSys.obj
 0002:0000c790       ?FVF@D3DPARTICLEVERTEX@DxEffectParticleSys@@2KB 00508790     EngineLib_A:DxEffectParticleSys.obj
 0002:0000c794       ?FVF@D3DVERTEX@DxEffectParticleSys@@2KB 00508794     EngineLib_A:DxEffectParticleSys.obj
 0002:0000c798       ?MIN_SPEED@DxEffectParticleSys@@1MB 00508798     EngineLib_A:DxEffectParticleSys.obj
 0002:0000c79c       ?MIN_LIFETIME@DxEffectParticleSys@@1MB 0050879c     EngineLib_A:DxEffectParticleSys.obj
 0002:0000c7a0       ?MIN_SIZE@DxEffectParticleSys@@1MB 005087a0     EngineLib_A:DxEffectParticleSys.obj
 0002:0000c7a4       ?MIN_GRAVITY@DxEffectParticleSys@@1MB 005087a4     EngineLib_A:DxEffectParticleSys.obj
 0002:0000c7a8       ?MIN_ALPHA@DxEffectParticleSys@@1MB 005087a8     EngineLib_A:DxEffectParticleSys.obj
 0002:0000c7ac       ?MAX_SPEED@DxEffectParticleSys@@1MB 005087ac     EngineLib_A:DxEffectParticleSys.obj
 0002:0000c7b0       ?MAX_LIFETIME@DxEffectParticleSys@@1MB 005087b0     EngineLib_A:DxEffectParticleSys.obj
 0002:0000c7b4       ?MAX_SIZE@DxEffectParticleSys@@1MB 005087b4     EngineLib_A:DxEffectParticleSys.obj
 0002:0000c7b8       ?MAX_GRAVITY@DxEffectParticleSys@@1MB 005087b8     EngineLib_A:DxEffectParticleSys.obj
 0002:0000c7bc       ?MAX_ALPHA@DxEffectParticleSys@@1MB 005087bc     EngineLib_A:DxEffectParticleSys.obj
 0002:0000c7c0       ?_SCALEFACT_PAR@DxEffectParticleSys@@1MB 005087c0     EngineLib_A:DxEffectParticleSys.obj
 0002:0000c7c4       ?MAX_PARTICLES@DxEffectParticleSys@@1KB 005087c4     EngineLib_A:DxEffectParticleSys.obj
 0002:0000c7c8       ?TYPEID@DxEffectMultiTex@@2KB 005087c8     EngineLib_A:DxEffectMultiTex.obj
 0002:0000c7cc       ?VERSION@DxEffectMultiTex@@2KB 005087cc     EngineLib_A:DxEffectMultiTex.obj
 0002:0000c7d0       ?VERSION_SAVE@DxEffectMultiTex@@2KB 005087d0     EngineLib_A:DxEffectMultiTex.obj
 0002:0000c7d4       ?NAME@DxEffectMultiTex@@2QBDB 005087d4     EngineLib_A:DxEffectMultiTex.obj
 0002:0000c7e8       ?FLAG@DxEffectMultiTex@@2KB 005087e8     EngineLib_A:DxEffectMultiTex.obj
 0002:0000c7ec       ?TYPEID@DxEffectGlow@@2KB  005087ec     EngineLib_A:DxEffectGlow.obj
 0002:0000c7f0       ?VERSION@DxEffectGlow@@2KB 005087f0     EngineLib_A:DxEffectGlow.obj
 0002:0000c7f4       ?VERSION_SAVE@DxEffectGlow@@2KB 005087f4     EngineLib_A:DxEffectGlow.obj
 0002:0000c7f8       ?NAME@DxEffectGlow@@2QBDB  005087f8     EngineLib_A:DxEffectGlow.obj
 0002:0000c808       ?FLAG@DxEffectGlow@@2KB    00508808     EngineLib_A:DxEffectGlow.obj
 0002:0000c80c       ?TYPEID@DxEffectLightMap@@2KB 0050880c     EngineLib_A:DxEffectLightMap.obj
 0002:0000c810       ?VERSION@DxEffectLightMap@@2KB 00508810     EngineLib_A:DxEffectLightMap.obj
 0002:0000c814       ?VERSION_SAVE@DxEffectLightMap@@2KB 00508814     EngineLib_A:DxEffectLightMap.obj
 0002:0000c818       ?NAME@DxEffectLightMap@@2QBDB 00508818     EngineLib_A:DxEffectLightMap.obj
 0002:0000c82c       ?FLAG@DxEffectLightMap@@2KB 0050882c     EngineLib_A:DxEffectLightMap.obj
 0002:0000c830       ?TYPEID@DxEffectSpecReflect@@2KB 00508830     EngineLib_A:DxEffectSpecReflect.obj
 0002:0000c834       ?VERSION@DxEffectSpecReflect@@2KB 00508834     EngineLib_A:DxEffectSpecReflect.obj
 0002:0000c838       ?VERSION_SAVE@DxEffectSpecReflect@@2KB 00508838     EngineLib_A:DxEffectSpecReflect.obj
 0002:0000c83c       ?NAME@DxEffectSpecReflect@@2QBDB 0050883c     EngineLib_A:DxEffectSpecReflect.obj
 0002:0000c850       ?FLAG@DxEffectSpecReflect@@2KB 00508850     EngineLib_A:DxEffectSpecReflect.obj
 0002:0000c854       ?FVF@OBJECT@DxEffectNeon@@2KB 00508854     EngineLib_A:DxEffectNeon.obj
 0002:0000c858       ?FVF@OBJECTNORMAL@DxEffectNeon@@2KB 00508858     EngineLib_A:DxEffectNeon.obj
 0002:0000c85c       ?TYPEID@DxEffectNeon@@2KB  0050885c     EngineLib_A:DxEffectNeon.obj
 0002:0000c860       ?VERSION@DxEffectNeon@@2KB 00508860     EngineLib_A:DxEffectNeon.obj
 0002:0000c864       ?VERSION_SAVE@DxEffectNeon@@2KB 00508864     EngineLib_A:DxEffectNeon.obj
 0002:0000c868       ?NAME@DxEffectNeon@@2QBDB  00508868     EngineLib_A:DxEffectNeon.obj
 0002:0000c878       ?FLAG@DxEffectNeon@@2KB    00508878     EngineLib_A:DxEffectNeon.obj
 0002:0000c87c       ?TYPEID@DxEffectSpecular2@@2KB 0050887c     EngineLib_A:DxEffectSpecular2.obj
 0002:0000c880       ?VERSION@DxEffectSpecular2@@2KB 00508880     EngineLib_A:DxEffectSpecular2.obj
 0002:0000c884       ?VERSION_SAVE@DxEffectSpecular2@@2KB 00508884     EngineLib_A:DxEffectSpecular2.obj
 0002:0000c888       ?NAME@DxEffectSpecular2@@2QBDB 00508888     EngineLib_A:DxEffectSpecular2.obj
 0002:0000c89c       ?FLAG@DxEffectSpecular2@@2KB 0050889c     EngineLib_A:DxEffectSpecular2.obj
 0002:0000c8a0       ?TYPEID@DxEffectSpecular@@2KB 005088a0     EngineLib_A:DxEffectSpecular.obj
 0002:0000c8a4       ?VERSION@DxEffectSpecular@@2KB 005088a4     EngineLib_A:DxEffectSpecular.obj
 0002:0000c8a8       ?VERSION_SAVE@DxEffectSpecular@@2KB 005088a8     EngineLib_A:DxEffectSpecular.obj
 0002:0000c8ac       ?NAME@DxEffectSpecular@@2QBDB 005088ac     EngineLib_A:DxEffectSpecular.obj
 0002:0000c8c0       ?FLAG@DxEffectSpecular@@2KB 005088c0     EngineLib_A:DxEffectSpecular.obj
 0002:0000c8c4       ?FVF@PARTICLEVERTEX@DxEffectSpore@@2KB 005088c4     EngineLib_A:DxEffectSpore.obj
 0002:0000c8c8       ?TYPEID@DxEffectSpore@@2KB 005088c8     EngineLib_A:DxEffectSpore.obj
 0002:0000c8cc       ?VERSION@DxEffectSpore@@2KB 005088cc     EngineLib_A:DxEffectSpore.obj
 0002:0000c8d0       ?VERSION_SAVE@DxEffectSpore@@2KB 005088d0     EngineLib_A:DxEffectSpore.obj
 0002:0000c8d4       ?NAME@DxEffectSpore@@2QBDB 005088d4     EngineLib_A:DxEffectSpore.obj
 0002:0000c8e4       ?FLAG@DxEffectSpore@@2KB   005088e4     EngineLib_A:DxEffectSpore.obj
 0002:0000c8e8       ?MAX_LIFE@DxEffectSpore@@1MB 005088e8     EngineLib_A:DxEffectSpore.obj
 0002:0000c8ec       ?MAX_VERTEX@DxEffectSpore@@1KB 005088ec     EngineLib_A:DxEffectSpore.obj
 0002:0000c8f0       ?FIREFLY_SIZE@DxEffectSpore@@1MB 005088f0     EngineLib_A:DxEffectSpore.obj
 0002:0000c8f4       ?FVF@D3DWATER2VERTEX@DxEffectWater2@@2KB 005088f4     EngineLib_A:DxEffectWater2.obj
 0002:0000c8f8       ?TYPEID@DxEffectWater2@@2KB 005088f8     EngineLib_A:DxEffectWater2.obj
 0002:0000c8fc       ?VERSION@DxEffectWater2@@2KB 005088fc     EngineLib_A:DxEffectWater2.obj
 0002:0000c900       ?VERSION_SAVE@DxEffectWater2@@2KB 00508900     EngineLib_A:DxEffectWater2.obj
 0002:0000c904       ?NAME@DxEffectWater2@@2QBDB 00508904     EngineLib_A:DxEffectWater2.obj
 0002:0000c914       ?FLAG@DxEffectWater2@@2KB  00508914     EngineLib_A:DxEffectWater2.obj
 0002:0000c918       ?FVF@D3DWATERVERTEX@DxEffectWater@@2KB 00508918     EngineLib_A:DxEffectWater.obj
 0002:0000c91c       ?TYPEID@DxEffectWater@@2KB 0050891c     EngineLib_A:DxEffectWater.obj
 0002:0000c920       ?VERSION@DxEffectWater@@2KB 00508920     EngineLib_A:DxEffectWater.obj
 0002:0000c924       ?VERSION_SAVE@DxEffectWater@@2KB 00508924     EngineLib_A:DxEffectWater.obj
 0002:0000c928       ?NAME@DxEffectWater@@2QBDB 00508928     EngineLib_A:DxEffectWater.obj
 0002:0000c938       ?FLAG@DxEffectWater@@2KB   00508938     EngineLib_A:DxEffectWater.obj
 0002:0000c93c       ?TYPEID@DxEffectTiling@@2KB 0050893c     EngineLib_A:DxEffectTiling.obj
 0002:0000c940       ?VERSION@DxEffectTiling@@2KB 00508940     EngineLib_A:DxEffectTiling.obj
 0002:0000c944       ?VERSION_SAVE@DxEffectTiling@@2KB 00508944     EngineLib_A:DxEffectTiling.obj
 0002:0000c948       ?NAME@DxEffectTiling@@2QBDB 00508948     EngineLib_A:DxEffectTiling.obj
 0002:0000c958       ?FLAG@DxEffectTiling@@2KB  00508958     EngineLib_A:DxEffectTiling.obj
 0002:0000c95c       ?FVF@VERTEXCOLOR@DxEffectTiling@@2KB 0050895c     EngineLib_A:DxEffectTiling.obj
 0002:0000c960       ?FVF@VERTEX@DxEffectWaterLight@@2KB 00508960     EngineLib_A:DxEffectWaterLight.obj
 0002:0000c964       ?FVF@WATERVERTEX@DxEffectWaterLight@@2KB 00508964     EngineLib_A:DxEffectWaterLight.obj
 0002:0000c968       ?TYPEID@DxEffectWaterLight@@2KB 00508968     EngineLib_A:DxEffectWaterLight.obj
 0002:0000c96c       ?VERSION@DxEffectWaterLight@@2KB 0050896c     EngineLib_A:DxEffectWaterLight.obj
 0002:0000c970       ?VERSION_SAVE@DxEffectWaterLight@@2KB 00508970     EngineLib_A:DxEffectWaterLight.obj
 0002:0000c974       ?NAME@DxEffectWaterLight@@2QBDB 00508974     EngineLib_A:DxEffectWaterLight.obj
 0002:0000c988       ?FLAG@DxEffectWaterLight@@2KB 00508988     EngineLib_A:DxEffectWaterLight.obj
 0002:0000c98c       ?FVF@SHADOW_TEX1@DxEffectShadowLow@@2KB 0050898c     EngineLib_A:DxEffectShadowLow.obj
 0002:0000c990       ?FVF@SHADOW_TEX1_COLOR@DxEffectShadowLow@@2KB 00508990     EngineLib_A:DxEffectShadowLow.obj
 0002:0000c994       ?FVF@SHADOW_TEX2@DxEffectShadowLow@@2KB 00508994     EngineLib_A:DxEffectShadowLow.obj
 0002:0000c998       ?FVF@SHADOW_TEX2_COLOR@DxEffectShadowLow@@2KB 00508998     EngineLib_A:DxEffectShadowLow.obj
 0002:0000c99c       ?TYPEID@DxEffectShadowLow@@2KB 0050899c     EngineLib_A:DxEffectShadowLow.obj
 0002:0000c9a0       ?VERSION@DxEffectShadowLow@@2KB 005089a0     EngineLib_A:DxEffectShadowLow.obj
 0002:0000c9a4       ?VERSION_SAVE@DxEffectShadowLow@@2KB 005089a4     EngineLib_A:DxEffectShadowLow.obj
 0002:0000c9a8       ?NAME@DxEffectShadowLow@@2QBDB 005089a8     EngineLib_A:DxEffectShadowLow.obj
 0002:0000c9bc       ?FLAG@DxEffectShadowLow@@2KB 005089bc     EngineLib_A:DxEffectShadowLow.obj
 0002:0000c9c0       ?TYPEID@DxEffectShadow@@2KB 005089c0     EngineLib_A:DxEffectShadow.obj
 0002:0000c9c4       ?VERSION@DxEffectShadow@@2KB 005089c4     EngineLib_A:DxEffectShadow.obj
 0002:0000c9c8       ?VERSION_SAVE@DxEffectShadow@@2KB 005089c8     EngineLib_A:DxEffectShadow.obj
 0002:0000c9cc       ?NAME@DxEffectShadow@@2QBDB 005089cc     EngineLib_A:DxEffectShadow.obj
 0002:0000c9dc       ?FLAG@DxEffectShadow@@2KB  005089dc     EngineLib_A:DxEffectShadow.obj
 0002:0000c9e0       ?FVF@PARTICLE@DxEffectNature@@2KB 005089e0     EngineLib_A:DxEffectNature.obj
 0002:0000c9e4       ?FVF@PARTICLEPOINT@DxEffectNature@@2KB 005089e4     EngineLib_A:DxEffectNature.obj
 0002:0000c9e8       ?TYPEID@DxEffectNature@@2KB 005089e8     EngineLib_A:DxEffectNature.obj
 0002:0000c9ec       ?VERSION@DxEffectNature@@2KB 005089ec     EngineLib_A:DxEffectNature.obj
 0002:0000c9f0       ?VERSION_SAVE@DxEffectNature@@2KB 005089f0     EngineLib_A:DxEffectNature.obj
 0002:0000c9f4       ?NAME@DxEffectNature@@2QBDB 005089f4     EngineLib_A:DxEffectNature.obj
 0002:0000ca04       ?FLAG@DxEffectNature@@2KB  00508a04     EngineLib_A:DxEffectNature.obj
 0002:0000ca08       ?FVF@GRASSVERTEX@DxEffectGrass@@2KB 00508a08     EngineLib_A:DxEffectGrass.obj
 0002:0000ca0c       ?TYPEID@DxEffectGrass@@2KB 00508a0c     EngineLib_A:DxEffectGrass.obj
 0002:0000ca10       ?VERSION@DxEffectGrass@@2KB 00508a10     EngineLib_A:DxEffectGrass.obj
 0002:0000ca14       ?VERSION_SAVE@DxEffectGrass@@2KB 00508a14     EngineLib_A:DxEffectGrass.obj
 0002:0000ca18       ?NAME@DxEffectGrass@@2QBDB 00508a18     EngineLib_A:DxEffectGrass.obj
 0002:0000ca28       ?FLAG@DxEffectGrass@@2KB   00508a28     EngineLib_A:DxEffectGrass.obj
 0002:0000ca2c       ?MAX_BASE@DxEffectGrass@@1KB 00508a2c     EngineLib_A:DxEffectGrass.obj
 0002:0000ca30       ?MAX_OBJECTS@DxEffectGrass@@1KB 00508a30     EngineLib_A:DxEffectGrass.obj
 0002:0000ca34       ?MAX_ALPHA_LENGTH@DxEffectGrass@@1MB 00508a34     EngineLib_A:DxEffectGrass.obj
 0002:0000ca38       ?MAX_SEE_LENGTH@DxEffectGrass@@1MB 00508a38     EngineLib_A:DxEffectGrass.obj
 0002:0000ca3c       ?TYPEID@DxEffectReflect@@2KB 00508a3c     EngineLib_A:DxEffectReflect.obj
 0002:0000ca40       ?VERSION@DxEffectReflect@@2KB 00508a40     EngineLib_A:DxEffectReflect.obj
 0002:0000ca44       ?VERSION_SAVE@DxEffectReflect@@2KB 00508a44     EngineLib_A:DxEffectReflect.obj
 0002:0000ca48       ?NAME@DxEffectReflect@@2QBDB 00508a48     EngineLib_A:DxEffectReflect.obj
 0002:0000ca58       ?FLAG@DxEffectReflect@@2KB 00508a58     EngineLib_A:DxEffectReflect.obj
 0002:0000ca5c       ?SEPARATELENGTH@DxEffectRainPoint@@1MB 00508a5c     EngineLib_A:DxEffectRainDrop.obj
 0002:0000ca60       ?MAX_OBJECT@DxEffectRainPoint@@1KB 00508a60     EngineLib_A:DxEffectRainDrop.obj
 0002:0000ca64       ?MAX_OBJECT_LEAVES@DxEffectRainPoint@@1KB 00508a64     EngineLib_A:DxEffectRainDrop.obj
 0002:0000ca68       ?FVF@RAINRENDER@DxEffectRainPoint@@2KB 00508a68     EngineLib_A:DxEffectRainDrop.obj
 0002:0000ca6c       ?FVF@LEAVESRENDER@DxEffectRainPoint@@2KB 00508a6c     EngineLib_A:DxEffectRainDrop.obj
 0002:0000ca70       ?FVF@SNOWRENDER@DxEffectRainPoint@@2KB 00508a70     EngineLib_A:DxEffectRainDrop.obj
 0002:0000ca74       ?TYPEID@DxEffectRainPoint@@2KB 00508a74     EngineLib_A:DxEffectRainDrop.obj
 0002:0000ca78       ?VERSION@DxEffectRainPoint@@2KB 00508a78     EngineLib_A:DxEffectRainDrop.obj
 0002:0000ca7c       ?VERSION_SAVE@DxEffectRainPoint@@2KB 00508a7c     EngineLib_A:DxEffectRainDrop.obj
 0002:0000ca80       ?NAME@DxEffectRainPoint@@2QBDB 00508a80     EngineLib_A:DxEffectRainDrop.obj
 0002:0000ca94       ?FLAG@DxEffectRainPoint@@2KB 00508a94     EngineLib_A:DxEffectRainDrop.obj
 0002:0000ca98       ?TYPEID@DxEffectFur@@2KB   00508a98     EngineLib_A:DxEffectFur.obj
 0002:0000ca9c       ?VERSION@DxEffectFur@@2KB  00508a9c     EngineLib_A:DxEffectFur.obj
 0002:0000caa0       ?VERSION_SAVE@DxEffectFur@@2KB 00508aa0     EngineLib_A:DxEffectFur.obj
 0002:0000caa4       ?NAME@DxEffectFur@@2QBDB   00508aa4     EngineLib_A:DxEffectFur.obj
 0002:0000cab0       ?FLAG@DxEffectFur@@2KB     00508ab0     EngineLib_A:DxEffectFur.obj
 0002:0000cab4       ?RAINDROP_MAXNUM@DxEffectRiver@@1KB 00508ab4     EngineLib_A:DxEffectRiver.obj
 0002:0000cab8       ?DEFAULT_SCALE@DxEffectRiver@@1MB 00508ab8     EngineLib_A:DxEffectRiver.obj
 0002:0000cabc       ?DEFAULT_SPEED@DxEffectRiver@@1MB 00508abc     EngineLib_A:DxEffectRiver.obj
 0002:0000cac0       ?FVF@VERTEXCOLOR@DxEffectRiver@@2KB 00508ac0     EngineLib_A:DxEffectRiver.obj
 0002:0000cac4       ?FVF@D3DWAVETEX@DxEffectRiver@@2KB 00508ac4     EngineLib_A:DxEffectRiver.obj
 0002:0000cac8       ?TYPEID@DxEffectRiver@@2KB 00508ac8     EngineLib_A:DxEffectRiver.obj
 0002:0000cacc       ?VERSION@DxEffectRiver@@2KB 00508acc     EngineLib_A:DxEffectRiver.obj
 0002:0000cad0       ?VERSION_SAVE@DxEffectRiver@@2KB 00508ad0     EngineLib_A:DxEffectRiver.obj
 0002:0000cad4       ?NAME@DxEffectRiver@@2QBDB 00508ad4     EngineLib_A:DxEffectRiver.obj
 0002:0000cae4       ?FLAG@DxEffectRiver@@2KB   00508ae4     EngineLib_A:DxEffectRiver.obj
 0002:0000cae8       ?TYPEID@DxEffectDot3@@2KB  00508ae8     EngineLib_A:DxEffectDot3.obj
 0002:0000caec       ?VERSION@DxEffectDot3@@2KB 00508aec     EngineLib_A:DxEffectDot3.obj
 0002:0000caf0       ?VERSION_SAVE@DxEffectDot3@@2KB 00508af0     EngineLib_A:DxEffectDot3.obj
 0002:0000caf4       ?NAME@DxEffectDot3@@2QBDB  00508af4     EngineLib_A:DxEffectDot3.obj
 0002:0000cb04       ?FLAG@DxEffectDot3@@2KB    00508b04     EngineLib_A:DxEffectDot3.obj
 0002:0000cb08       ?TYPEID@DxEffectCloth@@2KB 00508b08     EngineLib_A:DxEffectCloth.obj
 0002:0000cb0c       ?VERSION@DxEffectCloth@@2KB 00508b0c     EngineLib_A:DxEffectCloth.obj
 0002:0000cb10       ?VERSION_SAVE@DxEffectCloth@@2KB 00508b10     EngineLib_A:DxEffectCloth.obj
 0002:0000cb14       ?NAME@DxEffectCloth@@2QBDB 00508b14     EngineLib_A:DxEffectCloth.obj
 0002:0000cb24       ?FLAG@DxEffectCloth@@2KB   00508b24     EngineLib_A:DxEffectCloth.obj
 0002:0000cb28       ?FVF@VERTEX@DxEffectRenderState@@2KB 00508b28     EngineLib_A:DxEffectRenderState.obj
 0002:0000cb2c       ?TYPEID@DxEffectRenderState@@2KB 00508b2c     EngineLib_A:DxEffectRenderState.obj
 0002:0000cb30       ?VERSION@DxEffectRenderState@@2KB 00508b30     EngineLib_A:DxEffectRenderState.obj
 0002:0000cb34       ?VERSION_SAVE@DxEffectRenderState@@2KB 00508b34     EngineLib_A:DxEffectRenderState.obj
 0002:0000cb38       ?NAME@DxEffectRenderState@@2QBDB 00508b38     EngineLib_A:DxEffectRenderState.obj
 0002:0000cb4c       ?FLAG@DxEffectRenderState@@2KB 00508b4c     EngineLib_A:DxEffectRenderState.obj
 0002:0000cb50       ?VERSION@DxAABBOctree@@1KB 00508b50     EngineLib_A:NsOCTreeSaveLoad.obj
 0002:0000cb54       ?VERSION_SAVE@DxAABBOctree@@1KB 00508b54     EngineLib_A:NsOCTreeSaveLoad.obj
 0002:0000cb58       ?VERSION@DxSingleTexMesh@@1KB 00508b58     EngineLib_A:NsOCTreeSaveLoad.obj
 0002:0000cb5c       ?VERSION_SAVE@DxSingleTexMesh@@1KB 00508b5c     EngineLib_A:NsOCTreeSaveLoad.obj
 0002:0000cb60       ?VERSION@CTextureSetDXT@@0KB 00508b60     EngineLib_A:TextureSetDXT.obj
 0002:0000cb64       ?VERSION_SAVE@CTextureSetDXT@@0KB 00508b64     EngineLib_A:TextureSetDXT.obj
 0002:0000cb68       ?VERSION@DxPieceEdit@@1KB  00508b68     EngineLib_A:DxPieceContainer.obj
 0002:0000cb6c       ?VERSION_SAVE@DxPieceEdit@@1KB 00508b6c     EngineLib_A:DxPieceContainer.obj
 0002:0000cb70       ?VERSION@DxLandMan@@2KB    00508b70     EngineLib_A:DxLandManSaveLoad.obj
 0002:0000cb74       ?VERSION_SAVE@DxLandMan@@2KB 00508b74     EngineLib_A:DxLandManSaveLoad.obj
 0002:0000cb78       ?FILEMARK@DxLandMan@@2QBDB 00508b78     EngineLib_A:DxLandManSaveLoad.obj
 0002:0000cbf8       ?FVF@OCTREEVERTEX@@2KB     00508bf8     EngineLib_A:DxCustomTypes.obj
 0002:0000cbfc       ?FVF@DIFFUSEVERTEX@@2KB    00508bfc     EngineLib_A:DxCustomTypes.obj
 0002:0000cc04       ?VERSION@SVERTEXINFLU@@2KB 00508c04     EngineLib_A:DxSkinMeshContainer9.obj
 0002:0000cc08       ?VERSION_SAVE@SVERTEXINFLU@@2KB 00508c08     EngineLib_A:DxSkinMeshContainer9.obj
 0002:0000cc0c       ?FVF@VERTEX@DxEffCharAttribute@@2KB 00508c0c     EngineLib_A:DxEffCharAttribute.obj
 0002:0000cc10       ?FVF@BLURTEX@DxEffCharCloneBlur@@2KB 00508c10     EngineLib_A:DxEffCharCloneBlur.obj
 0002:0000cc14       ?FVF@DECALVERTEX@@2KB      00508c14     EngineLib_A:DxDecal.obj
 0002:0000cc18       ?m_fDecalEpsilon@DxDecal@@1MB 00508c18     EngineLib_A:DxDecal.obj
 0002:0000cc1c       ?GRAVITY@CPhysicalData@@0MB 00508c1c     EngineLib_A:DxPhysical.obj
 0002:0000cc20       ?GRAVITY@DXPHYSICAL@@3MB   00508c20     EngineLib_A:DxPhysical.obj
 0002:0000cc24       ?RISE_SOMEPOWER@DXPHYSICAL@@3MB 00508c24     EngineLib_A:DxPhysical.obj
 0002:0000cc28       ?VERSION@DxClubMan@@1KB    00508c28     EngineLib_A:DxClubMan.obj
 0002:0000cc2c       ?VERSION_SAVE@DxClubMan@@1KB 00508c2c     EngineLib_A:DxClubMan.obj
 0002:0000cc30       ?CHAR_NUM@DxClubMan@@1KB   00508c30     EngineLib_A:DxClubMan.obj
 0002:0000cc34       ?FULL_WIDTH@DxClubMan@@1KB 00508c34     EngineLib_A:DxClubMan.obj
 0002:0000cc38       ?FULL_HEIGHT@DxClubMan@@1KB 00508c38     EngineLib_A:DxClubMan.obj
 0002:0000cc3c       ??_C@_0N@NHIDMMM@Club_Tex?4dat?$AA@ 00508c3c     EngineLib_A:DxClubMan.obj
 0002:0000cc4c       ??_C@_0BA@FDNBPFHH@Club_NoMark?4bmp?$AA@ 00508c4c     EngineLib_A:DxClubMan.obj
 0002:0000cc5c       ?FVF@VERTEX@DxCubeMap@@2KB 00508c5c     EngineLib_A:DxCubeMap.obj
 0002:0000cc60       ?FVF@SKYBOXVERTEX@DxCubeMap@@2KB 00508c60     EngineLib_A:DxCubeMap.obj
 0002:0000cc64       ??_C@_08HBEEOLCM@D3DXFONT?$AA@ 00508c64     EngineLib_A:DxFontMan.obj
 0002:0000cc70       ??_C@_07IKFPMGCM@D3DFONT?$AA@ 00508c70     EngineLib_A:DxFontMan.obj
 0002:0000cc78       ?VERSION@DxMapEditMan@@2KB 00508c78     EngineLib_A:DxMapEditMan.obj
 0002:0000cc7c       ?VERSION_DATA@DxMapEditMan@@2KB 00508c7c     EngineLib_A:DxMapEditMan.obj
 0002:0000cc80       ?VERSION_TEX@DxMapEditMan@@2KB 00508c80     EngineLib_A:DxMapEditMan.obj
 0002:0000cc84       ?VERSION_SAVE@DxMapEditMan@@2KB 00508c84     EngineLib_A:DxMapEditMan.obj
 0002:0000cc88       ?VERSION_DATA_SAVE@DxMapEditMan@@2KB 00508c88     EngineLib_A:DxMapEditMan.obj
 0002:0000cc8c       ?VERSION_TEX_SAVE@DxMapEditMan@@2KB 00508c8c     EngineLib_A:DxMapEditMan.obj
 0002:0000cc90       ?FVF@VERTEX@DxMapEditMan@@2KB 00508c90     EngineLib_A:DxMapEditMan.obj
 0002:0000cc94       ?fCURVEVALUE@DxMapEditMan@@1MB 00508c94     EngineLib_A:DxMapEditMan.obj
 0002:0000cc98       ?FVF@D3DVERTEX@DxEffectRainPoint@@2KB 00508c98     EngineLib_A:DxEffectRainDropFireFly.obj
 0002:0000cc9c       ?MAX_FIREFLY@DxEffectRainPoint@@1KB 00508c9c     EngineLib_A:DxEffectRainDropFireFly.obj
 0002:0000cca0       ?RAINTIME@DxEffectRainPoint@@1MB 00508ca0     EngineLib_A:DxEffectRainDropEx.obj
 0002:0000cca4       ?RAINDROP_S@DxEffectRainPoint@@1MB 00508ca4     EngineLib_A:DxEffectRainDropEx.obj
 0002:0000cca8       ?SNOWTIMEUP@DxEffectRainPoint@@1MB 00508ca8     EngineLib_A:DxEffectRainDropEx.obj
 0002:0000ccac       ?SNOWTIMEDOWN@DxEffectRainPoint@@1MB 00508cac     EngineLib_A:DxEffectRainDropEx.obj
 0002:0000ccb0       ?SNOWTIMEALPHA@DxEffectRainPoint@@1MB 00508cb0     EngineLib_A:DxEffectRainDropEx.obj
 0002:0000ccb4       ?LEAVESTIMEUP@DxEffectRainPoint@@1MB 00508cb4     EngineLib_A:DxEffectRainDropEx.obj
 0002:0000ccb8       ?LEAVESTIMEDOWN@DxEffectRainPoint@@1MB 00508cb8     EngineLib_A:DxEffectRainDropEx.obj
 0002:0000ccbc       ?LEAVESTIMEALPHA@DxEffectRainPoint@@1MB 00508cbc     EngineLib_A:DxEffectRainDropEx.obj
 0002:0000ccc0       ?FVF@VERTEXCOLOR@DXRAINDROPMAN@@2KB 00508cc0     EngineLib_A:DxEffectRiverRainDrop.obj
 0002:0000ccc4       ?TYPEID@DxTexEffSpecular@@2KB 00508cc4     EngineLib_A:DxTexEffSpecular.obj
 0002:0000ccc8       ?VERSION@DxTexEffSpecular@@2KB 00508cc8     EngineLib_A:DxTexEffSpecular.obj
 0002:0000cccc       ?VERSION_SAVE@DxTexEffSpecular@@2KB 00508ccc     EngineLib_A:DxTexEffSpecular.obj
 0002:0000ccd0       ?NAME@DxTexEffSpecular@@2QBDB 00508cd0     EngineLib_A:DxTexEffSpecular.obj
 0002:0000cce4       ?TYPEID@DxTexEffRotate@@2KB 00508ce4     EngineLib_A:DxTexEffRotate.obj
 0002:0000cce8       ?VERSION@DxTexEffRotate@@2KB 00508ce8     EngineLib_A:DxTexEffRotate.obj
 0002:0000ccec       ?VERSION_SAVE@DxTexEffRotate@@2KB 00508cec     EngineLib_A:DxTexEffRotate.obj
 0002:0000ccf0       ?NAME@DxTexEffRotate@@2QBDB 00508cf0     EngineLib_A:DxTexEffRotate.obj
 0002:0000cd00       ?TYPEID@DxTexEffFlowUV@@2KB 00508d00     EngineLib_A:DxTexEffFlowUV.obj
 0002:0000cd04       ?VERSION@DxTexEffFlowUV@@2KB 00508d04     EngineLib_A:DxTexEffFlowUV.obj
 0002:0000cd08       ?VERSION_SAVE@DxTexEffFlowUV@@2KB 00508d08     EngineLib_A:DxTexEffFlowUV.obj
 0002:0000cd0c       ?NAME@DxTexEffFlowUV@@2QBDB 00508d0c     EngineLib_A:DxTexEffFlowUV.obj
 0002:0000cd1c       ?TYPEID@DxTexEffDiffuse@@2KB 00508d1c     EngineLib_A:DxTexEffDiffuse.obj
 0002:0000cd20       ?VERSION@DxTexEffDiffuse@@2KB 00508d20     EngineLib_A:DxTexEffDiffuse.obj
 0002:0000cd24       ?VERSION_SAVE@DxTexEffDiffuse@@2KB 00508d24     EngineLib_A:DxTexEffDiffuse.obj
 0002:0000cd28       ?NAME@DxTexEffDiffuse@@2QBDB 00508d28     EngineLib_A:DxTexEffDiffuse.obj
 0002:0000cd38       ?VERSION@DxPieceEff@@1KB   00508d38     EngineLib_A:DxPieceEff.obj
 0002:0000cd3c       ?VERSION_SAVE@DxPieceEff@@1KB 00508d3c     EngineLib_A:DxPieceEff.obj
 0002:0000cd40       ?VERSION@DxMaterialHLSL@@0KB 00508d40     EngineLib_A:DxMaterialHLSL.obj
 0002:0000cd44       ?VERSION_SAVE@DxMaterialHLSL@@0KB 00508d44     EngineLib_A:DxMaterialHLSL.obj
 0002:0000cda4       ?TYPEID@DxTexEffVisualMaterial@@2KB 00508da4     EngineLib_A:DxTexEffVisualMaterial.obj
 0002:0000cda8       ?VERSION@DxTexEffVisualMaterial@@2KB 00508da8     EngineLib_A:DxTexEffVisualMaterial.obj
 0002:0000cdac       ?NAME@DxTexEffVisualMaterial@@2QBDB 00508dac     EngineLib_A:DxTexEffVisualMaterial.obj
 0002:0000cdc4       ?VERSION@DxPieceMan@@1KB   00508dc4     EngineLib_A:DxStaticPisMan.obj
 0002:0000cdc8       ?VERSION_SAVE@DxPieceMan@@1KB 00508dc8     EngineLib_A:DxStaticPisMan.obj
 0002:0000cdcc       ?FVF@VERTEX_XT2@@2KB       00508dcc     EngineLib_A:DxMapBlend.obj
 0002:0000cdd0       ?FVF@VERTEX_XNT2@@2KB      00508dd0     EngineLib_A:DxMapBlend.obj
 0002:0000cdd4       ?FVF@VERTEX@DxFrameAniVBTEX@@2KB 00508dd4     EngineLib_A:DxFrameAni.obj
 0002:0000cdd8       ?VERSION@DxFrameAniVBTEX@@1KB 00508dd8     EngineLib_A:DxFrameAni.obj
 0002:0000cddc       ?VERSION_SAVE@DxFrameAniVBTEX@@1KB 00508ddc     EngineLib_A:DxFrameAni.obj
 0002:0000cde0       ?VERSION@DxFrameAni@@1KB   00508de0     EngineLib_A:DxFrameAni.obj
 0002:0000cde4       ?VERSION_SAVE@DxFrameAni@@1KB 00508de4     EngineLib_A:DxFrameAni.obj
 0002:0000cde8       ??_C@_01GBGANLPD@0?$AA@    00508de8     RanClientLib_A:GLItem.obj
 0002:0000cdec       ??_C@_01EKENIIDA@3?$AA@    00508dec     RanClientLib_A:GLItem.obj
 0002:0000cdf0       ??_C@_01FDFGLJHB@2?$AA@    00508df0     RanClientLib_A:GLItem.obj
 0002:0000cdf4       ??_C@_0BC@KNLNIACL@SLOT_LACCESSORIES?$AA@ 00508df4     RanClientLib_A:GLItem.obj
 0002:0000ce08       ??_C@_0BC@ODFMCKEB@SLOT_RACCESSORIES?$AA@ 00508e08     RanClientLib_A:GLItem.obj
 0002:0000ce1c       ??_C@_0O@GPIGJLJA@SLOT_REARRING?$AA@ 00508e1c     RanClientLib_A:GLItem.obj
 0002:0000ce2c       ??_C@_0P@FMBJOMEC@SLOT_WAISTBAND?$AA@ 00508e2c     RanClientLib_A:GLItem.obj
 0002:0000ce3c       ??_C@_0N@GHLLHHJO@SLOT_VEHICLE?$AA@ 00508e3c     RanClientLib_A:GLItem.obj
 0002:0000ce4c       ??_C@_0N@OBBHCGCC@SLOT_LHAND_S?$AA@ 00508e4c     RanClientLib_A:GLItem.obj
 0002:0000ce5c       ??_C@_0N@IICGAFDL@SLOT_RHAND_S?$AA@ 00508e5c     RanClientLib_A:GLItem.obj
 0002:0000ce6c       ??_C@_0N@EHGEGHBL@SLOT_LFINGER?$AA@ 00508e6c     RanClientLib_A:GLItem.obj
 0002:0000ce7c       ??_C@_0N@COFFEEAC@SLOT_RFINGER?$AA@ 00508e7c     RanClientLib_A:GLItem.obj
 0002:0000ce8c       ??_C@_0L@PBBBABEG@SLOT_WRIST?$AA@ 00508e8c     RanClientLib_A:GLItem.obj
 0002:0000ce98       ??_C@_09IGFHBGGG@SLOT_NECK?$AA@ 00508e98     RanClientLib_A:GLItem.obj
 0002:0000cea4       ??_C@_0L@CJNIHGKA@SLOT_LHAND?$AA@ 00508ea4     RanClientLib_A:GLItem.obj
 0002:0000ceb0       ??_C@_0L@BAAEBFEL@SLOT_RHAND?$AA@ 00508eb0     RanClientLib_A:GLItem.obj
 0002:0000cebc       ??_C@_09BNNKEKDJ@SLOT_FOOT?$AA@ 00508ebc     RanClientLib_A:GLItem.obj
 0002:0000cec8       ??_C@_09JDFPLAN@SLOT_HAND?$AA@ 00508ec8     RanClientLib_A:GLItem.obj
 0002:0000ced4       ??_C@_0L@POEHPIMF@SLOT_LOWER?$AA@ 00508ed4     RanClientLib_A:GLItem.obj
 0002:0000cee0       ??_C@_0M@IINEHPMN@SLOT_UPPER?7?$AA@ 00508ee0     RanClientLib_A:GLItem.obj
 0002:0000ceec       ??_C@_0O@FNNILEJK@SLOT_HEADGEAR?$AA@ 00508eec     RanClientLib_A:GLItem.obj
 0002:0000cefc       ??_C@_0BJ@GMIDAKHE@VEHICLE_ACCETYPE_PARTS_F?$AA@ 00508efc     RanClientLib_A:GLItem.obj
 0002:0000cf18       ??_C@_0BJ@EHKOFJLH@VEHICLE_ACCETYPE_PARTS_E?$AA@ 00508f18     RanClientLib_A:GLItem.obj
 0002:0000cf34       ??_C@_0BJ@FOLFGIPG@VEHICLE_ACCETYPE_PARTS_D?$AA@ 00508f34     RanClientLib_A:GLItem.obj
 0002:0000cf50       ??_C@_0BJ@BBPEPODB@VEHICLE_ACCETYPE_PARTS_C?$AA@ 00508f50     RanClientLib_A:GLItem.obj
 0002:0000cf6c       ??_C@_0BJ@IOPMPHA@VEHICLE_ACCETYPE_PARTS_B?$AA@ 00508f6c     RanClientLib_A:GLItem.obj
 0002:0000cf88       ??_C@_0BJ@CDMCJMLD@VEHICLE_ACCETYPE_PARTS_A?$AA@ 00508f88     RanClientLib_A:GLItem.obj
 0002:0000cfa4       ??_C@_0BG@NMJAFLPB@VEHICLE_ACCETYPE_SKIN?$AA@ 00508fa4     RanClientLib_A:GLItem.obj
 0002:0000cfbc       ??_C@_0O@IHJPGBFF@PET_ACCETYPEB?$AA@ 00508fbc     RanClientLib_A:GLItem.obj
 0002:0000cfcc       ??_C@_0O@KMLCDCJG@PET_ACCETYPEA?$AA@ 00508fcc     RanClientLib_A:GLItem.obj
 0002:0000cfe0       ??_7GLEmulatorDBMan@@6B@   00508fe0     RanClientLib_A:GLAgentServer.obj
 0002:0000d1a0       __real@4046800000000000    005091a0     RanClientLib_A:GLogicData.obj
 0002:0000d1a8       ??_C@_04GECOBHPB@?$LM?$LK?$LJ?$KO?$AA@ 005091a8     RanClientLib_A:GLogicData.obj
 0002:0000d1b0       ??_C@_06OECIKMOI@?$LL?l?$MA?N?$LB?M?$AA@ 005091b0     RanClientLib_A:GLogicData.obj
 0002:0000d1b8       ??_C@_06CHDCDHFK@?$LL?l?$MA?N?$LI?$LG?$AA@ 005091b8     RanClientLib_A:GLogicData.obj
 0002:0000d1c0       ??_C@_06LEJICKBJ@?$LL?l?$MA?N?$MA?Z?$AA@ 005091c0     RanClientLib_A:GLogicData.obj
 0002:0000d1c8       ??_C@_08FDDINCNA@?$LK?R?$LH?$KO?G?P?$LL?$PN?$AA@ 005091c8     RanClientLib_A:GLogicData.obj
 0002:0000d1d4       ??_C@_08MICLLFD@?$MA?O?$LJ?$NN?G?P?$LL?$PN?$AA@ 005091d4     RanClientLib_A:GLogicData.obj
 0002:0000d1e0       ??_C@_0M@NPJAHKCC@about?3blank?$AA@ 005091e0     RanClientLib_A:GLogicData.obj
 0002:0000d1ec       ??_C@_0BA@CMCENALA@class2H?4charset?$AA@ 005091ec     RanClientLib_A:GLogicData.obj
 0002:0000d1fc       ??_C@_0BA@NNCPILDN@class2G?4charset?$AA@ 005091fc     RanClientLib_A:GLogicData.obj
 0002:0000d20c       ??_C@_0BA@DCONOAAD@class2F?4charset?$AA@ 0050920c     RanClientLib_A:GLogicData.obj
 0002:0000d21c       ??_C@_0BA@NJNKFLAA@class2E?4charset?$AA@ 0050921c     RanClientLib_A:GLogicData.obj
 0002:0000d22c       ??_C@_0BA@DGBIDADO@class2D?4charset?$AA@ 0050922c     RanClientLib_A:GLogicData.obj
 0002:0000d23c       ??_C@_0BA@NEMECLEH@class2C?4charset?$AA@ 0050923c     RanClientLib_A:GLogicData.obj
 0002:0000d24c       ??_C@_0BA@DLAGEAHJ@class2B?4charset?$AA@ 0050924c     RanClientLib_A:GLogicData.obj
 0002:0000d25c       ??_C@_0BA@NADBPLHK@class2A?4charset?$AA@ 0050925c     RanClientLib_A:GLogicData.obj
 0002:0000d26c       ??_C@_0BA@DFKPDOBG@class29?4charset?$AA@ 0050926c     RanClientLib_A:GLogicData.obj
 0002:0000d27c       ??_C@_0BA@NKGNFFCI@class28?4charset?$AA@ 0050927c     RanClientLib_A:GLogicData.obj
 0002:0000d28c       ??_C@_0BA@CLGGAOKF@class27?4charset?$AA@ 0050928c     RanClientLib_A:GLogicData.obj
 0002:0000d29c       ??_C@_0BA@MEKEGFJL@class26?4charset?$AA@ 0050929c     RanClientLib_A:GLogicData.obj
 0002:0000d2ac       ??_C@_0BA@CPJDNOJI@class25?4charset?$AA@ 005092ac     RanClientLib_A:GLogicData.obj
 0002:0000d2bc       ??_C@_0BA@MAFBLFKG@class24?4charset?$AA@ 005092bc     RanClientLib_A:GLogicData.obj
 0002:0000d2cc       ??_C@_0BA@CCINKONP@class23?4charset?$AA@ 005092cc     RanClientLib_A:GLogicData.obj
 0002:0000d2dc       ??_C@_0BA@MNEPMFOB@class22?4charset?$AA@ 005092dc     RanClientLib_A:GLogicData.obj
 0002:0000d2ec       ??_C@_0BA@CGHIHOOC@class21?4charset?$AA@ 005092ec     RanClientLib_A:GLogicData.obj
 0002:0000d2fc       ??_C@_0BA@MJLKBFNM@class20?4charset?$AA@ 005092fc     RanClientLib_A:GLogicData.obj
 0002:0000d30c       ??_C@_0BA@LFMGLGLB@class1H?4charset?$AA@ 0050930c     RanClientLib_A:GLogicData.obj
 0002:0000d31c       ??_C@_0BA@EEMNONDM@class1G?4charset?$AA@ 0050931c     RanClientLib_A:GLogicData.obj
 0002:0000d32c       ??_C@_0BA@KLAPIGAC@class1F?4charset?$AA@ 0050932c     RanClientLib_A:GLogicData.obj
 0002:0000d33c       ??_C@_0BA@EADIDNAB@class1E?4charset?$AA@ 0050933c     RanClientLib_A:GLogicData.obj
 0002:0000d34c       ??_C@_0BA@KPPKFGDP@class1D?4charset?$AA@ 0050934c     RanClientLib_A:GLogicData.obj
 0002:0000d35c       ??_C@_0BA@ENCGENEG@class1C?4charset?$AA@ 0050935c     RanClientLib_A:GLogicData.obj
 0002:0000d36c       ??_C@_0BA@KCOECGHI@class1B?4charset?$AA@ 0050936c     RanClientLib_A:GLogicData.obj
 0002:0000d37c       ??_C@_0BA@EJNDJNHL@class1A?4charset?$AA@ 0050937c     RanClientLib_A:GLogicData.obj
 0002:0000d38c       ??_C@_0BA@KMENFIBH@class19?4charset?$AA@ 0050938c     RanClientLib_A:GLogicData.obj
 0002:0000d39c       ??_C@_0BA@EDIPDDCJ@class18?4charset?$AA@ 0050939c     RanClientLib_A:GLogicData.obj
 0002:0000d3ac       ??_C@_0BA@LCIEGIKE@class17?4charset?$AA@ 005093ac     RanClientLib_A:GLogicData.obj
 0002:0000d3bc       ??_C@_0BA@FNEGADJK@class16?4charset?$AA@ 005093bc     RanClientLib_A:GLogicData.obj
 0002:0000d3cc       ??_C@_0BA@LGHBLIJJ@class15?4charset?$AA@ 005093cc     RanClientLib_A:GLogicData.obj
 0002:0000d3dc       ??_C@_0BA@FJLDNDKH@class14?4charset?$AA@ 005093dc     RanClientLib_A:GLogicData.obj
 0002:0000d3ec       ??_C@_0BA@LLGPMINO@class13?4charset?$AA@ 005093ec     RanClientLib_A:GLogicData.obj
 0002:0000d3fc       ??_C@_0BA@FEKNKDOA@class12?4charset?$AA@ 005093fc     RanClientLib_A:GLogicData.obj
 0002:0000d40c       ??_C@_0BA@LPJKBIOD@class11?4charset?$AA@ 0050940c     RanClientLib_A:GLogicData.obj
 0002:0000d41c       ??_C@_0BA@FAFIHDNN@class10?4charset?$AA@ 0050941c     RanClientLib_A:GLogicData.obj
 0002:0000d42c       ??_C@_0BA@HEEIGJHB@class0H?4charset?$AA@ 0050942c     RanClientLib_A:GLogicData.obj
 0002:0000d43c       ??_C@_0BA@IFEDDCPM@class0G?4charset?$AA@ 0050943c     RanClientLib_A:GLogicData.obj
 0002:0000d44c       ??_C@_0BA@GKIBFJMC@class0F?4charset?$AA@ 0050944c     RanClientLib_A:GLogicData.obj
 0002:0000d45c       ??_C@_0BA@IBLGOCMB@class0E?4charset?$AA@ 0050945c     RanClientLib_A:GLogicData.obj
 0002:0000d46c       ??_C@_0BA@GOHEIJPP@class0D?4charset?$AA@ 0050946c     RanClientLib_A:GLogicData.obj
 0002:0000d47c       ??_C@_0BA@IMKIJCIG@class0C?4charset?$AA@ 0050947c     RanClientLib_A:GLogicData.obj
 0002:0000d48c       ??_C@_0BA@GDGKPJLI@class0B?4charset?$AA@ 0050948c     RanClientLib_A:GLogicData.obj
 0002:0000d49c       ??_C@_0BA@IIFNECLL@class0A?4charset?$AA@ 0050949c     RanClientLib_A:GLogicData.obj
 0002:0000d4ac       ??_C@_0BA@GNMDIHNH@class09?4charset?$AA@ 005094ac     RanClientLib_A:GLogicData.obj
 0002:0000d4bc       ??_C@_0BA@ICABOMOJ@class08?4charset?$AA@ 005094bc     RanClientLib_A:GLogicData.obj
 0002:0000d4cc       ??_C@_0BA@HDAKLHGE@class07?4charset?$AA@ 005094cc     RanClientLib_A:GLogicData.obj
 0002:0000d4dc       ??_C@_0BA@JMMINMFK@class06?4charset?$AA@ 005094dc     RanClientLib_A:GLogicData.obj
 0002:0000d4ec       ??_C@_0BA@HHPPGHFJ@class05?4charset?$AA@ 005094ec     RanClientLib_A:GLogicData.obj
 0002:0000d4fc       ??_C@_0BA@JIDNAMGH@class04?4charset?$AA@ 005094fc     RanClientLib_A:GLogicData.obj
 0002:0000d50c       ??_C@_0BA@HKOBBHBO@class03?4charset?$AA@ 0050950c     RanClientLib_A:GLogicData.obj
 0002:0000d51c       ??_C@_0BA@JFCDHMCA@class02?4charset?$AA@ 0050951c     RanClientLib_A:GLogicData.obj
 0002:0000d52c       ??_C@_0BA@HOBEMHCD@class01?4charset?$AA@ 0050952c     RanClientLib_A:GLogicData.obj
 0002:0000d53c       ??_C@_0BA@JBNGKMBN@class00?4charset?$AA@ 0050953c     RanClientLib_A:GLogicData.obj
 0002:0000d54c       ??_C@_07NBCGADJA@Unknown?$AA@ 0050954c     RanClientLib_A:ExceptionHandler.obj
 0002:0000d554       ??_C@_01BJJEKLCA@?$CC?$AA@ 00509554     RanClientLib_A:ExceptionHandler.obj
 0002:0000d558       ??_C@_0DC@ILDOBEJN@?$LO?K?$LM?v?5?$LO?x?$LE?B?5?$LJ?v?$MA?$PM?$MA?G?5inventory?5save?5@ 00509558     RanClientLib_A:GLInventory.obj
 0002:0000d58c       ??_C@_0DM@CNHPBGGO@inventory?5save?5byte?5stream?5?C?$LD?$LI?$KO?5@ 0050958c     RanClientLib_A:GLInventory.obj
 0002:0000d5c8       ??_C@_01FGNFDNOH@?$CF?$AA@ 005095c8     RanClientLib_A:RANPARAM.obj
 0002:0000d5cc       ??_C@_06OJHGLDPL@?$CInull?$CJ?$AA@ 005095cc     RanClientLib_A:RANPARAM.obj
 0002:0000d5d4       ??_C@_0L@MCIGBCFC@Google?4com?$AA@ 005095d4     RanClientLib_A:RANPARAM.obj
 0002:0000d5e0       ??_C@_0CM@FJFEDFGC@ran?9online?4co?4kr?1news?1patch_list@ 005095e0     RanClientLib_A:RANPARAM.obj
 0002:0000d60c       ??_C@_0O@IJDFHABK@2046?45u56?4com?$AA@ 0050960c     RanClientLib_A:RANPARAM.obj
 0002:0000d61c       ??_C@_06IAEPOIJG@Tahoma?$AA@ 0050961c     RanClientLib_A:RANPARAM.obj
 0002:0000d624       ??_C@_02FJDFBJFI@kr?$AA@   00509624     RanClientLib_A:RANPARAM.obj
 0002:0000d628       ??_C@_0N@IEKJNHBB@Launcher?4xml?$AA@ 00509628     RanClientLib_A:RANPARAM.obj
 0002:0000d638       ??_C@_0P@NOBFGNKL@gameintext?4xml?$AA@ 00509638     RanClientLib_A:RANPARAM.obj
 0002:0000d648       ??_C@_0P@POLPAOMD@gameextext?4xml?$AA@ 00509648     RanClientLib_A:RANPARAM.obj
 0002:0000d658       ??_C@_0N@LANEKEJM@gameword?4xml?$AA@ 00509658     RanClientLib_A:RANPARAM.obj
 0002:0000d668       ??_C@_0P@NGNOKHNO@servertext?4xml?$AA@ 00509668     RanClientLib_A:RANPARAM.obj
 0002:0000d678       ??_C@_0P@PHLIJAGE@uioutercfg?4xml?$AA@ 00509678     RanClientLib_A:RANPARAM.obj
 0002:0000d688       ??_C@_0BB@CCGPPLGO@uiinnercfg01?4xml?$AA@ 00509688     RanClientLib_A:RANPARAM.obj
 0002:0000d69c       ??_C@_0BB@KEPLIJMA@uiinnercfg02?4xml?$AA@ 0050969c     RanClientLib_A:RANPARAM.obj
 0002:0000d6b0       ??_C@_0BB@GPKHFKGF@uiinnercfg03?4xml?$AA@ 005096b0     RanClientLib_A:RANPARAM.obj
 0002:0000d6c4       ??_C@_0N@HBDHMJBH@uiextcfg?4xml?$AA@ 005096c4     RanClientLib_A:RANPARAM.obj
 0002:0000d6d4       ??_C@_0BB@IIHAJBDG@ItemStrTable?4txt?$AA@ 005096d4     RanClientLib_A:GLItemMan.obj
 0002:0000d6e8       ??_C@_0BE@GONBCHDI@_ItemData_Synce?4txt?$AA@ 005096e8     RanClientLib_A:GLItemMan.obj
 0002:0000d6fc       ??_C@_06LJKPHNMP@GLITEM?$AA@ 005096fc     RanClientLib_A:GLItemMan.obj
 0002:0000d704       ??_C@_09NMEFGLMN@Money_3?4X?$AA@ 00509704     RanClientLib_A:GLItemMan.obj
 0002:0000d710       ??_C@_09GEPJAMKI@Money_2?4X?$AA@ 00509710     RanClientLib_A:GLItemMan.obj
 0002:0000d71c       ??_C@_09HGEMKDEG@Money_1?4X?$AA@ 0050971c     RanClientLib_A:GLItemMan.obj
 0002:0000d728       ??_C@_05KIGIAMMN@glmap?$AA@ 00509728     RanClientLib_A:GLLevelFile.obj
 0002:0000d730       ??_C@_06LNPEMBMA@?G?W?$LL?s?B?$PM?$AA@ 00509730     RanClientLib_A:GLLevelFile.obj
 0002:0000d738       ??_C@_02EEKDKGMJ@?$DO?$DN?$AA@ 00509738     RanClientLib_A:GLLevelFile.obj
 0002:0000d73c       ??_C@_02EHCHHCKH@?$DM?$DN?$AA@ 0050973c     RanClientLib_A:GLLevelFile.obj
 0002:0000d740       ??_C@_01PPODPGHN@?$DO?$AA@ 00509740     RanClientLib_A:GLLevelFile.obj
 0002:0000d744       ??_C@_01MNNFJEPP@?$DM?$AA@ 00509744     RanClientLib_A:GLLevelFile.obj
 0002:0000d748       ??_C@_0O@NAKJOHDA@EMSIGN_ALWAYS?$AA@ 00509748     RanClientLib_A:GLLevelFile.obj
 0002:0000d758       ??_C@_0BB@PHDIKBI@EMSIGN_SAMELOWER?$AA@ 00509758     RanClientLib_A:GLLevelFile.obj
 0002:0000d76c       ??_C@_0BC@DCBLOJKO@EMSIGN_SAMEHIGHER?$AA@ 0050976c     RanClientLib_A:GLLevelFile.obj
 0002:0000d780       ??_C@_0N@CEFANPLC@EMSIGN_LOWER?$AA@ 00509780     RanClientLib_A:GLLevelFile.obj
 0002:0000d790       ??_C@_0O@EDDIAAN@EMSIGN_HIGHER?$AA@ 00509790     RanClientLib_A:GLLevelFile.obj
 0002:0000d7a0       ??_C@_0M@HCMHHFON@EMSIGN_SAME?$AA@ 005097a0     RanClientLib_A:GLLevelFile.obj
 0002:0000d7ac       ??_C@_04CGFJFPFD@none?$AA@ 005097ac     RanClientLib_A:GLTowerWarsAgentMan.obj
 0002:0000d7b4       ??_C@_0BC@KGKDHGDP@SkillStrTable?4txt?$AA@ 005097b4     RanClientLib_A:GLSkill.obj
 0002:0000d7c8       ??_C@_0BE@DNAANLCC@_CrowData_Synce?4txt?$AA@ 005097c8     RanClientLib_A:GLSkill.obj
 0002:0000d7dc       ??_C@_06GLMOEFLP@GLCROW?$AA@ 005097dc     RanClientLib_A:GLSkill.obj
 0002:0000d7e4       ??_C@_07NPCGECPI@Passive?$AA@ 005097e4     RanClientLib_A:GLSkill.obj
 0002:0000d7ec       ??_C@_06MAFFGDO@Active?$AA@ 005097ec     RanClientLib_A:GLSkill.obj
 0002:0000d7f4       ??_C@_05PGIOBOGC@Magic?$AA@ 005097f4     RanClientLib_A:GLSkill.obj
 0002:0000d7fc       ??_C@_07NNGGGELH@Messile?$AA@ 005097fc     RanClientLib_A:GLSkill.obj
 0002:0000d804       ??_C@_05ILEPGBEB@Melee?$AA@ 00509804     RanClientLib_A:GLSkill.obj
 0002:0000d80c       ??_C@_07JDINFKLK@CP?5Rate?$AA@ 0050980c     RanClientLib_A:GLSkill.obj
 0002:0000d814       ??_C@_06BHGNADHO@Add?5CP?$AA@ 00509814     RanClientLib_A:GLSkill.obj
 0002:0000d81c       ??_C@_0BE@NBKCGGFI@Increase?5SummonTime?$AA@ 0050981c     RanClientLib_A:GLSkill.obj
 0002:0000d830       ??_C@_0BD@KAJMEDMH@Changed?5Resistance?$AA@ 00509830     RanClientLib_A:GLSkill.obj
 0002:0000d844       ??_C@_0BB@IGJLBEEM@Pet?5Prevent?5Item?$AA@ 00509844     RanClientLib_A:GLSkill.obj
 0002:0000d858       ??_C@_0BE@DICGGLDI@Pet?5Auto?5Use?5Potion?$AA@ 00509858     RanClientLib_A:GLSkill.obj
 0002:0000d86c       ??_C@_0BL@PJEOJBBH@Pet?5Master?5Defense?5Ability?$AA@ 0050986c     RanClientLib_A:GLSkill.obj
 0002:0000d888       ??_C@_0BK@HMKFHCOD@Pet?5Master?5Attack?5Ability?$AA@ 00509888     RanClientLib_A:GLSkill.obj
 0002:0000d8a4       ??_C@_0CM@JFOGCOFO@Pet?5Master?5HP?$CLMP?$CLSPTransformatio@ 005098a4     RanClientLib_A:GLSkill.obj
 0002:0000d8d0       ??_C@_0CH@PPNEMAON@Pet?5Master?5HP?5Transformation?5Fre@ 005098d0     RanClientLib_A:GLSkill.obj
 0002:0000d8f8       ??_C@_0P@GFCBCBBJ@Pet?5Stone?5Item?$AA@ 005098f8     RanClientLib_A:GLSkill.obj
 0002:0000d908       ??_C@_09JHIOMBLG@Pet?5Money?$AA@ 00509908     RanClientLib_A:GLSkill.obj
 0002:0000d914       ??_C@_0BA@OADDELKJ@Pet?5Potion?5Item?$AA@ 00509914     RanClientLib_A:GLSkill.obj
 0002:0000d924       ??_C@_0O@FCBMDDGN@Pet?5Rare?5Item?$AA@ 00509924     RanClientLib_A:GLSkill.obj
 0002:0000d934       ??_C@_0N@GCLACHHA@Pet?5All?5Item?$AA@ 00509934     RanClientLib_A:GLSkill.obj
 0002:0000d944       ??_C@_0BD@NOMIHCOF@SP?5Increasing?5Rate?$AA@ 00509944     RanClientLib_A:GLSkill.obj
 0002:0000d958       ??_C@_0BD@FJPHFPHJ@MP?5Increasing?5Rate?$AA@ 00509958     RanClientLib_A:GLSkill.obj
 0002:0000d96c       ??_C@_0BD@GHHNNCMD@HP?5Increasing?5Rate?$AA@ 0050996c     RanClientLib_A:GLSkill.obj
 0002:0000d980       ??_C@_0BB@BMIGJGMH@Magic?5Power?5Rate?$AA@ 00509980     RanClientLib_A:GLSkill.obj
 0002:0000d994       ??_C@_0N@CEEBCHDN@Hitting?5rate?$AA@ 00509994     RanClientLib_A:GLSkill.obj
 0002:0000d9a4       ??_C@_0BM@HDBNEHEJ@Close?5Quarter?5Fighting?5rate?$AA@ 005099a4     RanClientLib_A:GLSkill.obj
 0002:0000d9c0       ??_C@_0BM@DEFOMGHJ@Defend?5Value?5Transformation?$AA@ 005099c0     RanClientLib_A:GLSkill.obj
 0002:0000d9dc       ??_C@_0BM@LEPDJKG@Attack?5Value?5Transformation?$AA@ 005099dc     RanClientLib_A:GLSkill.obj
 0002:0000d9f8       ??_C@_0CC@JDGCEBML@HP?$CLMP?$CLSP?5Transformation?5Frequenc@ 005099f8     RanClientLib_A:GLSkill.obj
 0002:0000da1c       ??_C@_0CE@BHDFJNJF@Prevention?5Transformation?5Freque@ 00509a1c     RanClientLib_A:GLSkill.obj
 0002:0000da40       ??_C@_0BO@HOBALFMH@Hit?5Percentage?5Transformation?$AA@ 00509a40     RanClientLib_A:GLSkill.obj
 0002:0000da60       ??_C@_08NOCNDIJI@Detoxify?$AA@ 00509a60     RanClientLib_A:GLSkill.obj
 0002:0000da6c       ??_C@_0BM@DNEOIBJF@Defence?5Transformation?5Rate?$AA@ 00509a6c     RanClientLib_A:GLSkill.obj
 0002:0000da88       ??_C@_0BM@NLCCBOKF@SP?5Transformation?5Frequency?$AA@ 00509a88     RanClientLib_A:GLSkill.obj
 0002:0000daa4       ??_C@_0BM@MIGOCJND@MP?5Transformation?5Frequency?$AA@ 00509aa4     RanClientLib_A:GLSkill.obj
 0002:0000dac0       ??_C@_0BM@MPAMCALK@HP?5Transformation?5Frequency?$AA@ 00509ac0     RanClientLib_A:GLSkill.obj
 0002:0000dadc       ??_C@_0BC@KLFAFBBN@SP?5Transformation?$AA@ 00509adc     RanClientLib_A:GLSkill.obj
 0002:0000daf0       ??_C@_0BC@JMNOBPIM@MP?5Transformation?$AA@ 00509af0     RanClientLib_A:GLSkill.obj
 0002:0000db04       ??_C@_0BC@FGIHEMJB@Hp?5Transformation?$AA@ 00509b04     RanClientLib_A:GLSkill.obj
 0002:0000db18       ??_C@_07ELHPEIAJ@Grade09?$AA@ 00509b18     RanClientLib_A:GLSkill.obj
 0002:0000db20       ??_C@_07FCGEHJEI@Grade08?$AA@ 00509b20     RanClientLib_A:GLSkill.obj
 0002:0000db28       ??_C@_07NFPMGFIH@Grade07?$AA@ 00509b28     RanClientLib_A:GLSkill.obj
 0002:0000db30       ??_C@_07MMOHFEMG@Grade06?$AA@ 00509b30     RanClientLib_A:GLSkill.obj
 0002:0000db38       ??_C@_07OHMKAHAF@Grade05?$AA@ 00509b38     RanClientLib_A:GLSkill.obj
 0002:0000db40       ??_C@_07PONBDGEE@Grade04?$AA@ 00509b40     RanClientLib_A:GLSkill.obj
 0002:0000db48       ??_C@_07LBJAKAID@Grade03?$AA@ 00509b48     RanClientLib_A:GLSkill.obj
 0002:0000db50       ??_C@_07KIILJBMC@Grade02?$AA@ 00509b50     RanClientLib_A:GLSkill.obj
 0002:0000db58       ??_C@_07IDKGMCAB@Grade01?$AA@ 00509b58     RanClientLib_A:GLSkill.obj
 0002:0000db60       ??_C@_0BG@PIGEJFLN@When?5Effect?5Activated?$AA@ 00509b60     RanClientLib_A:GLSkill.obj
 0002:0000db78       ??_C@_0BE@BALPGE@Goal?8s?5Installation?$AA@ 00509b78     RanClientLib_A:GLSkill.obj
 0002:0000db8c       ??_C@_0BF@PODPAFOI@at?5the?5effect?5ending?$AA@ 00509b8c     RanClientLib_A:GLSkill.obj
 0002:0000dba4       ??_C@_07MMLBFKOD@Hitting?$AA@ 00509ba4     RanClientLib_A:GLSkill.obj
 0002:0000dbac       ??_C@_0L@OKCNHEBK@Mobilizing?$AA@ 00509bac     RanClientLib_A:GLSkill.obj
 0002:0000dbb8       ??_C@_0N@NIDDNMHE@Hit?5Position?$AA@ 00509bb8     RanClientLib_A:GLSkill.obj
 0002:0000dbc8       ??_C@_0BA@IECCKNHI@Ground?5position?$AA@ 00509bc8     RanClientLib_A:GLSkill.obj
 0002:0000dbd8       ??_C@_0BC@CBFLJGEF@?$CIx?$CJTransform?$CICHF?$CJ?$AA@ 00509bd8     RanClientLib_A:GLSkill.obj
 0002:0000dbec       ??_C@_06DLFKBJMP@Summon?$AA@ 00509bec     RanClientLib_A:GLSkill.obj
 0002:0000dbf4       ??_C@_0P@BMCEKGHG@Transform?$CICPS?$CJ?$AA@ 00509bf4     RanClientLib_A:GLSkill.obj
 0002:0000dc04       ??_C@_04OHJIHAFH@None?$AA@ 00509c04     RanClientLib_A:GLSkill.obj
 0002:0000dc0c       ??_C@_05GHJMOCPE@Limit?$AA@ 00509c0c     RanClientLib_A:GLSkill.obj
 0002:0000dc14       ??_C@_06EKAAOADC@Debuff?$AA@ 00509c14     RanClientLib_A:GLSkill.obj
 0002:0000dc1c       ??_C@_04DIPCCING@Buff?$AA@ 00509c1c     RanClientLib_A:GLSkill.obj
 0002:0000dc24       ??_C@_0O@JCEPLALI@Normal?5Attack?$AA@ 00509c24     RanClientLib_A:GLSkill.obj
 0002:0000dc34       ??_C@_0BB@ILJPNCFM@Forced?5Emoticons?$AA@ 00509c34     RanClientLib_A:GLSkill.obj
 0002:0000dc48       ??_C@_0P@DIBIOLFJ@Transformation?$AA@ 00509c48     RanClientLib_A:GLSkill.obj
 0002:0000dc58       ??_C@_06INMKDGJN@Fixing?$AA@ 00509c58     RanClientLib_A:GLSkill.obj
 0002:0000dc60       ??_C@_06BEOPDEGP@Random?$AA@ 00509c60     RanClientLib_A:GLSkill.obj
 0002:0000dc68       ??_C@_06NNOCCMPB@Caster?$AA@ 00509c68     RanClientLib_A:GLSkill.obj
 0002:0000dc70       ??_C@_03LHAMFAHE@Own?$AA@  00509c70     RanClientLib_A:GLSkill.obj
 0002:0000dc74       ??_C@_05CLADCAAM@After?$AA@ 00509c74     RanClientLib_A:GLSkill.obj
 0002:0000dc7c       ??_C@_06NDPGJMFM@Before?$AA@ 00509c7c     RanClientLib_A:GLSkill.obj
 0002:0000dc84       ??_C@_08GCECMMIH@Decrease?$AA@ 00509c84     RanClientLib_A:GLSkill.obj
 0002:0000dc90       ??_C@_08MOGHDHIG@Increase?$AA@ 00509c90     RanClientLib_A:GLSkill.obj
 0002:0000dc9c       ??_C@_0L@KIBDOMM@Combat?5Use?$AA@ 00509c9c     RanClientLib_A:GLSkill.obj
 0002:0000dca8       ??_C@_08DMNNOKNK@Teleport?$AA@ 00509ca8     RanClientLib_A:GLSkill.obj
 0002:0000dcb4       ??_C@_07FHPALHKG@Walking?$AA@ 00509cb4     RanClientLib_A:GLSkill.obj
 0002:0000dcbc       ??_C@_06FGANPIPG@Target?$AA@ 00509cbc     RanClientLib_A:GLSkill.obj
 0002:0000dcc4       ??_C@_04DIPMEEKN@Self?$AA@ 00509cc4     RanClientLib_A:GLSkill.obj
 0002:0000dccc       ??_C@_03HFJGAJFE@All?$AA@  00509ccc     RanClientLib_A:GLSkill.obj
 0002:0000dcd0       ??_C@_1EE@HKJBOPNH@?$AA?5?$AA?$GA?$AA?$HO?$AA?$CB?$AA?$EA?$AA?$CD?$AA$?$AA?$CF?$AA?$FO?$AA?$CG?$AA?$CK?$AA?$CI?$AA?$CJ?$AA?9?$AA_?$AA?$DN?$AA?$CL?$AA?2?$AA?$HM?$AA?$FL@ 00509cd0     RanClientLib_A:Slangfilter.obj
 0002:0000dd14       ??_C@_0BB@DKEHLMGK@CrowStrTable?4txt?$AA@ 00509d14     RanClientLib_A:GLCrowData.obj
 0002:0000dd28       ??_C@_0BE@DOKFDCHA@?$LA?x?$LA?$NN?$LJ?$NO?$MA?$LI?$LI?i?5?$LF?$LF?$LI?A?$LA?$KD?$LE?Y?$AA@ 00509d28     RanClientLib_A:GLCrowData.obj
 0002:0000dd3c       ??_C@_0BB@OAKLBGIF@?$LG?Y?$LA?m?5?$MA?V?$MA?$LL?$LG?$KH?5?$LA?x?$LA?$NN?$AA@ 00509d3c     RanClientLib_A:GLCrowData.obj
 0002:0000dd50       ??_C@_0BF@KNGJLOCA@?$LJ?$KL?$LB?b?$LF?i?$LA?m?5?$MA?V?$LE?B?$MA?Z?5?$LA?x?$LA?$NN?$AA@ 00509d50     RanClientLib_A:GLCrowData.obj
 0002:0000dd68       ??_C@_0O@ICHIHLAP@?$LL?s?E?B?$MA?L?$LL?s?5?$LA?x?$LA?$NN?$AA@ 00509d68     RanClientLib_A:GLCrowData.obj
 0002:0000dd78       ??_C@_0P@BGAAGMKG@?$LO?n?$LF?R?5?$LM?S?$LM?$LK?5?$LA?x?$LA?$NN?$AA@ 00509d78     RanClientLib_A:GLCrowData.obj
 0002:0000dd88       ??_C@_0N@MHCJGBML@?$LK?$PL?5?$LM?S?$LM?$LK?5?$LA?x?$LA?$NN?$AA@ 00509d88     RanClientLib_A:GLCrowData.obj
 0002:0000dd98       ??_C@_0BG@CELKHCMP@?$MA?Z?$LN?E?$LK?$LI?$LE?Y?5?$LD?$LH?$MA?$LK?5HP?5?$LA?x?$LA?$NN?$AA@ 00509d98     RanClientLib_A:GLCrowData.obj
 0002:0000ddb0       ??_C@_0BI@BMLJBPK@?$MA?Z?$LN?E?$LK?$LI?$LE?Y?5?$LD?$LH?$MA?$LK?5?$LH?$LJ?$LK?$KH?5?$LA?x?$LA?$NN?$AA@ 00509db0     RanClientLib_A:GLCrowData.obj
 0002:0000ddc8       ??_C@_0BD@DKGONEIC@?$LA?$KB?$MA?e?$LA?$KB?$LB?n?$LP?n?5?$MA?$PL?5?$LA?x?$LA?$NN?$AA@ 00509dc8     RanClientLib_A:GLCrowData.obj
 0002:0000dddc       ??_C@_0BD@CGCDJHEK@?$LM?$LB?A?$KG?$LA?x?$LA?$NN?5?G?O?A?v?5?$LO?J?$MA?$LN?$AA@ 00509ddc     RanClientLib_A:GLCrowData.obj
 0002:0000ddf0       ??_C@_0BF@KKIHOANK@?$LA?x?$LA?$NN?5?$LJ?$NO?$MA?$LI?$LI?i?5?$LF?$LF?$LI?A?$LA?$KD?$LE?Y?$AA@ 00509df0     RanClientLib_A:GLCrowData.obj
 0002:0000de08       ??_C@_0BB@PJDNMHH@?$LD?$LH?$MA?$LK?5HP?$LI?$KG?5?C?$KD?$LE?B?$LE?Y?$AA@ 00509e08     RanClientLib_A:GLCrowData.obj
 0002:0000de1c       ??_C@_09LKBOGDIC@?$LK?$KP?G?T?5?$LO?x?$MA?$LN?$AA@ 00509e1c     RanClientLib_A:GLCrowData.obj
 0002:0000de28       ??_C@_0BA@FDJKLGJN@CROWSKTAR_ENEMY?$AA@ 00509e28     RanClientLib_A:GLCrowData.obj
 0002:0000de38       ??_C@_0O@IOEEHPGO@CROWSKTAR_OUR?$AA@ 00509e38     RanClientLib_A:GLCrowData.obj
 0002:0000de48       ??_C@_0O@MBDMIPKO@SUMMON_TYPE_A?$AA@ 00509e48     RanClientLib_A:GLSummon.obj
 0002:0000de58       ??_C@_0BH@JPEPMCKD@VEHICLE_TYPE_REARCAR_D?$AA@ 00509e58     RanClientLib_A:GLVEHICLE.obj
 0002:0000de70       ??_C@_0BH@NAAOFEGE@VEHICLE_TYPE_REARCAR_C?$AA@ 00509e70     RanClientLib_A:GLVEHICLE.obj
 0002:0000de88       ??_C@_0BH@MJBFGFCF@VEHICLE_TYPE_REARCAR_B?$AA@ 00509e88     RanClientLib_A:GLVEHICLE.obj
 0002:0000dea0       ??_C@_0BH@OCDIDGOG@VEHICLE_TYPE_REARCAR_A?$AA@ 00509ea0     RanClientLib_A:GLVEHICLE.obj
 0002:0000deb8       ??_C@_0BD@JLLIIDGO@VEHICLE_TYPE_CAR_D?$AA@ 00509eb8     RanClientLib_A:GLVEHICLE.obj
 0002:0000decc       ??_C@_0BD@NEPJBFKJ@VEHICLE_TYPE_CAR_C?$AA@ 00509ecc     RanClientLib_A:GLVEHICLE.obj
 0002:0000dee0       ??_C@_0BD@MNOCCEOI@VEHICLE_TYPE_CAR_B?$AA@ 00509ee0     RanClientLib_A:GLVEHICLE.obj
 0002:0000def4       ??_C@_0BD@OGMPHHCL@VEHICLE_TYPE_CAR_A?$AA@ 00509ef4     RanClientLib_A:GLVEHICLE.obj
 0002:0000df08       ??_C@_01LELAEKIP@J?$AA@    00509f08     RanClientLib_A:GLVEHICLE.obj
 0002:0000df0c       ??_C@_01JPJNBJEM@I?$AA@    00509f0c     RanClientLib_A:GLVEHICLE.obj
 0002:0000df10       ??_C@_01IGIGCIAN@H?$AA@    00509f10     RanClientLib_A:GLVEHICLE.obj
 0002:0000df14       ??_C@_0BH@GNFHHLAG@VEHICLE_TYPE_BIKE_RARE?$AA@ 00509f14     RanClientLib_A:GLVEHICLE.obj
 0002:0000df2c       ??_C@_0BG@EANENMGC@VEHICLE_TYPE_BIKE_BT9?$AA@ 00509f2c     RanClientLib_A:GLVEHICLE.obj
 0002:0000df44       ??_C@_0BG@NOFHPBOM@VEHICLE_TYPE_BIKE_BT7?$AA@ 00509f44     RanClientLib_A:GLVEHICLE.obj
 0002:0000df5c       ??_C@_0BG@OMGBJDGO@VEHICLE_TYPE_BIKE_BT5?$AA@ 00509f5c     RanClientLib_A:GLVEHICLE.obj
 0002:0000df74       ??_C@_0BE@GMOJMHOJ@VEHICLE_TYPE_SCUTER?$AA@ 00509f74     RanClientLib_A:GLVEHICLE.obj
 0002:0000df88       ??_C@_0L@DILMNAH@HOVERBOARD?$AA@ 00509f88     RanClientLib_A:GLVEHICLE.obj
 0002:0000df94       ??_C@_0L@HIJLIBMP@PET_TYPE_Z?$AA@ 00509f94     RanClientLib_A:GLPet.obj
 0002:0000dfa0       ??_C@_0L@FDLGNCAM@PET_TYPE_Y?$AA@ 00509fa0     RanClientLib_A:GLPet.obj
 0002:0000dfac       ??_C@_0L@EKKNODEN@PET_TYPE_X?$AA@ 00509fac     RanClientLib_A:GLPet.obj
 0002:0000dfb8       ??_C@_0L@MNDFPPIC@PET_TYPE_W?$AA@ 00509fb8     RanClientLib_A:GLPet.obj
 0002:0000dfc4       ??_C@_0L@NECOMOMD@PET_TYPE_V?$AA@ 00509fc4     RanClientLib_A:GLPet.obj
 0002:0000dfd0       ??_C@_0L@PPADJNAA@PET_TYPE_U?$AA@ 00509fd0     RanClientLib_A:GLPet.obj
 0002:0000dfdc       ??_C@_0L@OGBIKMEB@PET_TYPE_T?$AA@ 00509fdc     RanClientLib_A:GLPet.obj
 0002:0000dfe8       ??_C@_0L@KJFJDKIG@PET_TYPE_S?$AA@ 00509fe8     RanClientLib_A:GLPet.obj
 0002:0000dff4       ??_C@_0L@LAECALMH@PET_TYPE_R?$AA@ 00509ff4     RanClientLib_A:GLPet.obj
 0002:0000e000       ??_C@_0L@JLGPFIAE@PET_TYPE_Q?$AA@ 0050a000     RanClientLib_A:GLPet.obj
 0002:0000e00c       ??_C@_0L@ICHEGJEF@PET_TYPE_P?$AA@ 0050a00c     RanClientLib_A:GLPet.obj
 0002:0000e018       ??_C@_0L@EPCOGHNL@PET_TYPE_O?$AA@ 0050a018     RanClientLib_A:GLPet.obj
 0002:0000e024       ??_C@_0L@FGDFFGJK@PET_TYPE_N?$AA@ 0050a024     RanClientLib_A:GLPet.obj
 0002:0000e030       ??_C@_0L@HNBIAFFJ@PET_TYPE_M?$AA@ 0050a030     RanClientLib_A:GLPet.obj
 0002:0000e03c       ??_C@_0L@GEADDEBI@PET_TYPE_L?$AA@ 0050a03c     RanClientLib_A:GLPet.obj
 0002:0000e048       ??_C@_0L@CLECKCNP@PET_TYPE_K?$AA@ 0050a048     RanClientLib_A:GLPet.obj
 0002:0000e054       ??_C@_0L@DCFJJDJO@PET_TYPE_J?$AA@ 0050a054     RanClientLib_A:GLPet.obj
 0002:0000e060       ??_C@_0L@BJHEMAFN@PET_TYPE_I?$AA@ 0050a060     RanClientLib_A:GLPet.obj
 0002:0000e06c       ??_C@_0L@GPPBBM@PET_TYPE_H?$AA@ 0050a06c     RanClientLib_A:GLPet.obj
 0002:0000e078       ??_C@_0L@IHPHONND@PET_TYPE_G?$AA@ 0050a078     RanClientLib_A:GLPet.obj
 0002:0000e084       ??_C@_0L@JOOMNMJC@PET_TYPE_F?$AA@ 0050a084     RanClientLib_A:GLPet.obj
 0002:0000e090       ??_C@_0L@LFMBIPFB@PET_TYPE_E?$AA@ 0050a090     RanClientLib_A:GLPet.obj
 0002:0000e09c       ??_C@_0L@KMNKLOBA@PET_TYPE_D?$AA@ 0050a09c     RanClientLib_A:GLPet.obj
 0002:0000e0a8       ??_C@_0L@ODJLCINH@PET_TYPE_C?$AA@ 0050a0a8     RanClientLib_A:GLPet.obj
 0002:0000e0b4       ??_C@_0L@PKIABJJG@PET_TYPE_B?$AA@ 0050a0b4     RanClientLib_A:GLPet.obj
 0002:0000e0c0       ??_C@_0L@NBKNEKFF@PET_TYPE_A?$AA@ 0050a0c0     RanClientLib_A:GLPet.obj
 0002:0000e0cc       ??_C@_0CE@MEPIBMND@?$LN?C?$MA?$NL?A?v?A?$KB?$MA?$LI?$LH?N?5?$MA?L?$LF?$LP?A?v?A?$KE?$LF?H?5?$MA?$KH?D?$KB?$LH?N?5?$MA@ 0050a0cc     RanClientLib_A:GLQuest.obj
 0002:0000e0f0       ??_C@_0M@BKOOPPIA@?D?$LD?$LI?$KP?E?M?5?$LL?g?$LI?A?$AA@ 0050a0f0     RanClientLib_A:GLQuest.obj
 0002:0000e0fc       ??_C@_0M@MIMKKOFJ@?$MA?L?$LK?$KF?F?$KO?5?$LO?x?$MA?$LN?$AA@ 0050a0fc     RanClientLib_A:GLQuest.obj
 0002:0000e108       ??_C@_08PECEPMGO@GLAT_DIE?$AA@ 0050a108     RanClientLib_A:GLCharDefine.obj
 0002:0000e114       ??_C@_0N@MEPJBOAC@GLAT_FALLING?$AA@ 0050a114     RanClientLib_A:GLCharDefine.obj
 0002:0000e124       ??_C@_0P@KGFHJOMK@GLAT_CONFT_END?$AA@ 0050a124     RanClientLib_A:GLCharDefine.obj
 0002:0000e134       ??_C@_09BDPGHKIP@GLAT_TALK?$AA@ 0050a134     RanClientLib_A:GLCharDefine.obj
 0002:0000e140       ??_C@_0O@HJJHPIKM@GLAT_PUSHPULL?$AA@ 0050a140     RanClientLib_A:GLCharDefine.obj
 0002:0000e150       ??_C@_0L@GCCKFCJK@GLAT_SHOCK?$AA@ 0050a150     RanClientLib_A:GLCharDefine.obj
 0002:0000e15c       ??_C@_0L@EEPMKGGM@GLAT_SKILL?$AA@ 0050a15c     RanClientLib_A:GLCharDefine.obj
 0002:0000e168       ??_C@_0M@DEEKLGGB@GLAT_ATTACK?$AA@ 0050a168     RanClientLib_A:GLCharDefine.obj
 0002:0000e174       ??_C@_09BBOLPDGH@GLAT_MOVE?$AA@ 0050a174     RanClientLib_A:GLCharDefine.obj
 0002:0000e180       ??_C@_09CCNLPEAA@GLAT_IDLE?$AA@ 0050a180     RanClientLib_A:GLCharDefine.obj
 0002:0000e18c       ??_C@_06COGLIGFC@Dragon?$AA@ 0050a18c     RanClientLib_A:GLCharDefine.obj
 0002:0000e194       ??_C@_05IJMHHDMI@Genie?$AA@ 0050a194     RanClientLib_A:GLCharDefine.obj
